	.text
	.file	"llvm-link"
	.globl	_Z26__sanitizer_cov_trace_cmp8mm # -- Begin function _Z26__sanitizer_cov_trace_cmp8mm
	.p2align	4, 0x90
	.type	_Z26__sanitizer_cov_trace_cmp8mm,@function
_Z26__sanitizer_cov_trace_cmp8mm:       # @_Z26__sanitizer_cov_trace_cmp8mm
	.cfi_startproc
# %bb.0:                                # %entry
	pushq	%rbp
	.cfi_def_cfa_offset 16
	.cfi_offset %rbp, -16
	movq	%rsp, %rbp
	.cfi_def_cfa_register %rbp
	subq	$64, %rsp
	movabsq	$.L.str.4, %rax
	movabsq	$.L.str, %rcx
	movq	%rdi, -24(%rbp)
	movq	%rsi, -16(%rbp)
	movq	8(%rbp), %rdx
	movq	%rdx, -8(%rbp)
	movq	-8(%rbp), %rdx
	movq	-24(%rbp), %rsi
	movq	-16(%rbp), %rdi
	movq	%rcx, -56(%rbp)
	movq	%rdx, -48(%rbp)
	movq	%rsi, -40(%rbp)
	movq	%rdi, -32(%rbp)
	movq	-56(%rbp), %rsi
	movq	-48(%rbp), %rdx
	movq	-40(%rbp), %rcx
	movq	-32(%rbp), %r8
	movq	%rax, %rdi
	movb	$0, %al
	callq	printf
	addq	$64, %rsp
	popq	%rbp
	retq
.Lfunc_end0:
	.size	_Z26__sanitizer_cov_trace_cmp8mm, .Lfunc_end0-_Z26__sanitizer_cov_trace_cmp8mm
	.cfi_endproc
                                        # -- End function
	.globl	_Z32__sanitizer_cov_trace_const_cmp8mm # -- Begin function _Z32__sanitizer_cov_trace_const_cmp8mm
	.p2align	4, 0x90
	.type	_Z32__sanitizer_cov_trace_const_cmp8mm,@function
_Z32__sanitizer_cov_trace_const_cmp8mm: # @_Z32__sanitizer_cov_trace_const_cmp8mm
	.cfi_startproc
# %bb.0:                                # %entry
	pushq	%rbp
	.cfi_def_cfa_offset 16
	.cfi_offset %rbp, -16
	movq	%rsp, %rbp
	.cfi_def_cfa_register %rbp
	subq	$64, %rsp
	movabsq	$.L.str.4, %rax
	movabsq	$.L.str, %rcx
	movq	%rdi, -24(%rbp)
	movq	%rsi, -16(%rbp)
	movq	8(%rbp), %rdx
	movq	%rdx, -8(%rbp)
	movq	-8(%rbp), %rdx
	movq	-24(%rbp), %rsi
	movq	-16(%rbp), %rdi
	movq	%rcx, -56(%rbp)
	movq	%rdx, -48(%rbp)
	movq	%rsi, -40(%rbp)
	movq	%rdi, -32(%rbp)
	movq	-56(%rbp), %rsi
	movq	-48(%rbp), %rdx
	movq	-40(%rbp), %rcx
	movq	-32(%rbp), %r8
	movq	%rax, %rdi
	movb	$0, %al
	callq	printf
	addq	$64, %rsp
	popq	%rbp
	retq
.Lfunc_end1:
	.size	_Z32__sanitizer_cov_trace_const_cmp8mm, .Lfunc_end1-_Z32__sanitizer_cov_trace_const_cmp8mm
	.cfi_endproc
                                        # -- End function
	.globl	_Z26__sanitizer_cov_trace_cmp4jj # -- Begin function _Z26__sanitizer_cov_trace_cmp4jj
	.p2align	4, 0x90
	.type	_Z26__sanitizer_cov_trace_cmp4jj,@function
_Z26__sanitizer_cov_trace_cmp4jj:       # @_Z26__sanitizer_cov_trace_cmp4jj
	.cfi_startproc
# %bb.0:                                # %entry
	pushq	%rbp
	.cfi_def_cfa_offset 16
	.cfi_offset %rbp, -16
	movq	%rsp, %rbp
	.cfi_def_cfa_register %rbp
	subq	$48, %rsp
	movabsq	$.L.str.4, %rax
	movabsq	$.L.str, %rcx
	movl	%edi, -8(%rbp)
	movl	%esi, -4(%rbp)
	movq	8(%rbp), %rdx
	movq	%rdx, -24(%rbp)
	movq	-24(%rbp), %rdx
	movl	-8(%rbp), %esi
	movl	-4(%rbp), %edi
	movq	%rcx, -40(%rbp)
	movq	%rdx, -32(%rbp)
	movl	%esi, -16(%rbp)
	movl	%edi, -12(%rbp)
	movq	-40(%rbp), %rsi
	movq	-32(%rbp), %rdx
	movl	-16(%rbp), %ecx
	movl	-12(%rbp), %r8d
	movq	%rax, %rdi
	movb	$0, %al
	callq	printf
	addq	$48, %rsp
	popq	%rbp
	retq
.Lfunc_end2:
	.size	_Z26__sanitizer_cov_trace_cmp4jj, .Lfunc_end2-_Z26__sanitizer_cov_trace_cmp4jj
	.cfi_endproc
                                        # -- End function
	.globl	_Z32__sanitizer_cov_trace_const_cmp4jj # -- Begin function _Z32__sanitizer_cov_trace_const_cmp4jj
	.p2align	4, 0x90
	.type	_Z32__sanitizer_cov_trace_const_cmp4jj,@function
_Z32__sanitizer_cov_trace_const_cmp4jj: # @_Z32__sanitizer_cov_trace_const_cmp4jj
	.cfi_startproc
# %bb.0:                                # %entry
	pushq	%rbp
	.cfi_def_cfa_offset 16
	.cfi_offset %rbp, -16
	movq	%rsp, %rbp
	.cfi_def_cfa_register %rbp
	subq	$48, %rsp
	movabsq	$.L.str.4, %rax
	movabsq	$.L.str, %rcx
	movl	%edi, -8(%rbp)
	movl	%esi, -4(%rbp)
	movq	8(%rbp), %rdx
	movq	%rdx, -24(%rbp)
	movq	-24(%rbp), %rdx
	movl	-8(%rbp), %esi
	movl	-4(%rbp), %edi
	movq	%rcx, -40(%rbp)
	movq	%rdx, -32(%rbp)
	movl	%esi, -16(%rbp)
	movl	%edi, -12(%rbp)
	movq	-40(%rbp), %rsi
	movq	-32(%rbp), %rdx
	movl	-16(%rbp), %ecx
	movl	-12(%rbp), %r8d
	movq	%rax, %rdi
	movb	$0, %al
	callq	printf
	addq	$48, %rsp
	popq	%rbp
	retq
.Lfunc_end3:
	.size	_Z32__sanitizer_cov_trace_const_cmp4jj, .Lfunc_end3-_Z32__sanitizer_cov_trace_const_cmp4jj
	.cfi_endproc
                                        # -- End function
	.globl	_Z26__sanitizer_cov_trace_cmp2tt # -- Begin function _Z26__sanitizer_cov_trace_cmp2tt
	.p2align	4, 0x90
	.type	_Z26__sanitizer_cov_trace_cmp2tt,@function
_Z26__sanitizer_cov_trace_cmp2tt:       # @_Z26__sanitizer_cov_trace_cmp2tt
	.cfi_startproc
# %bb.0:                                # %entry
	pushq	%rbp
	.cfi_def_cfa_offset 16
	.cfi_offset %rbp, -16
	movq	%rsp, %rbp
	.cfi_def_cfa_register %rbp
	subq	$32, %rsp
	movabsq	$.L.str.4, %rax
	movabsq	$.L.str, %rcx
	movw	%di, -4(%rbp)
	movw	%si, -2(%rbp)
	movq	8(%rbp), %rdx
	movq	%rdx, -16(%rbp)
	movq	-16(%rbp), %rdx
	movw	-4(%rbp), %si
	movw	-2(%rbp), %di
	movq	%rcx, -32(%rbp)
	movq	%rdx, -24(%rbp)
	movw	%si, -8(%rbp)
	movw	%di, -6(%rbp)
	movq	-32(%rbp), %rsi
	movq	-24(%rbp), %rdx
	movzwl	-8(%rbp), %ecx
	movzwl	-6(%rbp), %r8d
	movq	%rax, %rdi
	movb	$0, %al
	callq	printf
	addq	$32, %rsp
	popq	%rbp
	retq
.Lfunc_end4:
	.size	_Z26__sanitizer_cov_trace_cmp2tt, .Lfunc_end4-_Z26__sanitizer_cov_trace_cmp2tt
	.cfi_endproc
                                        # -- End function
	.globl	_Z32__sanitizer_cov_trace_const_cmp2tt # -- Begin function _Z32__sanitizer_cov_trace_const_cmp2tt
	.p2align	4, 0x90
	.type	_Z32__sanitizer_cov_trace_const_cmp2tt,@function
_Z32__sanitizer_cov_trace_const_cmp2tt: # @_Z32__sanitizer_cov_trace_const_cmp2tt
	.cfi_startproc
# %bb.0:                                # %entry
	pushq	%rbp
	.cfi_def_cfa_offset 16
	.cfi_offset %rbp, -16
	movq	%rsp, %rbp
	.cfi_def_cfa_register %rbp
	subq	$32, %rsp
	movabsq	$.L.str.4, %rax
	movabsq	$.L.str, %rcx
	movw	%di, -4(%rbp)
	movw	%si, -2(%rbp)
	movq	8(%rbp), %rdx
	movq	%rdx, -16(%rbp)
	movq	-16(%rbp), %rdx
	movw	-4(%rbp), %si
	movw	-2(%rbp), %di
	movq	%rcx, -32(%rbp)
	movq	%rdx, -24(%rbp)
	movw	%si, -8(%rbp)
	movw	%di, -6(%rbp)
	movq	-32(%rbp), %rsi
	movq	-24(%rbp), %rdx
	movzwl	-8(%rbp), %ecx
	movzwl	-6(%rbp), %r8d
	movq	%rax, %rdi
	movb	$0, %al
	callq	printf
	addq	$32, %rsp
	popq	%rbp
	retq
.Lfunc_end5:
	.size	_Z32__sanitizer_cov_trace_const_cmp2tt, .Lfunc_end5-_Z32__sanitizer_cov_trace_const_cmp2tt
	.cfi_endproc
                                        # -- End function
	.globl	_Z26__sanitizer_cov_trace_cmp1hh # -- Begin function _Z26__sanitizer_cov_trace_cmp1hh
	.p2align	4, 0x90
	.type	_Z26__sanitizer_cov_trace_cmp1hh,@function
_Z26__sanitizer_cov_trace_cmp1hh:       # @_Z26__sanitizer_cov_trace_cmp1hh
	.cfi_startproc
# %bb.0:                                # %entry
	pushq	%rbp
	.cfi_def_cfa_offset 16
	.cfi_offset %rbp, -16
	movq	%rsp, %rbp
	.cfi_def_cfa_register %rbp
	subq	$32, %rsp
	movabsq	$.L.str.4, %r9
	movabsq	$.L.str, %r8
	movb	%dil, -2(%rbp)
	movb	%sil, -1(%rbp)
	movq	8(%rbp), %rdx
	movq	%rdx, -16(%rbp)
	movq	-16(%rbp), %rdx
	movb	-2(%rbp), %al
	movb	-1(%rbp), %cl
	movq	%r8, -32(%rbp)
	movq	%rdx, -24(%rbp)
	movb	%al, -4(%rbp)
	movb	%cl, -3(%rbp)
	movq	-32(%rbp), %rsi
	movq	-24(%rbp), %rdx
	movzbl	-4(%rbp), %ecx
	movzbl	-3(%rbp), %r8d
	movq	%r9, %rdi
	movb	$0, %al
	callq	printf
	addq	$32, %rsp
	popq	%rbp
	retq
.Lfunc_end6:
	.size	_Z26__sanitizer_cov_trace_cmp1hh, .Lfunc_end6-_Z26__sanitizer_cov_trace_cmp1hh
	.cfi_endproc
                                        # -- End function
	.globl	_Z32__sanitizer_cov_trace_const_cmp1hh # -- Begin function _Z32__sanitizer_cov_trace_const_cmp1hh
	.p2align	4, 0x90
	.type	_Z32__sanitizer_cov_trace_const_cmp1hh,@function
_Z32__sanitizer_cov_trace_const_cmp1hh: # @_Z32__sanitizer_cov_trace_const_cmp1hh
	.cfi_startproc
# %bb.0:                                # %entry
	pushq	%rbp
	.cfi_def_cfa_offset 16
	.cfi_offset %rbp, -16
	movq	%rsp, %rbp
	.cfi_def_cfa_register %rbp
	subq	$32, %rsp
	movabsq	$.L.str.4, %r9
	movabsq	$.L.str, %r8
	movb	%dil, -2(%rbp)
	movb	%sil, -1(%rbp)
	movq	8(%rbp), %rdx
	movq	%rdx, -16(%rbp)
	movq	-16(%rbp), %rdx
	movb	-2(%rbp), %al
	movb	-1(%rbp), %cl
	movq	%r8, -32(%rbp)
	movq	%rdx, -24(%rbp)
	movb	%al, -4(%rbp)
	movb	%cl, -3(%rbp)
	movq	-32(%rbp), %rsi
	movq	-24(%rbp), %rdx
	movzbl	-4(%rbp), %ecx
	movzbl	-3(%rbp), %r8d
	movq	%r9, %rdi
	movb	$0, %al
	callq	printf
	addq	$32, %rsp
	popq	%rbp
	retq
.Lfunc_end7:
	.size	_Z32__sanitizer_cov_trace_const_cmp1hh, .Lfunc_end7-_Z32__sanitizer_cov_trace_const_cmp1hh
	.cfi_endproc
                                        # -- End function
	.globl	_Z28__sanitizer_cov_trace_switchmPm # -- Begin function _Z28__sanitizer_cov_trace_switchmPm
	.p2align	4, 0x90
	.type	_Z28__sanitizer_cov_trace_switchmPm,@function
_Z28__sanitizer_cov_trace_switchmPm:    # @_Z28__sanitizer_cov_trace_switchmPm
	.cfi_startproc
# %bb.0:                                # %entry
	pushq	%rbp
	.cfi_def_cfa_offset 16
	.cfi_offset %rbp, -16
	movq	%rsp, %rbp
	.cfi_def_cfa_register %rbp
	subq	$144, %rsp
	movq	%rdi, -144(%rbp)
	movq	%rsi, -40(%rbp)
	movq	-40(%rbp), %rax
	movq	(%rax), %rax
	movq	%rax, -64(%rbp)
	movq	-40(%rbp), %rax
	movq	8(%rax), %rax
	movq	%rax, -56(%rbp)
	movq	-40(%rbp), %rax
	addq	$16, %rax
	movq	%rax, -32(%rbp)
	movq	8(%rbp), %rax
	movq	%rax, -24(%rbp)
	movq	$0, -136(%rbp)
	movq	$0, -8(%rbp)
.LBB8_1:                                # %for.cond
                                        # =>This Inner Loop Header: Depth=1
	movq	-8(%rbp), %rax
	cmpq	-64(%rbp), %rax
	jae	.LBB8_10
# %bb.2:                                # %for.body
                                        #   in Loop: Header=BB8_1 Depth=1
	cmpq	$16, -56(%rbp)
	jne	.LBB8_4
# %bb.3:                                # %if.then
                                        #   in Loop: Header=BB8_1 Depth=1
	movabsq	$.L.str.4, %rdi
	movabsq	$.L.str.1, %rax
	movq	-24(%rbp), %rcx
	addq	-8(%rbp), %rcx
	movq	-32(%rbp), %rdx
	movq	-8(%rbp), %rsi
	movq	(%rdx,%rsi,8), %rdx
	movq	%rax, -80(%rbp)
	movq	%rcx, -72(%rbp)
	movw	%dx, -12(%rbp)
	movw	$0, -10(%rbp)
	movq	-80(%rbp), %rsi
	movq	-72(%rbp), %rdx
	movzwl	-12(%rbp), %ecx
	movzwl	-10(%rbp), %r8d
	movb	$0, %al
	callq	printf
	jmp	.LBB8_8
.LBB8_4:                                # %if.else
                                        #   in Loop: Header=BB8_1 Depth=1
	cmpq	$32, -56(%rbp)
	jne	.LBB8_6
# %bb.5:                                # %if.then5
                                        #   in Loop: Header=BB8_1 Depth=1
	movabsq	$.L.str.4, %rdi
	movabsq	$.L.str.2, %rax
	movq	-24(%rbp), %rcx
	addq	-8(%rbp), %rcx
	movq	-32(%rbp), %rdx
	movq	-8(%rbp), %rsi
	movq	(%rdx,%rsi,8), %rdx
	movq	%rax, -96(%rbp)
	movq	%rcx, -88(%rbp)
	movl	%edx, -48(%rbp)
	movl	$0, -44(%rbp)
	movq	-96(%rbp), %rsi
	movq	-88(%rbp), %rdx
	movl	-48(%rbp), %ecx
	movl	-44(%rbp), %r8d
	movb	$0, %al
	callq	printf
	jmp	.LBB8_7
.LBB8_6:                                # %if.else9
                                        #   in Loop: Header=BB8_1 Depth=1
	movabsq	$.L.str.4, %rdi
	movabsq	$.L.str.3, %rax
	movq	-24(%rbp), %rcx
	addq	-8(%rbp), %rcx
	movq	-32(%rbp), %rdx
	movq	-8(%rbp), %rsi
	movq	(%rdx,%rsi,8), %rdx
	movq	%rax, -128(%rbp)
	movq	%rcx, -120(%rbp)
	movq	%rdx, -112(%rbp)
	movq	$0, -104(%rbp)
	movq	-128(%rbp), %rsi
	movq	-120(%rbp), %rdx
	movq	-112(%rbp), %rcx
	movq	-104(%rbp), %r8
	movb	$0, %al
	callq	printf
.LBB8_7:                                # %if.end
                                        #   in Loop: Header=BB8_1 Depth=1
	jmp	.LBB8_8
.LBB8_8:                                # %if.end12
                                        #   in Loop: Header=BB8_1 Depth=1
	jmp	.LBB8_9
.LBB8_9:                                # %for.inc
                                        #   in Loop: Header=BB8_1 Depth=1
	movq	-8(%rbp), %rax
	addq	$1, %rax
	movq	%rax, -8(%rbp)
	jmp	.LBB8_1
.LBB8_10:                               # %for.end
	addq	$144, %rsp
	popq	%rbp
	retq
.Lfunc_end8:
	.size	_Z28__sanitizer_cov_trace_switchmPm, .Lfunc_end8-_Z28__sanitizer_cov_trace_switchmPm
	.cfi_endproc
                                        # -- End function
	.globl	a                       # -- Begin function a
	.p2align	4, 0x90
	.type	a,@function
a:                                      # @a
	.cfi_startproc
# %bb.0:                                # %entry
	pushq	%rbp
	.cfi_def_cfa_offset 16
	.cfi_offset %rbp, -16
	movq	%rsp, %rbp
	.cfi_def_cfa_register %rbp
	pushq	%r14
	pushq	%rbx
	subq	$16, %rsp
	.cfi_offset %rbx, -32
	.cfi_offset %r14, -24
	movl	$12, -24(%rbp)
	movl	-24(%rbp), %ebx
	movl	$13, %edi
	movl	%ebx, %esi
	callq	_Z32__sanitizer_cov_trace_const_cmp4jj
	cmpl	$13, %ebx
	jle	.LBB9_2
# %bb.1:                                # %if.then
	movabsq	$.L.str.5, %rdi
	movb	$0, %al
	callq	printf
.LBB9_2:                                # %if.end
	movl	$14, -24(%rbp)
	movl	$90, -28(%rbp)
	movl	-28(%rbp), %r14d
	movl	-24(%rbp), %ebx
	movl	%r14d, %edi
	movl	%ebx, %esi
	callq	_Z26__sanitizer_cov_trace_cmp4jj
	cmpl	%ebx, %r14d
	jle	.LBB9_4
# %bb.3:                                # %if.then2
	movabsq	$.L.str.1.6, %rdi
	movb	$0, %al
	callq	printf
.LBB9_4:                                # %if.end4
	movl	$2, -20(%rbp)
	movl	-20(%rbp), %ebx
	addl	$2, %ebx
	movq	%rbx, %rdi
	movl	$__sancov_gen_cov_switch_values, %esi
	callq	_Z28__sanitizer_cov_trace_switchmPm
	movl	%ebx, %eax
	subl	$1, %eax
	je	.LBB9_7
	jmp	.LBB9_5
.LBB9_5:                                # %if.end4
	movl	%ebx, %eax
	subl	$2, %eax
	je	.LBB9_8
	jmp	.LBB9_6
.LBB9_6:                                # %if.end4
	subl	$3, %ebx
	je	.LBB9_9
	jmp	.LBB9_10
.LBB9_7:                                # %sw.bb
	movabsq	$.L.str.2.7, %rdi
	movl	-20(%rbp), %esi
	movb	$0, %al
	callq	printf
.LBB9_8:                                # %sw.bb6
	movabsq	$.L.str.3.8, %rdi
	movl	-20(%rbp), %esi
	movb	$0, %al
	callq	printf
.LBB9_9:                                # %sw.bb8
	movabsq	$.L.str.4.9, %rdi
	movl	-20(%rbp), %esi
	movb	$0, %al
	callq	printf
.LBB9_10:                               # %sw.default
	movabsq	$.L.str.5.10, %rdi
	movl	-20(%rbp), %esi
	movb	$0, %al
	callq	printf
# %bb.11:                               # %sw.epilog
	addq	$16, %rsp
	popq	%rbx
	popq	%r14
	popq	%rbp
	retq
.Lfunc_end9:
	.size	a, .Lfunc_end9-a
	.cfi_endproc
                                        # -- End function
	.globl	main                    # -- Begin function main
	.p2align	4, 0x90
	.type	main,@function
main:                                   # @main
	.cfi_startproc
# %bb.0:                                # %entry
	pushq	%rbp
	.cfi_def_cfa_offset 16
	.cfi_offset %rbp, -16
	movq	%rsp, %rbp
	.cfi_def_cfa_register %rbp
	pushq	%rbx
	pushq	%rax
	.cfi_offset %rbx, -24
	movl	$0, -16(%rbp)
	movl	$0, -12(%rbp)
	movl	-12(%rbp), %ebx
	movl	$4294967295, %edi       # imm = 0xFFFFFFFF
	movl	%ebx, %esi
	callq	_Z32__sanitizer_cov_trace_const_cmp4jj
	cmpl	$-1, %ebx
	jle	.LBB10_2
# %bb.1:                                # %if.then
	callq	a
.LBB10_2:                               # %if.end
	movabsq	$.L.str.6, %rdi
	movb	$0, %al
	callq	printf
	xorl	%eax, %eax
	addq	$8, %rsp
	popq	%rbx
	popq	%rbp
	retq
.Lfunc_end10:
	.size	main, .Lfunc_end10-main
	.cfi_endproc
                                        # -- End function
	.type	.L.str,@object          # @.str
	.section	.rodata.str1.1,"aMS",@progbits,1
.L.str:
	.asciz	"CMP"
	.size	.L.str, 4

	.type	.L.str.4,@object        # @.str.4
.L.str.4:
	.asciz	"[%s] [0x%x] 0x%x 0x%x\n"
	.size	.L.str.4, 23

	.type	.L.str.1,@object        # @.str.1
.L.str.1:
	.asciz	"SWITCH-16"
	.size	.L.str.1, 10

	.type	.L.str.2,@object        # @.str.2
.L.str.2:
	.asciz	"SWITCH-32"
	.size	.L.str.2, 10

	.type	.L.str.3,@object        # @.str.3
.L.str.3:
	.asciz	"SWITCH-64"
	.size	.L.str.3, 10

	.type	.L.str.5,@object        # @.str.5
.L.str.5:
	.asciz	"A\n"
	.size	.L.str.5, 3

	.type	.L.str.1.6,@object      # @.str.1.6
.L.str.1.6:
	.asciz	"B\n"
	.size	.L.str.1.6, 3

	.type	.L.str.2.7,@object      # @.str.2.7
.L.str.2.7:
	.asciz	"Case1: Value is: %d\n"
	.size	.L.str.2.7, 21

	.type	.L.str.3.8,@object      # @.str.3.8
.L.str.3.8:
	.asciz	"Case2: Value is: %d\n"
	.size	.L.str.3.8, 21

	.type	.L.str.4.9,@object      # @.str.4.9
.L.str.4.9:
	.asciz	"Case3: Value is: %d\n"
	.size	.L.str.4.9, 21

	.type	.L.str.5.10,@object     # @.str.5.10
.L.str.5.10:
	.asciz	"Default: Value is: %d\n"
	.size	.L.str.5.10, 23

	.type	.L.str.6,@object        # @.str.6
.L.str.6:
	.asciz	"HH\n"
	.size	.L.str.6, 4

	.type	__sancov_gen_cov_switch_values,@object # @__sancov_gen_cov_switch_values
	.data
	.p2align	4
__sancov_gen_cov_switch_values:
	.quad	3                       # 0x3
	.quad	32                      # 0x20
	.quad	1                       # 0x1
	.quad	2                       # 0x2
	.quad	3                       # 0x3
	.size	__sancov_gen_cov_switch_values, 40


	.ident	"clang version 6.0.0 (tags/RELEASE_600/final)"
	.ident	"clang version 6.0.0 (tags/RELEASE_600/final)"
	.section	".note.GNU-stack","",@progbits
