; ModuleID = 'final.bc'
source_filename = "llvm-link"
target datalayout = "e-m:e-i64:64-f80:128-n8:16:32:64-S128"
target triple = "x86_64-unknown-linux-gnu"

%struct._IO_FILE = type { i32, i8*, i8*, i8*, i8*, i8*, i8*, i8*, i8*, i8*, i8*, i8*, %struct._IO_marker*, %struct._IO_FILE*, i32, i32, i64, i16, i8, [1 x i8], i8*, i64, i8*, i8*, i8*, i8*, i64, i32, [20 x i8] }
%struct._IO_marker = type { %struct._IO_marker*, %struct._IO_FILE*, i32 }
%struct.RTFTypeMap = type { i8*, i32 }
%struct.cp_map = type { i16, i8* }
%struct.oleEntry = type { %struct._IO_FILE*, [33 x i8], i64, i64, i64, i64, i64, i8*, i32, i64, i64*, i32 }
%struct.glob_t = type { i64, i8**, i64, i32, void (i8*)*, i8* (i8*)*, i8* (i8*)*, i32 (i8*, i8*)*, i32 (i8*, i8*)* }
%struct.RTFcommand = type { i32, [33 x i8], i32 }
%struct.RTFGroupData = type { i32, %struct.RTFStyle* }
%struct.RTFStyle = type { i32 }

@stderr = external global %struct._IO_FILE*, align 8
@.str = private unnamed_addr constant [11 x i8] c"[PC] 0x%x\0A\00", align 1
@.str.1 = private unnamed_addr constant [16 x i8] c"[STRCMP] %s %s\0A\00", align 1
@.str.2 = private unnamed_addr constant [4 x i8] c"CMP\00", align 1
@.str.6 = private unnamed_addr constant [23 x i8] c"[%s] [0x%x] 0x%x 0x%x\0A\00", align 1
@.str.3 = private unnamed_addr constant [10 x i8] c"SWITCH-16\00", align 1
@.str.4 = private unnamed_addr constant [10 x i8] c"SWITCH-32\00", align 1
@.str.5 = private unnamed_addr constant [10 x i8] c"SWITCH-64\00", align 1
@signature_check = local_unnamed_addr global i32 1, align 4, !dbg !0
@forced_charset = local_unnamed_addr global i32 0, align 4, !dbg !21
@wrap_margin = local_unnamed_addr global i32 72, align 4, !dbg !23
@get_unicode_char = local_unnamed_addr global i32 (%struct._IO_FILE*, i64*, i64)* null, align 8, !dbg !25
@input_buffer = common local_unnamed_addr global i8* null, align 8, !dbg !87
@output_buffer = common local_unnamed_addr global i8* null, align 8, !dbg !89
@buffer = common global [262144 x i16] zeroinitializer, align 16, !dbg !91
@para_double_newline = local_unnamed_addr global i32 1, align 4, !dbg !123
@rtf_sign = global [6 x i8] c"{\5Crtf\00", align 1, !dbg !154
@old_word_sign = global [3 x i8] c"\DB\A5\00", align 1, !dbg !229
@write_sign = global [3 x i8] c"1\BE\00", align 1, !dbg !234
@verbose = local_unnamed_addr global i32 0, align 4, !dbg !236
@rtf_types = local_unnamed_addr global [32 x %struct.RTFTypeMap] [%struct.RTFTypeMap { i8* getelementptr inbounds ([3 x i8], [3 x i8]* @.str.23, i32 0, i32 0), i32 2 }, %struct.RTFTypeMap { i8* getelementptr inbounds ([8 x i8], [8 x i8]* @.str.1.24, i32 0, i32 0), i32 0 }, %struct.RTFTypeMap { i8* getelementptr inbounds ([5 x i8], [5 x i8]* @.str.2.25, i32 0, i32 0), i32 25 }, %struct.RTFTypeMap { i8* getelementptr inbounds ([4 x i8], [4 x i8]* @.str.3.26, i32 0, i32 0), i32 5 }, %struct.RTFTypeMap { i8* getelementptr inbounds ([5 x i8], [5 x i8]* @.str.4.27, i32 0, i32 0), i32 9 }, %struct.RTFTypeMap { i8* getelementptr inbounds ([4 x i8], [4 x i8]* @.str.5.28, i32 0, i32 0), i32 8 }, %struct.RTFTypeMap { i8* getelementptr inbounds ([8 x i8], [8 x i8]* @.str.6.29, i32 0, i32 0), i32 11 }, %struct.RTFTypeMap { i8* getelementptr inbounds ([5 x i8], [5 x i8]* @.str.7.30, i32 0, i32 0), i32 12 }, %struct.RTFTypeMap { i8* getelementptr inbounds ([7 x i8], [7 x i8]* @.str.8.31, i32 0, i32 0), i32 14 }, %struct.RTFTypeMap { i8* getelementptr inbounds ([2 x i8], [2 x i8]* @.str.9.32, i32 0, i32 0), i32 13 }, %struct.RTFTypeMap { i8* getelementptr inbounds ([8 x i8], [8 x i8]* @.str.10.33, i32 0, i32 0), i32 15 }, %struct.RTFTypeMap { i8* getelementptr inbounds ([5 x i8], [5 x i8]* @.str.11.34, i32 0, i32 0), i32 16 }, %struct.RTFTypeMap { i8* getelementptr inbounds ([11 x i8], [11 x i8]* @.str.12.35, i32 0, i32 0), i32 17 }, %struct.RTFTypeMap { i8* getelementptr inbounds ([9 x i8], [9 x i8]* @.str.13.36, i32 0, i32 0), i32 18 }, %struct.RTFTypeMap { i8* getelementptr inbounds ([10 x i8], [10 x i8]* @.str.14.37, i32 0, i32 0), i32 20 }, %struct.RTFTypeMap { i8* getelementptr inbounds ([18 x i8], [18 x i8]* @.str.15.38, i32 0, i32 0), i32 19 }, %struct.RTFTypeMap { i8* getelementptr inbounds ([8 x i8], [8 x i8]* @.str.16.39, i32 0, i32 0), i32 21 }, %struct.RTFTypeMap { i8* getelementptr inbounds ([10 x i8], [10 x i8]* @.str.17.40, i32 0, i32 0), i32 22 }, %struct.RTFTypeMap { i8* getelementptr inbounds ([10 x i8], [10 x i8]* @.str.18.41, i32 0, i32 0), i32 23 }, %struct.RTFTypeMap { i8* getelementptr inbounds ([5 x i8], [5 x i8]* @.str.19.42, i32 0, i32 0), i32 24 }, %struct.RTFTypeMap { i8* getelementptr inbounds ([4 x i8], [4 x i8]* @.str.20.43, i32 0, i32 0), i32 26 }, %struct.RTFTypeMap { i8* getelementptr inbounds ([7 x i8], [7 x i8]* @.str.21.44, i32 0, i32 0), i32 28 }, %struct.RTFTypeMap { i8* getelementptr inbounds ([7 x i8], [7 x i8]* @.str.22.45, i32 0, i32 0), i32 29 }, %struct.RTFTypeMap { i8* getelementptr inbounds ([8 x i8], [8 x i8]* @.str.23.46, i32 0, i32 0), i32 28 }, %struct.RTFTypeMap { i8* getelementptr inbounds ([8 x i8], [8 x i8]* @.str.24, i32 0, i32 0), i32 29 }, %struct.RTFTypeMap { i8* getelementptr inbounds ([7 x i8], [7 x i8]* @.str.25, i32 0, i32 0), i32 32 }, %struct.RTFTypeMap { i8* getelementptr inbounds ([7 x i8], [7 x i8]* @.str.26, i32 0, i32 0), i32 33 }, %struct.RTFTypeMap { i8* getelementptr inbounds ([7 x i8], [7 x i8]* @.str.27, i32 0, i32 0), i32 34 }, %struct.RTFTypeMap { i8* getelementptr inbounds ([10 x i8], [10 x i8]* @.str.28, i32 0, i32 0), i32 35 }, %struct.RTFTypeMap { i8* getelementptr inbounds ([10 x i8], [10 x i8]* @.str.29, i32 0, i32 0), i32 36 }, %struct.RTFTypeMap { i8* getelementptr inbounds ([5 x i8], [5 x i8]* @.str.30, i32 0, i32 0), i32 37 }, %struct.RTFTypeMap { i8* getelementptr inbounds ([2 x i8], [2 x i8]* @.str.31, i32 0, i32 0), i32 3 }], align 16, !dbg !241
@.str.23 = private unnamed_addr constant [3 x i8] c"uc\00", align 1
@.str.1.24 = private unnamed_addr constant [8 x i8] c"ansicpg\00", align 1
@.str.2.25 = private unnamed_addr constant [5 x i8] c"pard\00", align 1
@.str.3.26 = private unnamed_addr constant [4 x i8] c"par\00", align 1
@.str.4.27 = private unnamed_addr constant [5 x i8] c"cell\00", align 1
@.str.5.28 = private unnamed_addr constant [4 x i8] c"row\00", align 1
@.str.6.29 = private unnamed_addr constant [8 x i8] c"overlay\00", align 1
@.str.7.30 = private unnamed_addr constant [5 x i8] c"pict\00", align 1
@.str.8.31 = private unnamed_addr constant [7 x i8] c"author\00", align 1
@.str.9.32 = private unnamed_addr constant [2 x i8] c"f\00", align 1
@.str.10.33 = private unnamed_addr constant [8 x i8] c"fonttbl\00", align 1
@.str.11.34 = private unnamed_addr constant [5 x i8] c"info\00", align 1
@.str.12.35 = private unnamed_addr constant [11 x i8] c"stylesheet\00", align 1
@.str.13.36 = private unnamed_addr constant [9 x i8] c"colortbl\00", align 1
@.str.14.37 = private unnamed_addr constant [10 x i8] c"listtable\00", align 1
@.str.15.38 = private unnamed_addr constant [18 x i8] c"listoverridetable\00", align 1
@.str.16.39 = private unnamed_addr constant [8 x i8] c"rsidtbl\00", align 1
@.str.17.40 = private unnamed_addr constant [10 x i8] c"generator\00", align 1
@.str.18.41 = private unnamed_addr constant [10 x i8] c"datafield\00", align 1
@.str.19.42 = private unnamed_addr constant [5 x i8] c"lang\00", align 1
@.str.20.43 = private unnamed_addr constant [4 x i8] c"tab\00", align 1
@.str.21.44 = private unnamed_addr constant [7 x i8] c"emdash\00", align 1
@.str.22.45 = private unnamed_addr constant [7 x i8] c"endash\00", align 1
@.str.23.46 = private unnamed_addr constant [8 x i8] c"emspace\00", align 1
@.str.24 = private unnamed_addr constant [8 x i8] c"enspace\00", align 1
@.str.25 = private unnamed_addr constant [7 x i8] c"bullet\00", align 1
@.str.26 = private unnamed_addr constant [7 x i8] c"lquote\00", align 1
@.str.27 = private unnamed_addr constant [7 x i8] c"rquote\00", align 1
@.str.28 = private unnamed_addr constant [10 x i8] c"ldblquote\00", align 1
@.str.29 = private unnamed_addr constant [10 x i8] c"rdblquote\00", align 1
@.str.30 = private unnamed_addr constant [5 x i8] c"zwnj\00", align 1
@.str.31 = private unnamed_addr constant [2 x i8] c"u\00", align 1
@rtf_level = local_unnamed_addr global i32 0, align 4, !dbg !300
@current_charset = common local_unnamed_addr global i16* null, align 8, !dbg !302
@charset_path = local_unnamed_addr global i8* getelementptr inbounds ([24 x i8], [24 x i8]* @.str.49, i64 0, i64 0), align 8, !dbg !315
@.str.49 = private unnamed_addr constant [24 x i8] c"/usr/local/share/catdoc\00", align 1
@source_csname = global i8* getelementptr inbounds ([7 x i8], [7 x i8]* @.str.1.52, i64 0, i64 0), align 8, !dbg !322
@.str.1.52 = private unnamed_addr constant [7 x i8] c"cp1251\00", align 1
@dest_csname = global i8* getelementptr inbounds ([7 x i8], [7 x i8]* @.str.2.55, i64 0, i64 0), align 8, !dbg !324
@.str.2.55 = private unnamed_addr constant [7 x i8] c"koi8-r\00", align 1
@unknown_as_hex = local_unnamed_addr global i32 0, align 4, !dbg !326
@bad_char = global [2 x i8] c"?\00", align 1, !dbg !328
@source_charset = common local_unnamed_addr global i16* null, align 8, !dbg !381
@target_charset = common local_unnamed_addr global i16** null, align 8, !dbg !384
@cp_to_charset = local_unnamed_addr global [29 x %struct.cp_map] [%struct.cp_map { i16 10000, i8* getelementptr inbounds ([10 x i8], [10 x i8]* @.str.12.62, i32 0, i32 0) }, %struct.cp_map { i16 10001, i8* getelementptr inbounds ([13 x i8], [13 x i8]* @.str.13.63, i32 0, i32 0) }, %struct.cp_map { i16 10002, i8* getelementptr inbounds ([13 x i8], [13 x i8]* @.str.14.64, i32 0, i32 0) }, %struct.cp_map { i16 10003, i8* getelementptr inbounds ([11 x i8], [11 x i8]* @.str.15.65, i32 0, i32 0) }, %struct.cp_map { i16 10004, i8* getelementptr inbounds ([11 x i8], [11 x i8]* @.str.16.66, i32 0, i32 0) }, %struct.cp_map { i16 10005, i8* getelementptr inbounds ([11 x i8], [11 x i8]* @.str.17.67, i32 0, i32 0) }, %struct.cp_map { i16 10006, i8* getelementptr inbounds ([11 x i8], [11 x i8]* @.str.18.68, i32 0, i32 0) }, %struct.cp_map { i16 10007, i8* getelementptr inbounds ([13 x i8], [13 x i8]* @.str.19.69, i32 0, i32 0) }, %struct.cp_map { i16 10008, i8* getelementptr inbounds ([13 x i8], [13 x i8]* @.str.20.70, i32 0, i32 0) }, %struct.cp_map { i16 10010, i8* getelementptr inbounds ([12 x i8], [12 x i8]* @.str.21.71, i32 0, i32 0) }, %struct.cp_map { i16 10017, i8* getelementptr inbounds ([12 x i8], [12 x i8]* @.str.22.72, i32 0, i32 0) }, %struct.cp_map { i16 10021, i8* getelementptr inbounds ([9 x i8], [9 x i8]* @.str.23.73, i32 0, i32 0) }, %struct.cp_map { i16 10029, i8* getelementptr inbounds ([13 x i8], [13 x i8]* @.str.24.74, i32 0, i32 0) }, %struct.cp_map { i16 10079, i8* getelementptr inbounds ([14 x i8], [14 x i8]* @.str.25.75, i32 0, i32 0) }, %struct.cp_map { i16 10081, i8* getelementptr inbounds ([12 x i8], [12 x i8]* @.str.26.76, i32 0, i32 0) }, %struct.cp_map { i16 10082, i8* getelementptr inbounds ([12 x i8], [12 x i8]* @.str.27.77, i32 0, i32 0) }, %struct.cp_map { i16 20866, i8* getelementptr inbounds ([7 x i8], [7 x i8]* @.str.2.55, i32 0, i32 0) }, %struct.cp_map { i16 28591, i8* getelementptr inbounds ([7 x i8], [7 x i8]* @.str.28.78, i32 0, i32 0) }, %struct.cp_map { i16 28592, i8* getelementptr inbounds ([7 x i8], [7 x i8]* @.str.29.79, i32 0, i32 0) }, %struct.cp_map { i16 28593, i8* getelementptr inbounds ([7 x i8], [7 x i8]* @.str.30.80, i32 0, i32 0) }, %struct.cp_map { i16 28594, i8* getelementptr inbounds ([7 x i8], [7 x i8]* @.str.31.81, i32 0, i32 0) }, %struct.cp_map { i16 28595, i8* getelementptr inbounds ([7 x i8], [7 x i8]* @.str.32.82, i32 0, i32 0) }, %struct.cp_map { i16 28596, i8* getelementptr inbounds ([7 x i8], [7 x i8]* @.str.33, i32 0, i32 0) }, %struct.cp_map { i16 28597, i8* getelementptr inbounds ([7 x i8], [7 x i8]* @.str.34, i32 0, i32 0) }, %struct.cp_map { i16 28598, i8* getelementptr inbounds ([7 x i8], [7 x i8]* @.str.35, i32 0, i32 0) }, %struct.cp_map { i16 28599, i8* getelementptr inbounds ([7 x i8], [7 x i8]* @.str.36, i32 0, i32 0) }, %struct.cp_map { i16 28605, i8* getelementptr inbounds ([8 x i8], [8 x i8]* @.str.37, i32 0, i32 0) }, %struct.cp_map { i16 -535, i8* getelementptr inbounds ([6 x i8], [6 x i8]* @.str.38, i32 0, i32 0) }, %struct.cp_map zeroinitializer], align 16, !dbg !358
@.str.12.62 = private unnamed_addr constant [10 x i8] c"mac-roman\00", align 1
@.str.13.63 = private unnamed_addr constant [13 x i8] c"mac-japanese\00", align 1
@.str.14.64 = private unnamed_addr constant [13 x i8] c"mac-tchinese\00", align 1
@.str.15.65 = private unnamed_addr constant [11 x i8] c"mac-korean\00", align 1
@.str.16.66 = private unnamed_addr constant [11 x i8] c"mac-arabic\00", align 1
@.str.17.67 = private unnamed_addr constant [11 x i8] c"mac-hebrew\00", align 1
@.str.18.68 = private unnamed_addr constant [11 x i8] c"mac-greek1\00", align 1
@.str.19.69 = private unnamed_addr constant [13 x i8] c"mac-cyrillic\00", align 1
@.str.20.70 = private unnamed_addr constant [13 x i8] c"mac-schinese\00", align 1
@.str.21.71 = private unnamed_addr constant [12 x i8] c"mac-romania\00", align 1
@.str.22.72 = private unnamed_addr constant [12 x i8] c"mac-ukraine\00", align 1
@.str.23.73 = private unnamed_addr constant [9 x i8] c"mac-thai\00", align 1
@.str.24.74 = private unnamed_addr constant [13 x i8] c"mac-centeuro\00", align 1
@.str.25.75 = private unnamed_addr constant [14 x i8] c"mac-iselandic\00", align 1
@.str.26.76 = private unnamed_addr constant [12 x i8] c"mac-turkish\00", align 1
@.str.27.77 = private unnamed_addr constant [12 x i8] c"mac-croatia\00", align 1
@.str.28.78 = private unnamed_addr constant [7 x i8] c"8859-1\00", align 1
@.str.29.79 = private unnamed_addr constant [7 x i8] c"8859-2\00", align 1
@.str.30.80 = private unnamed_addr constant [7 x i8] c"8859-3\00", align 1
@.str.31.81 = private unnamed_addr constant [7 x i8] c"8859-4\00", align 1
@.str.32.82 = private unnamed_addr constant [7 x i8] c"8859-5\00", align 1
@.str.33 = private unnamed_addr constant [7 x i8] c"8859-6\00", align 1
@.str.34 = private unnamed_addr constant [7 x i8] c"8859-7\00", align 1
@.str.35 = private unnamed_addr constant [7 x i8] c"8859-8\00", align 1
@.str.36 = private unnamed_addr constant [7 x i8] c"8859-9\00", align 1
@.str.37 = private unnamed_addr constant [8 x i8] c"8859-15\00", align 1
@.str.38 = private unnamed_addr constant [6 x i8] c"utf-8\00", align 1
@map_path = local_unnamed_addr global i8* getelementptr inbounds ([24 x i8], [24 x i8]* @.str.110, i64 0, i64 0), align 8, !dbg !392
@.str.110 = private unnamed_addr constant [24 x i8] c"/usr/local/share/catdoc\00", align 1
@longest_sequence = local_unnamed_addr global i32 6, align 4, !dbg !398
@spec_chars = common local_unnamed_addr global i8*** null, align 8, !dbg !400
@replacements = common local_unnamed_addr global i8*** null, align 8, !dbg !404
@format_name = local_unnamed_addr global i8* getelementptr inbounds ([6 x i8], [6 x i8]* @.str.142, i64 0, i64 0), align 8, !dbg !406
@.str.142 = private unnamed_addr constant [6 x i8] c"ascii\00", align 1
@BBD = local_unnamed_addr global i8* null, align 8, !dbg !755
@SBD = local_unnamed_addr global i8* null, align 8, !dbg !817
@rootEntry = local_unnamed_addr global %struct.oleEntry* null, align 8, !dbg !819
@properties = local_unnamed_addr global i8* null, align 8, !dbg !821
@fileLength = local_unnamed_addr global i64 0, align 8, !dbg !823
@ole_sign = global [9 x i8] c"\D0\CF\11\E0\A1\B1\1A\E1\00", align 1, !dbg !825
@zip_sign = global [5 x i8] c"PK\03\04\00", align 1, !dbg !830
@sectorSize = common local_unnamed_addr global i64 0, align 8, !dbg !835
@shortSectorSize = common local_unnamed_addr global i64 0, align 8, !dbg !837
@bbdNumBlocks = common local_unnamed_addr global i64 0, align 8, !dbg !839
@sbdLen = common local_unnamed_addr global i64 0, align 8, !dbg !845
@sbdStart = common local_unnamed_addr global i64 0, align 8, !dbg !843
@sbdNumber = common local_unnamed_addr global i64 0, align 8, !dbg !841
@propLen = common local_unnamed_addr global i64 0, align 8, !dbg !849
@propStart = common local_unnamed_addr global i64 0, align 8, !dbg !853
@propNumber = common local_unnamed_addr global i64 0, align 8, !dbg !851
@propCurNumber = common local_unnamed_addr global i64 0, align 8, !dbg !847
@catdoc_read = common local_unnamed_addr global i64 (i8*, i64, i64, %struct._IO_FILE*)* null, align 8, !dbg !855
@catdoc_eof = common local_unnamed_addr global i32 (%struct._IO_FILE*)* null, align 8, !dbg !860
@catdoc_seek = common local_unnamed_addr global i32 (%struct._IO_FILE*, i64, i32)* null, align 8, !dbg !865
@catdoc_tell = common local_unnamed_addr global i64 (%struct._IO_FILE*)* null, align 8, !dbg !870
@.str.7 = private unnamed_addr constant [24 x i8] c"/usr/local/etc/catdocrc\00", align 1
@.str.1.8 = private unnamed_addr constant [10 x i8] c".catdocrc\00", align 1
@.str.2.9 = private unnamed_addr constant [5 x i8] c"HOME\00", align 1
@.str.3.10 = private unnamed_addr constant [19 x i8] c"Vls:d:f:taubxv8wm:\00", align 1
@optarg = external local_unnamed_addr global i8*, align 8
@.str.5.11 = private unnamed_addr constant [6 x i8] c"ascii\00", align 1
@.str.6.12 = private unnamed_addr constant [32 x i8] c"Invalid wrap margin value `%s'\0A\00", align 1
@.str.7.13 = private unnamed_addr constant [19 x i8] c"Catdoc Version %s\0A\00", align 1
@.str.8 = private unnamed_addr constant [5 x i8] c"0.95\00", align 1
@.str.9 = private unnamed_addr constant [28 x i8] c"Input buffer not allocated\0A\00", align 1
@.str.10 = private unnamed_addr constant [6 x i8] c"utf-8\00", align 1
@.str.11 = private unnamed_addr constant [11 x i8] c".specchars\00", align 1
@.str.12 = private unnamed_addr constant [35 x i8] c"Cannot read substitution map %s%s\0A\00", align 1
@.str.13 = private unnamed_addr constant [11 x i8] c".replchars\00", align 1
@.str.14 = private unnamed_addr constant [34 x i8] c"Cannot read replacement map %s%s\0A\00", align 1
@.str.15 = private unnamed_addr constant [42 x i8] c"wrap margin is too large. cannot proceed\0A\00", align 1
@stdout = external local_unnamed_addr global %struct._IO_FILE*, align 8
@.str.16 = private unnamed_addr constant [7 x i8] c"stdout\00", align 1
@.str.17 = private unnamed_addr constant [29 x i8] c"output buffer not allocated\0A\00", align 1
@optind = external local_unnamed_addr global i32, align 4
@stdin = external local_unnamed_addr global %struct._IO_FILE*, align 8
@.str.19 = private unnamed_addr constant [28 x i8] c"Cannot process stdin twice\0A\00", align 1
@.str.20 = private unnamed_addr constant [3 x i8] c"rb\00", align 1
@.str.21 = private unnamed_addr constant [7 x i8] c"catdoc\00", align 1
@str.9 = private unnamed_addr constant [44 x i8] c"[Windows Write file. Some garbage expected]\00"
@.str.1.10 = private unnamed_addr constant [88 x i8] c"This file looks like ZIP archive or Office 2007 or later file.\0ANot supported by catdoc\0A\00", align 1
@.str.2.11 = private unnamed_addr constant [13 x i8] c"WordDocument\00", align 1
@.str.3.12 = private unnamed_addr constant [38 x i8] c"Broken OLE file. Try using -b switch\0A\00", align 1
@.str.9.99 = private unnamed_addr constant [6 x i8] c"read:\00", align 1
@.str.10.104 = private unnamed_addr constant [5 x i8] c"read\00", align 1
@convert_char.plain_char = internal global [2 x i8] c"a\00", align 1, !dbg !333
@convert_char.hexbuf = internal global [8 x i8] zeroinitializer, align 1, !dbg !342
@.str.11.107 = private unnamed_addr constant [7 x i8] c"\5Cx%04X\00", align 1
@to_utf8.utfbuffer = internal global [4 x i8] zeroinitializer, align 1, !dbg !347
@.str.12.198 = private unnamed_addr constant [22 x i8] c"Can't allocate memory\00", align 1
@.str.13.199 = private unnamed_addr constant [11 x i8] c"Root Entry\00", align 1
@.str.10.194 = private unnamed_addr constant [25 x i8] c"Properties realloc error\00", align 1
@.str.184 = private unnamed_addr constant [22 x i8] c"Can't create tmp file\00", align 1
@.str.1.185 = private unnamed_addr constant [24 x i8] c"Can't write to tmp file\00", align 1
@.str.2.186 = private unnamed_addr constant [19 x i8] c"Can't seek in file\00", align 1
@.str.3.187 = private unnamed_addr constant [63 x i8] c"Looks like ZIP archive or Office 2007 or later. Not supported\0A\00", align 1
@.str.4.188 = private unnamed_addr constant [19 x i8] c"MSAT realloc error\00", align 1
@.str.5.189 = private unnamed_addr constant [18 x i8] c"Error read MSAT!\0A\00", align 1
@.str.6.190 = private unnamed_addr constant [16 x i8] c"Bad BBD entry!\0A\00", align 1
@.str.7.191 = private unnamed_addr constant [17 x i8] c"Can't read BBD!\0A\00", align 1
@.str.8.192 = private unnamed_addr constant [18 x i8] c"SBD realloc error\00", align 1
@.str.9.193 = private unnamed_addr constant [27 x i8] c"reading properties catalog\00", align 1
@.str.11.197 = private unnamed_addr constant [60 x i8] c"Broken OLE structure. Cannot find root entry in this file!\0A\00", align 1
@.str.4.14 = private unnamed_addr constant [28 x i8] c"File Info block version %d\0A\00", align 1
@.str.5.13 = private unnamed_addr constant [36 x i8] c"Found at file offset %ld (hex %lx)\0A\00", align 1
@.str.6.14 = private unnamed_addr constant [31 x i8] c"Written by product version %d\0A\00", align 1
@.str.7.15 = private unnamed_addr constant [13 x i8] c"Language %d\0A\00", align 1
@str.31 = private unnamed_addr constant [28 x i8] c"This is template (DOT) file\00"
@str.29 = private unnamed_addr constant [28 x i8] c"This is document (DOC) file\00"
@str.30 = private unnamed_addr constant [22 x i8] c"This is glossary file\00"
@.str.11.16 = private unnamed_addr constant [59 x i8] c"[This was fast-saved %2d times. Some information is lost]\0A\00", align 1
@str.28 = private unnamed_addr constant [30 x i8] c"File is meant to be read-only\00"
@str.27 = private unnamed_addr constant [23 x i8] c"File is write-reserved\00"
@str.26 = private unnamed_addr constant [33 x i8] c"File uses extended character set\00"
@str.25 = private unnamed_addr constant [26 x i8] c"File created on Macintosh\00"
@str.24 = private unnamed_addr constant [24 x i8] c"File created on Windows\00"
@.str.17.17 = private unnamed_addr constant [45 x i8] c"[File is encrypted. Encryption key = %08lx]\0A\00", align 1
@.str.18 = private unnamed_addr constant [24 x i8] c"Using character set %d\0A\00", align 1
@str.23 = private unnamed_addr constant [28 x i8] c"Using default character set\00"
@.str.20.18 = private unnamed_addr constant [27 x i8] c"Textstart = %ld (hex %lx)\0A\00", align 1
@.str.21.19 = private unnamed_addr constant [27 x i8] c"Textlen =   %ld (hex %lx)\0A\00", align 1
@.str.22 = private unnamed_addr constant [67 x i8] c"File ended before textstart. Probably it is broken. Try -b switch\0A\00", align 1
@.str.32 = private unnamed_addr constant [24 x i8] c"Can't allocate memory: \00", align 1
@charset_from_codepage.buffer = internal global [7 x i8] zeroinitializer, align 1, !dbg !369
@.str.40 = private unnamed_addr constant [5 x i8] c"cp%d\00", align 1
@.str.39 = private unnamed_addr constant [1 x i8] zeroinitializer, align 1
@out_char.bufpos = internal unnamed_addr global i32 0, align 4, !dbg !129
@outputbuffer = internal global [512 x i8] zeroinitializer, align 16, !dbg !149
@.str.1.119 = private unnamed_addr constant [21 x i8] c"Insufficient memory\0A\00", align 1
@.str.2.120 = private unnamed_addr constant [3 x i8] c"rb\00", align 1
@.str.3.121 = private unnamed_addr constant [22 x i8] c"Error parsing %s(%d)\0A\00", align 1
@.str.4.122 = private unnamed_addr constant [45 x i8] c"Error parsing %s(%d): unterminated sequence\0A\00", align 1
@.str.3.134 = private unnamed_addr constant [15 x i8] c"Out of memory!\00", align 1
@.str.3.87 = private unnamed_addr constant [34 x i8] c"Insufficient memory for  charset\0A\00", align 1
@.str.4.90 = private unnamed_addr constant [5 x i8] c".txt\00", align 1
@.str.5.91 = private unnamed_addr constant [41 x i8] c"Cannot load charset %s - file not found\0A\00", align 1
@.str.6.92 = private unnamed_addr constant [3 x i8] c"rb\00", align 1
@.str.7.93 = private unnamed_addr constant [7 x i8] c"%i %li\00", align 1
@.str.8.94 = private unnamed_addr constant [25 x i8] c"Invalid charset file %s\0A\00", align 1
@str = private unnamed_addr constant [86 x i8] c"Usage:\0A catdoc [-vu8btawxlV] [-m number] [-s charset] [-d charset] [ -f format] files\00"
@.str.4.137 = private unnamed_addr constant [6 x i8] c"*.txt\00", align 1
@.str.5.138 = private unnamed_addr constant [7 x i8] c"catdoc\00", align 1
@.str.6.139 = private unnamed_addr constant [20 x i8] c"Available charsets:\00", align 1
@.str.1.130 = private unnamed_addr constant [6 x i8] c"utf-8\00", align 1
@read_buf = internal global [256 x i8] zeroinitializer, align 16, !dbg !113
@buf_is_unicode = internal unnamed_addr global i1 false, align 4, !dbg !875
@.str.2.131 = private unnamed_addr constant [5 x i8] c".txt\00", align 1
@runtime_locale_check = internal unnamed_addr global i1 false, align 4, !dbg !876
@.str.12.158 = private unnamed_addr constant [1 x i8] zeroinitializer, align 1
@.str.13.159 = private unnamed_addr constant [4 x i8] c"ISO\00", align 1
@.str.14.160 = private unnamed_addr constant [4 x i8] c"iso\00", align 1
@.str.15.161 = private unnamed_addr constant [4 x i8] c"646\00", align 1
@.str.16.162 = private unnamed_addr constant [9 x i8] c"us-ascii\00", align 1
@locale_charset = internal unnamed_addr global i8* null, align 8, !dbg !753
@.str.17.163 = private unnamed_addr constant [15 x i8] c"ANSI_X3.4-1968\00", align 1
@.str.18.164 = private unnamed_addr constant [5 x i8] c"ANSI\00", align 1
@.str.19.165 = private unnamed_addr constant [5 x i8] c"ansi\00", align 1
@.str.20.166 = private unnamed_addr constant [3 x i8] c"cp\00", align 1
@.str.21.167 = private unnamed_addr constant [4 x i8] c"IBM\00", align 1
@.str.125 = private unnamed_addr constant [5 x i8] c"HOME\00", align 1
@.str.1.145 = private unnamed_addr constant [3 x i8] c"rb\00", align 1
@.str.2.146 = private unnamed_addr constant [44 x i8] c"Error %s(%d): name = value syntax expected\0A\00", align 1
@.str.3.147 = private unnamed_addr constant [15 x i8] c"source_charset\00", align 1
@.str.4.148 = private unnamed_addr constant [15 x i8] c"target_charset\00", align 1
@.str.5.149 = private unnamed_addr constant [7 x i8] c"format\00", align 1
@.str.6.150 = private unnamed_addr constant [13 x i8] c"charset_path\00", align 1
@.str.7.151 = private unnamed_addr constant [9 x i8] c"map_path\00", align 1
@.str.8.152 = private unnamed_addr constant [13 x i8] c"unknown_char\00", align 1
@.str.9.153 = private unnamed_addr constant [11 x i8] c"use_locale\00", align 1
@.str.10.154 = private unnamed_addr constant [49 x i8] c"Error %s(%d): use_locale requires 'yes' or 'no'\0A\00", align 1
@.str.11.155 = private unnamed_addr constant [52 x i8] c"Invalid configuration directive in %s(%d):,%s = %s\0A\00", align 1
@__sancov_gen_cov_switch_values = internal global [17 x i64] [i64 15, i64 32, i64 56, i64 86, i64 97, i64 98, i64 100, i64 102, i64 108, i64 109, i64 115, i64 116, i64 117, i64 118, i64 119, i64 120, i64 4294967295]
@__sancov_gen_cov_switch_values.1 = internal global [4 x i64] [i64 2, i64 32, i64 110, i64 121]
@__sancov_gen_cov_switch_values.2 = internal global [4 x i64] [i64 2, i64 8, i64 13, i64 32]
@__sancov_gen_cov_switch_values.3 = internal global [4 x i64] [i64 2, i64 32, i64 0, i64 3]
@__sancov_gen_cov_switch_values.4 = internal global [7 x i64] [i64 5, i64 32, i64 34, i64 39, i64 40, i64 91, i64 123]
@__sancov_gen_cov_switch_values.5 = internal global [9 x i64] [i64 7, i64 32, i64 34, i64 39, i64 48, i64 98, i64 110, i64 114, i64 116]
@__sancov_gen_cov_switch_values.6 = internal global [14 x i64] [i64 12, i64 16, i64 1, i64 2, i64 7, i64 9, i64 11, i64 12, i64 13, i64 19, i64 20, i64 21, i64 30, i64 31]
@__sancov_gen_cov_switch_values.7 = internal global [5 x i64] [i64 3, i64 32, i64 92, i64 123, i64 125]
@__sancov_gen_cov_switch_values.8 = internal global [29 x i64] [i64 27, i64 32, i64 0, i64 2, i64 3, i64 4, i64 5, i64 12, i64 15, i64 16, i64 17, i64 18, i64 19, i64 20, i64 21, i64 22, i64 23, i64 26, i64 27, i64 28, i64 29, i64 30, i64 31, i64 32, i64 33, i64 34, i64 35, i64 36, i64 37]
@__sancov_gen_cov_switch_values.9 = internal global [5 x i64] [i64 3, i64 32, i64 13, i64 45, i64 126]
@__sancov_gen_cov_switch_values.10 = internal global [4 x i64] [i64 2, i64 32, i64 10, i64 13]
@__sancov_gen_cov_switch_values.11 = internal global [6 x i64] [i64 4, i64 8, i64 1, i64 2, i64 3, i64 5]
@__sancov_gen_cov_switch_values.12 = internal global [4 x i64] [i64 2, i64 8, i64 254, i64 255]
@__sancov_gen_cov_switch_values.13 = internal global [5 x i64] [i64 3, i64 32, i64 0, i64 1, i64 2]
@__sancov_gen_cov_switch_values.14 = internal global [4 x i64] [i64 2, i64 32, i64 9, i64 32]
@__sancov_gen_cov_switch_values.15 = internal global [4 x i64] [i64 2, i64 8, i64 0, i64 10]
@__sancov_gen_cov_switch_values.16 = internal global [4 x i64] [i64 2, i64 8, i64 9, i64 32]

; Function Attrs: noinline optnone uwtable
define void @_Z24__sanitizer_cov_trace_pcv() #0 {
entry:
  %PC = alloca i64, align 8
  %0 = call i8* @llvm.returnaddress(i32 0)
  %1 = ptrtoint i8* %0 to i64
  store i64 %1, i64* %PC, align 8
  %2 = load %struct._IO_FILE*, %struct._IO_FILE** @stderr, align 8
  %3 = load i64, i64* %PC, align 8
  %call = call i32 (%struct._IO_FILE*, i8*, ...) @fprintf(%struct._IO_FILE* %2, i8* getelementptr inbounds ([11 x i8], [11 x i8]* @.str, i32 0, i32 0), i64 %3)
  ret void
}

; Function Attrs: nounwind readnone
declare i8* @llvm.returnaddress(i32) #1

declare i32 @fprintf(%struct._IO_FILE*, i8*, ...) #2

; Function Attrs: noinline optnone uwtable
define void @_Z28__sanitizer_cov_trace_strcmpPmS_(i64* %Arg1, i64* %Arg2) #3 {
entry:
  %Arg1.addr = alloca i64*, align 8
  %Arg2.addr = alloca i64*, align 8
  store i64* %Arg1, i64** %Arg1.addr, align 8
  store i64* %Arg2, i64** %Arg2.addr, align 8
  %0 = load %struct._IO_FILE*, %struct._IO_FILE** @stderr, align 8
  %1 = load i64*, i64** %Arg1.addr, align 8
  %2 = load i64*, i64** %Arg2.addr, align 8
  %call = call i32 (%struct._IO_FILE*, i8*, ...) @fprintf(%struct._IO_FILE* %0, i8* getelementptr inbounds ([16 x i8], [16 x i8]* @.str.1, i32 0, i32 0), i64* %1, i64* %2)
  ret void
}

; Function Attrs: noinline optnone uwtable
define void @_Z26__sanitizer_cov_trace_cmp8mm(i64 %Arg1, i64 %Arg2) #3 {
entry:
  %type.addr.i = alloca i8*, align 8
  %PC.addr.i = alloca i64, align 8
  %Arg1.addr.i = alloca i64, align 8
  %Arg2.addr.i = alloca i64, align 8
  %Arg1.addr = alloca i64, align 8
  %Arg2.addr = alloca i64, align 8
  %PC = alloca i64, align 8
  store i64 %Arg1, i64* %Arg1.addr, align 8
  store i64 %Arg2, i64* %Arg2.addr, align 8
  %0 = call i8* @llvm.returnaddress(i32 0)
  %1 = ptrtoint i8* %0 to i64
  store i64 %1, i64* %PC, align 8
  %2 = load i64, i64* %PC, align 8
  %3 = load i64, i64* %Arg1.addr, align 8
  %4 = load i64, i64* %Arg2.addr, align 8
  store i8* getelementptr inbounds ([4 x i8], [4 x i8]* @.str.2, i32 0, i32 0), i8** %type.addr.i, align 8
  store i64 %2, i64* %PC.addr.i, align 8
  store i64 %3, i64* %Arg1.addr.i, align 8
  store i64 %4, i64* %Arg2.addr.i, align 8
  %5 = load %struct._IO_FILE*, %struct._IO_FILE** @stderr, align 8
  %6 = load i8*, i8** %type.addr.i, align 8
  %7 = load i64, i64* %PC.addr.i, align 8
  %8 = load i64, i64* %Arg1.addr.i, align 8
  %9 = load i64, i64* %Arg2.addr.i, align 8
  %call.i = call i32 (%struct._IO_FILE*, i8*, ...) @fprintf(%struct._IO_FILE* %5, i8* getelementptr inbounds ([23 x i8], [23 x i8]* @.str.6, i32 0, i32 0), i8* %6, i64 %7, i64 %8, i64 %9)
  ret void
}

; Function Attrs: noinline optnone uwtable
define void @_Z32__sanitizer_cov_trace_const_cmp8mm(i64 %Arg1, i64 %Arg2) #3 {
entry:
  %type.addr.i = alloca i8*, align 8
  %PC.addr.i = alloca i64, align 8
  %Arg1.addr.i = alloca i64, align 8
  %Arg2.addr.i = alloca i64, align 8
  %Arg1.addr = alloca i64, align 8
  %Arg2.addr = alloca i64, align 8
  %PC = alloca i64, align 8
  store i64 %Arg1, i64* %Arg1.addr, align 8
  store i64 %Arg2, i64* %Arg2.addr, align 8
  %0 = call i8* @llvm.returnaddress(i32 0)
  %1 = ptrtoint i8* %0 to i64
  store i64 %1, i64* %PC, align 8
  %2 = load i64, i64* %PC, align 8
  %3 = load i64, i64* %Arg1.addr, align 8
  %4 = load i64, i64* %Arg2.addr, align 8
  store i8* getelementptr inbounds ([4 x i8], [4 x i8]* @.str.2, i32 0, i32 0), i8** %type.addr.i, align 8
  store i64 %2, i64* %PC.addr.i, align 8
  store i64 %3, i64* %Arg1.addr.i, align 8
  store i64 %4, i64* %Arg2.addr.i, align 8
  %5 = load %struct._IO_FILE*, %struct._IO_FILE** @stderr, align 8
  %6 = load i8*, i8** %type.addr.i, align 8
  %7 = load i64, i64* %PC.addr.i, align 8
  %8 = load i64, i64* %Arg1.addr.i, align 8
  %9 = load i64, i64* %Arg2.addr.i, align 8
  %call.i = call i32 (%struct._IO_FILE*, i8*, ...) @fprintf(%struct._IO_FILE* %5, i8* getelementptr inbounds ([23 x i8], [23 x i8]* @.str.6, i32 0, i32 0), i8* %6, i64 %7, i64 %8, i64 %9)
  ret void
}

; Function Attrs: noinline optnone uwtable
define void @_Z26__sanitizer_cov_trace_cmp4jj(i32 zeroext %Arg1, i32 zeroext %Arg2) #3 {
entry:
  %type.addr.i = alloca i8*, align 8
  %PC.addr.i = alloca i64, align 8
  %Arg1.addr.i = alloca i32, align 4
  %Arg2.addr.i = alloca i32, align 4
  %Arg1.addr = alloca i32, align 4
  %Arg2.addr = alloca i32, align 4
  %PC = alloca i64, align 8
  store i32 %Arg1, i32* %Arg1.addr, align 4
  store i32 %Arg2, i32* %Arg2.addr, align 4
  %0 = call i8* @llvm.returnaddress(i32 0)
  %1 = ptrtoint i8* %0 to i64
  store i64 %1, i64* %PC, align 8
  %2 = load i64, i64* %PC, align 8
  %3 = load i32, i32* %Arg1.addr, align 4
  %4 = load i32, i32* %Arg2.addr, align 4
  store i8* getelementptr inbounds ([4 x i8], [4 x i8]* @.str.2, i32 0, i32 0), i8** %type.addr.i, align 8
  store i64 %2, i64* %PC.addr.i, align 8
  store i32 %3, i32* %Arg1.addr.i, align 4
  store i32 %4, i32* %Arg2.addr.i, align 4
  %5 = load %struct._IO_FILE*, %struct._IO_FILE** @stderr, align 8
  %6 = load i8*, i8** %type.addr.i, align 8
  %7 = load i64, i64* %PC.addr.i, align 8
  %8 = load i32, i32* %Arg1.addr.i, align 4
  %9 = load i32, i32* %Arg2.addr.i, align 4
  %call.i = call i32 (%struct._IO_FILE*, i8*, ...) @fprintf(%struct._IO_FILE* %5, i8* getelementptr inbounds ([23 x i8], [23 x i8]* @.str.6, i32 0, i32 0), i8* %6, i64 %7, i32 %8, i32 %9)
  ret void
}

; Function Attrs: noinline optnone uwtable
define void @_Z32__sanitizer_cov_trace_const_cmp4jj(i32 zeroext %Arg1, i32 zeroext %Arg2) #3 {
entry:
  %type.addr.i = alloca i8*, align 8
  %PC.addr.i = alloca i64, align 8
  %Arg1.addr.i = alloca i32, align 4
  %Arg2.addr.i = alloca i32, align 4
  %Arg1.addr = alloca i32, align 4
  %Arg2.addr = alloca i32, align 4
  %PC = alloca i64, align 8
  store i32 %Arg1, i32* %Arg1.addr, align 4
  store i32 %Arg2, i32* %Arg2.addr, align 4
  %0 = call i8* @llvm.returnaddress(i32 0)
  %1 = ptrtoint i8* %0 to i64
  store i64 %1, i64* %PC, align 8
  %2 = load i64, i64* %PC, align 8
  %3 = load i32, i32* %Arg1.addr, align 4
  %4 = load i32, i32* %Arg2.addr, align 4
  store i8* getelementptr inbounds ([4 x i8], [4 x i8]* @.str.2, i32 0, i32 0), i8** %type.addr.i, align 8
  store i64 %2, i64* %PC.addr.i, align 8
  store i32 %3, i32* %Arg1.addr.i, align 4
  store i32 %4, i32* %Arg2.addr.i, align 4
  %5 = load %struct._IO_FILE*, %struct._IO_FILE** @stderr, align 8
  %6 = load i8*, i8** %type.addr.i, align 8
  %7 = load i64, i64* %PC.addr.i, align 8
  %8 = load i32, i32* %Arg1.addr.i, align 4
  %9 = load i32, i32* %Arg2.addr.i, align 4
  %call.i = call i32 (%struct._IO_FILE*, i8*, ...) @fprintf(%struct._IO_FILE* %5, i8* getelementptr inbounds ([23 x i8], [23 x i8]* @.str.6, i32 0, i32 0), i8* %6, i64 %7, i32 %8, i32 %9)
  ret void
}

; Function Attrs: noinline optnone uwtable
define void @_Z26__sanitizer_cov_trace_cmp2tt(i16 zeroext %Arg1, i16 zeroext %Arg2) #3 {
entry:
  %type.addr.i = alloca i8*, align 8
  %PC.addr.i = alloca i64, align 8
  %Arg1.addr.i = alloca i16, align 2
  %Arg2.addr.i = alloca i16, align 2
  %Arg1.addr = alloca i16, align 2
  %Arg2.addr = alloca i16, align 2
  %PC = alloca i64, align 8
  store i16 %Arg1, i16* %Arg1.addr, align 2
  store i16 %Arg2, i16* %Arg2.addr, align 2
  %0 = call i8* @llvm.returnaddress(i32 0)
  %1 = ptrtoint i8* %0 to i64
  store i64 %1, i64* %PC, align 8
  %2 = load i64, i64* %PC, align 8
  %3 = load i16, i16* %Arg1.addr, align 2
  %4 = load i16, i16* %Arg2.addr, align 2
  store i8* getelementptr inbounds ([4 x i8], [4 x i8]* @.str.2, i32 0, i32 0), i8** %type.addr.i, align 8
  store i64 %2, i64* %PC.addr.i, align 8
  store i16 %3, i16* %Arg1.addr.i, align 2
  store i16 %4, i16* %Arg2.addr.i, align 2
  %5 = load %struct._IO_FILE*, %struct._IO_FILE** @stderr, align 8
  %6 = load i8*, i8** %type.addr.i, align 8
  %7 = load i64, i64* %PC.addr.i, align 8
  %8 = load i16, i16* %Arg1.addr.i, align 2
  %conv.i = zext i16 %8 to i32
  %9 = load i16, i16* %Arg2.addr.i, align 2
  %conv1.i = zext i16 %9 to i32
  %call.i = call i32 (%struct._IO_FILE*, i8*, ...) @fprintf(%struct._IO_FILE* %5, i8* getelementptr inbounds ([23 x i8], [23 x i8]* @.str.6, i32 0, i32 0), i8* %6, i64 %7, i32 %conv.i, i32 %conv1.i)
  ret void
}

; Function Attrs: noinline optnone uwtable
define void @_Z32__sanitizer_cov_trace_const_cmp2tt(i16 zeroext %Arg1, i16 zeroext %Arg2) #3 {
entry:
  %type.addr.i = alloca i8*, align 8
  %PC.addr.i = alloca i64, align 8
  %Arg1.addr.i = alloca i16, align 2
  %Arg2.addr.i = alloca i16, align 2
  %Arg1.addr = alloca i16, align 2
  %Arg2.addr = alloca i16, align 2
  %PC = alloca i64, align 8
  store i16 %Arg1, i16* %Arg1.addr, align 2
  store i16 %Arg2, i16* %Arg2.addr, align 2
  %0 = call i8* @llvm.returnaddress(i32 0)
  %1 = ptrtoint i8* %0 to i64
  store i64 %1, i64* %PC, align 8
  %2 = load i64, i64* %PC, align 8
  %3 = load i16, i16* %Arg1.addr, align 2
  %4 = load i16, i16* %Arg2.addr, align 2
  store i8* getelementptr inbounds ([4 x i8], [4 x i8]* @.str.2, i32 0, i32 0), i8** %type.addr.i, align 8
  store i64 %2, i64* %PC.addr.i, align 8
  store i16 %3, i16* %Arg1.addr.i, align 2
  store i16 %4, i16* %Arg2.addr.i, align 2
  %5 = load %struct._IO_FILE*, %struct._IO_FILE** @stderr, align 8
  %6 = load i8*, i8** %type.addr.i, align 8
  %7 = load i64, i64* %PC.addr.i, align 8
  %8 = load i16, i16* %Arg1.addr.i, align 2
  %conv.i = zext i16 %8 to i32
  %9 = load i16, i16* %Arg2.addr.i, align 2
  %conv1.i = zext i16 %9 to i32
  %call.i = call i32 (%struct._IO_FILE*, i8*, ...) @fprintf(%struct._IO_FILE* %5, i8* getelementptr inbounds ([23 x i8], [23 x i8]* @.str.6, i32 0, i32 0), i8* %6, i64 %7, i32 %conv.i, i32 %conv1.i)
  ret void
}

; Function Attrs: noinline optnone uwtable
define void @_Z26__sanitizer_cov_trace_cmp1hh(i8 zeroext %Arg1, i8 zeroext %Arg2) #3 {
entry:
  %type.addr.i = alloca i8*, align 8
  %PC.addr.i = alloca i64, align 8
  %Arg1.addr.i = alloca i8, align 1
  %Arg2.addr.i = alloca i8, align 1
  %Arg1.addr = alloca i8, align 1
  %Arg2.addr = alloca i8, align 1
  %PC = alloca i64, align 8
  store i8 %Arg1, i8* %Arg1.addr, align 1
  store i8 %Arg2, i8* %Arg2.addr, align 1
  %0 = call i8* @llvm.returnaddress(i32 0)
  %1 = ptrtoint i8* %0 to i64
  store i64 %1, i64* %PC, align 8
  %2 = load i64, i64* %PC, align 8
  %3 = load i8, i8* %Arg1.addr, align 1
  %4 = load i8, i8* %Arg2.addr, align 1
  store i8* getelementptr inbounds ([4 x i8], [4 x i8]* @.str.2, i32 0, i32 0), i8** %type.addr.i, align 8
  store i64 %2, i64* %PC.addr.i, align 8
  store i8 %3, i8* %Arg1.addr.i, align 1
  store i8 %4, i8* %Arg2.addr.i, align 1
  %5 = load %struct._IO_FILE*, %struct._IO_FILE** @stderr, align 8
  %6 = load i8*, i8** %type.addr.i, align 8
  %7 = load i64, i64* %PC.addr.i, align 8
  %8 = load i8, i8* %Arg1.addr.i, align 1
  %conv.i = zext i8 %8 to i32
  %9 = load i8, i8* %Arg2.addr.i, align 1
  %conv1.i = zext i8 %9 to i32
  %call.i = call i32 (%struct._IO_FILE*, i8*, ...) @fprintf(%struct._IO_FILE* %5, i8* getelementptr inbounds ([23 x i8], [23 x i8]* @.str.6, i32 0, i32 0), i8* %6, i64 %7, i32 %conv.i, i32 %conv1.i)
  ret void
}

; Function Attrs: noinline optnone uwtable
define void @_Z32__sanitizer_cov_trace_const_cmp1hh(i8 zeroext %Arg1, i8 zeroext %Arg2) #3 {
entry:
  %type.addr.i = alloca i8*, align 8
  %PC.addr.i = alloca i64, align 8
  %Arg1.addr.i = alloca i8, align 1
  %Arg2.addr.i = alloca i8, align 1
  %Arg1.addr = alloca i8, align 1
  %Arg2.addr = alloca i8, align 1
  %PC = alloca i64, align 8
  store i8 %Arg1, i8* %Arg1.addr, align 1
  store i8 %Arg2, i8* %Arg2.addr, align 1
  %0 = call i8* @llvm.returnaddress(i32 0)
  %1 = ptrtoint i8* %0 to i64
  store i64 %1, i64* %PC, align 8
  %2 = load i64, i64* %PC, align 8
  %3 = load i8, i8* %Arg1.addr, align 1
  %4 = load i8, i8* %Arg2.addr, align 1
  store i8* getelementptr inbounds ([4 x i8], [4 x i8]* @.str.2, i32 0, i32 0), i8** %type.addr.i, align 8
  store i64 %2, i64* %PC.addr.i, align 8
  store i8 %3, i8* %Arg1.addr.i, align 1
  store i8 %4, i8* %Arg2.addr.i, align 1
  %5 = load %struct._IO_FILE*, %struct._IO_FILE** @stderr, align 8
  %6 = load i8*, i8** %type.addr.i, align 8
  %7 = load i64, i64* %PC.addr.i, align 8
  %8 = load i8, i8* %Arg1.addr.i, align 1
  %conv.i = zext i8 %8 to i32
  %9 = load i8, i8* %Arg2.addr.i, align 1
  %conv1.i = zext i8 %9 to i32
  %call.i = call i32 (%struct._IO_FILE*, i8*, ...) @fprintf(%struct._IO_FILE* %5, i8* getelementptr inbounds ([23 x i8], [23 x i8]* @.str.6, i32 0, i32 0), i8* %6, i64 %7, i32 %conv.i, i32 %conv1.i)
  ret void
}

; Function Attrs: noinline optnone uwtable
define void @_Z28__sanitizer_cov_trace_switchmPm(i64 %Val, i64* %Cases) #3 {
entry:
  %type.addr.i18 = alloca i8*, align 8
  %PC.addr.i19 = alloca i64, align 8
  %Arg1.addr.i20 = alloca i64, align 8
  %Arg2.addr.i21 = alloca i64, align 8
  %type.addr.i13 = alloca i8*, align 8
  %PC.addr.i14 = alloca i64, align 8
  %Arg1.addr.i15 = alloca i32, align 4
  %Arg2.addr.i16 = alloca i32, align 4
  %type.addr.i = alloca i8*, align 8
  %PC.addr.i = alloca i64, align 8
  %Arg1.addr.i = alloca i16, align 2
  %Arg2.addr.i = alloca i16, align 2
  %Val.addr = alloca i64, align 8
  %Cases.addr = alloca i64*, align 8
  %N = alloca i64, align 8
  %ValSizeInBits = alloca i64, align 8
  %Vals = alloca i64*, align 8
  %PC = alloca i64, align 8
  %i = alloca i64, align 8
  %Token = alloca i64, align 8
  store i64 %Val, i64* %Val.addr, align 8
  store i64* %Cases, i64** %Cases.addr, align 8
  %0 = load i64*, i64** %Cases.addr, align 8
  %arrayidx = getelementptr inbounds i64, i64* %0, i64 0
  %1 = load i64, i64* %arrayidx, align 8
  store i64 %1, i64* %N, align 8
  %2 = load i64*, i64** %Cases.addr, align 8
  %arrayidx1 = getelementptr inbounds i64, i64* %2, i64 1
  %3 = load i64, i64* %arrayidx1, align 8
  store i64 %3, i64* %ValSizeInBits, align 8
  %4 = load i64*, i64** %Cases.addr, align 8
  %add.ptr = getelementptr inbounds i64, i64* %4, i64 2
  store i64* %add.ptr, i64** %Vals, align 8
  %5 = call i8* @llvm.returnaddress(i32 0)
  %6 = ptrtoint i8* %5 to i64
  store i64 %6, i64* %PC, align 8
  store i64 0, i64* %Token, align 8
  store i64 0, i64* %i, align 8
  br label %for.cond

for.cond:                                         ; preds = %for.inc, %entry
  %7 = load i64, i64* %i, align 8
  %8 = load i64, i64* %N, align 8
  %cmp = icmp ult i64 %7, %8
  br i1 %cmp, label %for.body, label %for.end

for.body:                                         ; preds = %for.cond
  %9 = load i64, i64* %ValSizeInBits, align 8
  %cmp2 = icmp eq i64 %9, 16
  br i1 %cmp2, label %if.then, label %if.else

if.then:                                          ; preds = %for.body
  %10 = load i64, i64* %PC, align 8
  %11 = load i64, i64* %i, align 8
  %add = add i64 %10, %11
  %12 = load i64*, i64** %Vals, align 8
  %13 = load i64, i64* %i, align 8
  %arrayidx3 = getelementptr inbounds i64, i64* %12, i64 %13
  %14 = load i64, i64* %arrayidx3, align 8
  %conv = trunc i64 %14 to i16
  store i8* getelementptr inbounds ([10 x i8], [10 x i8]* @.str.3, i32 0, i32 0), i8** %type.addr.i, align 8
  store i64 %add, i64* %PC.addr.i, align 8
  store i16 %conv, i16* %Arg1.addr.i, align 2
  store i16 0, i16* %Arg2.addr.i, align 2
  %15 = load %struct._IO_FILE*, %struct._IO_FILE** @stderr, align 8
  %16 = load i8*, i8** %type.addr.i, align 8
  %17 = load i64, i64* %PC.addr.i, align 8
  %18 = load i16, i16* %Arg1.addr.i, align 2
  %conv.i = zext i16 %18 to i32
  %19 = load i16, i16* %Arg2.addr.i, align 2
  %conv1.i = zext i16 %19 to i32
  %call.i = call i32 (%struct._IO_FILE*, i8*, ...) @fprintf(%struct._IO_FILE* %15, i8* getelementptr inbounds ([23 x i8], [23 x i8]* @.str.6, i32 0, i32 0), i8* %16, i64 %17, i32 %conv.i, i32 %conv1.i)
  br label %if.end12

if.else:                                          ; preds = %for.body
  %20 = load i64, i64* %ValSizeInBits, align 8
  %cmp4 = icmp eq i64 %20, 32
  br i1 %cmp4, label %if.then5, label %if.else9

if.then5:                                         ; preds = %if.else
  %21 = load i64, i64* %PC, align 8
  %22 = load i64, i64* %i, align 8
  %add6 = add i64 %21, %22
  %23 = load i64*, i64** %Vals, align 8
  %24 = load i64, i64* %i, align 8
  %arrayidx7 = getelementptr inbounds i64, i64* %23, i64 %24
  %25 = load i64, i64* %arrayidx7, align 8
  %conv8 = trunc i64 %25 to i32
  store i8* getelementptr inbounds ([10 x i8], [10 x i8]* @.str.4, i32 0, i32 0), i8** %type.addr.i13, align 8
  store i64 %add6, i64* %PC.addr.i14, align 8
  store i32 %conv8, i32* %Arg1.addr.i15, align 4
  store i32 0, i32* %Arg2.addr.i16, align 4
  %26 = load %struct._IO_FILE*, %struct._IO_FILE** @stderr, align 8
  %27 = load i8*, i8** %type.addr.i13, align 8
  %28 = load i64, i64* %PC.addr.i14, align 8
  %29 = load i32, i32* %Arg1.addr.i15, align 4
  %30 = load i32, i32* %Arg2.addr.i16, align 4
  %call.i17 = call i32 (%struct._IO_FILE*, i8*, ...) @fprintf(%struct._IO_FILE* %26, i8* getelementptr inbounds ([23 x i8], [23 x i8]* @.str.6, i32 0, i32 0), i8* %27, i64 %28, i32 %29, i32 %30)
  br label %if.end

if.else9:                                         ; preds = %if.else
  %31 = load i64, i64* %PC, align 8
  %32 = load i64, i64* %i, align 8
  %add10 = add i64 %31, %32
  %33 = load i64*, i64** %Vals, align 8
  %34 = load i64, i64* %i, align 8
  %arrayidx11 = getelementptr inbounds i64, i64* %33, i64 %34
  %35 = load i64, i64* %arrayidx11, align 8
  store i8* getelementptr inbounds ([10 x i8], [10 x i8]* @.str.5, i32 0, i32 0), i8** %type.addr.i18, align 8
  store i64 %add10, i64* %PC.addr.i19, align 8
  store i64 %35, i64* %Arg1.addr.i20, align 8
  store i64 0, i64* %Arg2.addr.i21, align 8
  %36 = load %struct._IO_FILE*, %struct._IO_FILE** @stderr, align 8
  %37 = load i8*, i8** %type.addr.i18, align 8
  %38 = load i64, i64* %PC.addr.i19, align 8
  %39 = load i64, i64* %Arg1.addr.i20, align 8
  %40 = load i64, i64* %Arg2.addr.i21, align 8
  %call.i22 = call i32 (%struct._IO_FILE*, i8*, ...) @fprintf(%struct._IO_FILE* %36, i8* getelementptr inbounds ([23 x i8], [23 x i8]* @.str.6, i32 0, i32 0), i8* %37, i64 %38, i64 %39, i64 %40)
  br label %if.end

if.end:                                           ; preds = %if.else9, %if.then5
  br label %if.end12

if.end12:                                         ; preds = %if.end, %if.then
  br label %for.inc

for.inc:                                          ; preds = %if.end12
  %41 = load i64, i64* %i, align 8
  %inc = add i64 %41, 1
  store i64 %inc, i64* %i, align 8
  br label %for.cond

for.end:                                          ; preds = %for.cond
  ret void
}

; Function Attrs: nounwind uwtable
define i32 @main(i32 %argc, i8** %argv) local_unnamed_addr #4 !dbg !889 {
entry:
  call void @_Z24__sanitizer_cov_trace_pcv()
  call void asm sideeffect "", ""()
  %endptr = alloca i8*, align 8
  call void @llvm.dbg.value(metadata i32 %argc, metadata !893, metadata !DIExpression()), !dbg !931
  call void @llvm.dbg.value(metadata i8** %argv, metadata !894, metadata !DIExpression()), !dbg !932
  call void @llvm.dbg.value(metadata i32 0, metadata !900, metadata !DIExpression()), !dbg !933
  tail call void @read_config_file(i8* getelementptr inbounds ([24 x i8], [24 x i8]* @.str.7, i64 0, i64 0)) #10, !dbg !934
  call void @llvm.dbg.value(metadata i64 10, metadata !901, metadata !DIExpression()), !dbg !935
  %call3 = tail call noalias i8* @malloc(i64 10) #10, !dbg !935
  call void @llvm.dbg.value(metadata i8* %call3, metadata !903, metadata !DIExpression()), !dbg !935
  %cmp4 = icmp eq i8* %call3, null, !dbg !936
  br i1 %cmp4, label %cond.end8, label %if.then, !dbg !935

if.then:                                          ; preds = %entry
  call void @_Z24__sanitizer_cov_trace_pcv(), !dbg !936
  call void asm sideeffect "", ""(), !dbg !936
  tail call void @llvm.memcpy.p0i8.p0i8.i64(i8* nonnull %call3, i8* getelementptr inbounds ([10 x i8], [10 x i8]* @.str.1.8, i64 0, i64 0), i64 10, i32 1, i1 false), !dbg !936
  call void @llvm.dbg.value(metadata i8* %call3, metadata !903, metadata !DIExpression()), !dbg !935
  br label %cond.end8, !dbg !936

cond.end8:                                        ; preds = %if.then, %entry
  call void @_Z24__sanitizer_cov_trace_pcv(), !dbg !935
  call void asm sideeffect "", ""(), !dbg !935
  call void @llvm.dbg.value(metadata i8* %call3, metadata !903, metadata !DIExpression()), !dbg !935
  %call10 = tail call i8* @getenv(i8* getelementptr inbounds ([5 x i8], [5 x i8]* @.str.2.9, i64 0, i64 0)) #10, !dbg !938
  %call11 = tail call i8* @find_file(i8* %call3, i8* %call10) #10, !dbg !939
  call void @llvm.dbg.value(metadata i8* %call11, metadata !898, metadata !DIExpression()), !dbg !940
  %tobool = icmp eq i8* %call11, null, !dbg !941
  br i1 %tobool, label %if.end13, label %if.then12, !dbg !943

if.then12:                                        ; preds = %cond.end8
  call void @_Z24__sanitizer_cov_trace_pcv(), !dbg !944
  call void asm sideeffect "", ""(), !dbg !944
  tail call void @read_config_file(i8* nonnull %call11) #10, !dbg !944
  tail call void @free(i8* nonnull %call11) #10, !dbg !946
  br label %if.end13, !dbg !947

if.end13:                                         ; preds = %cond.end8, %if.then12
  call void @_Z24__sanitizer_cov_trace_pcv(), !dbg !948
  call void asm sideeffect "", ""(), !dbg !948
  tail call void @get_locale_charset() #10, !dbg !948
  %0 = bitcast i8** %endptr to i8*
  br label %while.cond, !dbg !949

while.cond:                                       ; preds = %while.cond.backedge, %if.end13
  call void @_Z24__sanitizer_cov_trace_pcv(), !dbg !950
  call void asm sideeffect "", ""(), !dbg !950
  %call14 = tail call i32 @getopt(i32 %argc, i8** %argv, i8* getelementptr inbounds ([19 x i8], [19 x i8]* @.str.3.10, i64 0, i64 0)) #10, !dbg !950
  call void @llvm.dbg.value(metadata i32 %call14, metadata !896, metadata !DIExpression()), !dbg !951
  %1 = zext i32 %call14 to i64, !dbg !949
  call void @_Z28__sanitizer_cov_trace_switchmPm(i64 %1, i64* getelementptr inbounds ([17 x i64], [17 x i64]* @__sancov_gen_cov_switch_values, i32 0, i32 0)), !dbg !949
  switch i32 %call14, label %sw.default [
    i32 -1, label %while.end
    i32 115, label %sw.bb
    i32 100, label %sw.bb18
    i32 102, label %sw.bb20
    i32 116, label %cond.false29
    i32 97, label %cond.false51
    i32 117, label %sw.bb66
    i32 56, label %sw.bb67
    i32 118, label %sw.bb68
    i32 119, label %sw.bb69
    i32 109, label %sw.bb70
    i32 108, label %sw.bb77
    i32 98, label %sw.bb78
    i32 120, label %sw.bb79
    i32 86, label %sw.bb80
  ], !dbg !949

sw.bb:                                            ; preds = %while.cond
  call void @_Z24__sanitizer_cov_trace_pcv(), !dbg !952
  call void asm sideeffect "", ""(), !dbg !952
  %2 = load i8*, i8** @optarg, align 8, !dbg !952, !tbaa !953
  %call17 = tail call i32 @check_charset(i8** nonnull @source_csname, i8* %2) #10, !dbg !957
  store i32 1, i32* @forced_charset, align 4, !dbg !958, !tbaa !959
  br label %while.cond.backedge, !dbg !961

sw.bb18:                                          ; preds = %while.cond
  call void @_Z24__sanitizer_cov_trace_pcv(), !dbg !962
  call void asm sideeffect "", ""(), !dbg !962
  %3 = load i8*, i8** @optarg, align 8, !dbg !962, !tbaa !953
  %call19 = tail call i32 @check_charset(i8** nonnull @dest_csname, i8* %3) #10, !dbg !963
  br label %while.cond.backedge, !dbg !964

sw.bb20:                                          ; preds = %while.cond
  call void @_Z24__sanitizer_cov_trace_pcv(), !dbg !965
  call void asm sideeffect "", ""(), !dbg !965
  %4 = load i8*, i8** @optarg, align 8, !dbg !965, !tbaa !953
  %call21 = tail call noalias i8* @__strdup(i8* %4) #10, !dbg !965
  store i8* %call21, i8** @format_name, align 8, !dbg !966, !tbaa !953
  br label %while.cond.backedge, !dbg !967

cond.false29:                                     ; preds = %while.cond
  call void @_Z24__sanitizer_cov_trace_pcv(), !dbg !968
  call void asm sideeffect "", ""(), !dbg !968
  call void @llvm.dbg.value(metadata i64 4, metadata !904, metadata !DIExpression()), !dbg !968
  %call32 = tail call noalias i8* @malloc(i64 4) #10, !dbg !968
  call void @llvm.dbg.value(metadata i8* %call32, metadata !908, metadata !DIExpression()), !dbg !968
  %cmp33 = icmp eq i8* %call32, null, !dbg !969
  br i1 %cmp33, label %cond.end42, label %if.then35, !dbg !968

if.then35:                                        ; preds = %cond.false29
  call void @_Z24__sanitizer_cov_trace_pcv(), !dbg !969
  call void asm sideeffect "", ""(), !dbg !969
  %5 = bitcast i8* %call32 to i32*, !dbg !969
  store i32 7890292, i32* %5, align 1, !dbg !969
  call void @llvm.dbg.value(metadata i8* %call32, metadata !908, metadata !DIExpression()), !dbg !968
  br label %cond.end42, !dbg !969

cond.end42:                                       ; preds = %if.then35, %cond.false29
  call void @_Z24__sanitizer_cov_trace_pcv(), !dbg !968
  call void asm sideeffect "", ""(), !dbg !968
  call void @llvm.dbg.value(metadata i8* %call32, metadata !908, metadata !DIExpression()), !dbg !968
  store i8* %call32, i8** @format_name, align 8, !dbg !971, !tbaa !953
  br label %while.cond.backedge, !dbg !972

cond.false51:                                     ; preds = %while.cond
  call void @_Z24__sanitizer_cov_trace_pcv(), !dbg !973
  call void asm sideeffect "", ""(), !dbg !973
  call void @llvm.dbg.value(metadata i64 6, metadata !909, metadata !DIExpression()), !dbg !973
  %call54 = tail call noalias i8* @malloc(i64 6) #10, !dbg !973
  call void @llvm.dbg.value(metadata i8* %call54, metadata !911, metadata !DIExpression()), !dbg !973
  %cmp55 = icmp eq i8* %call54, null, !dbg !974
  br i1 %cmp55, label %cond.end64, label %if.then57, !dbg !973

if.then57:                                        ; preds = %cond.false51
  call void @_Z24__sanitizer_cov_trace_pcv(), !dbg !974
  call void asm sideeffect "", ""(), !dbg !974
  tail call void @llvm.memcpy.p0i8.p0i8.i64(i8* nonnull %call54, i8* getelementptr inbounds ([6 x i8], [6 x i8]* @.str.5.11, i64 0, i64 0), i64 6, i32 1, i1 false), !dbg !974
  call void @llvm.dbg.value(metadata i8* %call54, metadata !911, metadata !DIExpression()), !dbg !973
  br label %cond.end64, !dbg !974

cond.end64:                                       ; preds = %if.then57, %cond.false51
  call void @_Z24__sanitizer_cov_trace_pcv(), !dbg !973
  call void asm sideeffect "", ""(), !dbg !973
  call void @llvm.dbg.value(metadata i8* %call54, metadata !911, metadata !DIExpression()), !dbg !973
  store i8* %call54, i8** @format_name, align 8, !dbg !976, !tbaa !953
  br label %while.cond.backedge, !dbg !977

sw.bb66:                                          ; preds = %while.cond
  call void @_Z24__sanitizer_cov_trace_pcv(), !dbg !978
  call void asm sideeffect "", ""(), !dbg !978
  store i32 (%struct._IO_FILE*, i64*, i64)* @get_word8_char, i32 (%struct._IO_FILE*, i64*, i64)** @get_unicode_char, align 8, !dbg !978, !tbaa !953
  br label %while.cond.backedge, !dbg !979

sw.bb67:                                          ; preds = %while.cond
  call void @_Z24__sanitizer_cov_trace_pcv(), !dbg !980
  call void asm sideeffect "", ""(), !dbg !980
  store i32 (%struct._IO_FILE*, i64*, i64)* @get_8bit_char, i32 (%struct._IO_FILE*, i64*, i64)** @get_unicode_char, align 8, !dbg !980, !tbaa !953
  br label %while.cond.backedge, !dbg !981

sw.bb68:                                          ; preds = %while.cond
  call void @_Z24__sanitizer_cov_trace_pcv(), !dbg !982
  call void asm sideeffect "", ""(), !dbg !982
  store i32 1, i32* @verbose, align 4, !dbg !982, !tbaa !959
  br label %while.cond.backedge, !dbg !983

sw.bb69:                                          ; preds = %while.cond
  call void @_Z24__sanitizer_cov_trace_pcv(), !dbg !984
  call void asm sideeffect "", ""(), !dbg !984
  store i32 0, i32* @wrap_margin, align 4, !dbg !984, !tbaa !959
  br label %while.cond.backedge, !dbg !985

sw.bb70:                                          ; preds = %while.cond
  call void @_Z24__sanitizer_cov_trace_pcv(), !dbg !986
  call void asm sideeffect "", ""(), !dbg !986
  call void @llvm.lifetime.start.p0i8(i64 8, i8* nonnull %0) #10, !dbg !986
  %6 = load i8*, i8** @optarg, align 8, !dbg !987, !tbaa !953
  call void @llvm.dbg.value(metadata i8** %endptr, metadata !912, metadata !DIExpression()), !dbg !988
  %call71 = call i64 @strtol(i8* %6, i8** nonnull %endptr, i32 0) #10, !dbg !989
  %conv72 = trunc i64 %call71 to i32, !dbg !990
  store i32 %conv72, i32* @wrap_margin, align 4, !dbg !991, !tbaa !959
  %7 = load i8*, i8** %endptr, align 8, !dbg !992, !tbaa !953
  call void @llvm.dbg.value(metadata i8* %7, metadata !912, metadata !DIExpression()), !dbg !988
  %8 = load i8, i8* %7, align 1, !dbg !994, !tbaa !995
  call void @_Z32__sanitizer_cov_trace_const_cmp1hh(i8 0, i8 %8), !dbg !994
  %tobool73 = icmp eq i8 %8, 0, !dbg !994
  br i1 %tobool73, label %if.end76, label %if.then74, !dbg !996

if.then74:                                        ; preds = %sw.bb70
  call void @_Z24__sanitizer_cov_trace_pcv(), !dbg !997
  call void asm sideeffect "", ""(), !dbg !997
  %9 = load %struct._IO_FILE*, %struct._IO_FILE** @stderr, align 8, !dbg !997, !tbaa !953
  %10 = load i8*, i8** @optarg, align 8, !dbg !999, !tbaa !953
  %call75 = tail call i32 (%struct._IO_FILE*, i8*, ...) @fprintf(%struct._IO_FILE* %9, i8* getelementptr inbounds ([32 x i8], [32 x i8]* @.str.6.12, i64 0, i64 0), i8* %10) #16, !dbg !1000
  tail call void @exit(i32 1) #17, !dbg !1001
  unreachable, !dbg !1001

if.end76:                                         ; preds = %sw.bb70
  call void @_Z24__sanitizer_cov_trace_pcv(), !dbg !1002
  call void asm sideeffect "", ""(), !dbg !1002
  call void @llvm.lifetime.end.p0i8(i64 8, i8* nonnull %0) #10, !dbg !1002
  br label %while.cond.backedge

sw.bb77:                                          ; preds = %while.cond
  call void @_Z24__sanitizer_cov_trace_pcv(), !dbg !1003
  call void asm sideeffect "", ""(), !dbg !1003
  tail call void @list_charsets() #10, !dbg !1003
  tail call void @exit(i32 0) #17, !dbg !1004
  unreachable, !dbg !1004

sw.bb78:                                          ; preds = %while.cond
  call void @_Z24__sanitizer_cov_trace_pcv(), !dbg !1005
  call void asm sideeffect "", ""(), !dbg !1005
  store i32 0, i32* @signature_check, align 4, !dbg !1005, !tbaa !959
  br label %while.cond.backedge, !dbg !1006

sw.bb79:                                          ; preds = %while.cond
  call void @_Z24__sanitizer_cov_trace_pcv(), !dbg !1007
  call void asm sideeffect "", ""(), !dbg !1007
  store i32 1, i32* @unknown_as_hex, align 4, !dbg !1007, !tbaa !959
  br label %while.cond.backedge, !dbg !1008

while.cond.backedge:                              ; preds = %sw.bb79, %sw.bb78, %if.end76, %sw.bb69, %sw.bb68, %sw.bb67, %sw.bb66, %cond.end64, %cond.end42, %sw.bb20, %sw.bb18, %sw.bb
  call void @_Z24__sanitizer_cov_trace_pcv(), !dbg !950
  call void asm sideeffect "", ""(), !dbg !950
  br label %while.cond, !dbg !950, !llvm.loop !1009

sw.bb80:                                          ; preds = %while.cond
  call void @_Z24__sanitizer_cov_trace_pcv(), !dbg !1011
  call void asm sideeffect "", ""(), !dbg !1011
  %call81 = tail call i32 (i8*, ...) @printf(i8* getelementptr inbounds ([19 x i8], [19 x i8]* @.str.7.13, i64 0, i64 0), i8* getelementptr inbounds ([5 x i8], [5 x i8]* @.str.8, i64 0, i64 0)), !dbg !1011
  tail call void @exit(i32 0) #17, !dbg !1012
  unreachable, !dbg !1012

sw.default:                                       ; preds = %while.cond
  call void @_Z24__sanitizer_cov_trace_pcv(), !dbg !1013
  call void asm sideeffect "", ""(), !dbg !1013
  tail call void @help(), !dbg !1013
  tail call void @exit(i32 1) #17, !dbg !1014
  unreachable, !dbg !1014

while.end:                                        ; preds = %while.cond
  call void @_Z24__sanitizer_cov_trace_pcv(), !dbg !1015
  call void asm sideeffect "", ""(), !dbg !1015
  %call82 = tail call noalias i8* @malloc(i64 262144) #10, !dbg !1015
  store i8* %call82, i8** @input_buffer, align 8, !dbg !1016, !tbaa !953
  %tobool83 = icmp eq i8* %call82, null, !dbg !1017
  br i1 %tobool83, label %if.then84, label %if.end86, !dbg !1019

if.then84:                                        ; preds = %while.end
  call void @_Z24__sanitizer_cov_trace_pcv(), !dbg !1020
  call void asm sideeffect "", ""(), !dbg !1020
  %11 = load %struct._IO_FILE*, %struct._IO_FILE** @stderr, align 8, !dbg !1020, !tbaa !953
  %12 = tail call i64 @fwrite(i8* getelementptr inbounds ([28 x i8], [28 x i8]* @.str.9, i64 0, i64 0), i64 27, i64 1, %struct._IO_FILE* %11) #16, !dbg !1022
  br label %if.end86, !dbg !1023

if.end86:                                         ; preds = %while.end, %if.then84
  call void @_Z24__sanitizer_cov_trace_pcv(), !dbg !1024
  call void asm sideeffect "", ""(), !dbg !1024
  %13 = load i8*, i8** @source_csname, align 8, !dbg !1024, !tbaa !953
  %call87 = tail call i16* @read_charset(i8* %13) #10, !dbg !1025
  store i16* %call87, i16** @source_charset, align 8, !dbg !1026, !tbaa !953
  %tobool88 = icmp eq i16* %call87, null, !dbg !1027
  br i1 %tobool88, label %if.then89, label %cond.end135, !dbg !1029

if.then89:                                        ; preds = %if.end86
  call void @_Z24__sanitizer_cov_trace_pcv(), !dbg !1030
  call void asm sideeffect "", ""(), !dbg !1030
  tail call void @exit(i32 1) #17, !dbg !1030
  unreachable, !dbg !1030

cond.end135:                                      ; preds = %if.end86
  call void @_Z24__sanitizer_cov_trace_pcv(), !dbg !1031
  call void asm sideeffect "", ""(), !dbg !1031
  call void @llvm.dbg.value(metadata i64 5, metadata !917, metadata !DIExpression()), !dbg !1031
  %14 = load i8*, i8** @dest_csname, align 8, !dbg !1031, !tbaa !953
  %15 = bitcast i8* %14 to i64*, !dbg !1031
  call void @_Z28__sanitizer_cov_trace_strcmpPmS_(i64* %15, i64* bitcast ([6 x i8]* @.str.10 to i64*)), !dbg !1031
  %call134 = tail call i32 @strcmp(i8* %14, i8* getelementptr inbounds ([6 x i8], [6 x i8]* @.str.10, i64 0, i64 0)) #10, !dbg !1031
  call void @_Z32__sanitizer_cov_trace_const_cmp4jj(i32 0, i32 %call134), !dbg !1032
  %tobool137 = icmp eq i32 %call134, 0, !dbg !1032
  br i1 %tobool137, label %if.else, label %if.then141, !dbg !1032

if.then141:                                       ; preds = %cond.end135
  call void @_Z24__sanitizer_cov_trace_pcv(), !dbg !1033
  call void asm sideeffect "", ""(), !dbg !1033
  %call142 = tail call i16* @read_charset(i8* %14) #10, !dbg !1033
  call void @llvm.dbg.value(metadata i16* %call142, metadata !899, metadata !DIExpression()), !dbg !1035
  %tobool143 = icmp eq i16* %call142, null, !dbg !1036
  br i1 %tobool143, label %if.then144, label %if.end145, !dbg !1038

if.then144:                                       ; preds = %if.then141
  call void @_Z24__sanitizer_cov_trace_pcv(), !dbg !1039
  call void asm sideeffect "", ""(), !dbg !1039
  tail call void @exit(i32 1) #17, !dbg !1039
  unreachable, !dbg !1039

if.end145:                                        ; preds = %if.then141
  call void @_Z24__sanitizer_cov_trace_pcv(), !dbg !1040
  call void asm sideeffect "", ""(), !dbg !1040
  %call146 = tail call i16** @make_reverse_map(i16* nonnull %call142) #10, !dbg !1040
  store i16** %call146, i16*** @target_charset, align 8, !dbg !1041, !tbaa !953
  %16 = bitcast i16* %call142 to i8*, !dbg !1042
  tail call void @free(i8* %16) #10, !dbg !1043
  br label %if.end147, !dbg !1044

if.else:                                          ; preds = %cond.end135
  call void @_Z24__sanitizer_cov_trace_pcv(), !dbg !1045
  call void asm sideeffect "", ""(), !dbg !1045
  store i16** null, i16*** @target_charset, align 8, !dbg !1045, !tbaa !953
  br label %if.end147

if.end147:                                        ; preds = %if.else, %if.end145
  call void @_Z24__sanitizer_cov_trace_pcv(), !dbg !1047
  call void asm sideeffect "", ""(), !dbg !1047
  %17 = load i8*, i8** @format_name, align 8, !dbg !1047, !tbaa !953
  %call148 = tail call i8* @stradd(i8* %17, i8* getelementptr inbounds ([11 x i8], [11 x i8]* @.str.11, i64 0, i64 0)) #10, !dbg !1048
  %call149 = tail call i8*** @read_substmap(i8* %call148) #10, !dbg !1049
  store i8*** %call149, i8**** @spec_chars, align 8, !dbg !1050, !tbaa !953
  %tobool150 = icmp eq i8*** %call149, null, !dbg !1051
  br i1 %tobool150, label %if.then151, label %if.end153, !dbg !1053

if.then151:                                       ; preds = %if.end147
  call void @_Z24__sanitizer_cov_trace_pcv(), !dbg !1054
  call void asm sideeffect "", ""(), !dbg !1054
  %18 = load %struct._IO_FILE*, %struct._IO_FILE** @stderr, align 8, !dbg !1054, !tbaa !953
  %19 = load i8*, i8** @format_name, align 8, !dbg !1056, !tbaa !953
  %call152 = tail call i32 (%struct._IO_FILE*, i8*, ...) @fprintf(%struct._IO_FILE* %18, i8* getelementptr inbounds ([35 x i8], [35 x i8]* @.str.12, i64 0, i64 0), i8* %19, i8* getelementptr inbounds ([11 x i8], [11 x i8]* @.str.11, i64 0, i64 0)) #16, !dbg !1057
  tail call void @exit(i32 1) #17, !dbg !1058
  unreachable, !dbg !1058

if.end153:                                        ; preds = %if.end147
  call void @_Z24__sanitizer_cov_trace_pcv(), !dbg !1059
  call void asm sideeffect "", ""(), !dbg !1059
  %20 = load i8*, i8** @format_name, align 8, !dbg !1059, !tbaa !953
  %call154 = tail call i8* @stradd(i8* %20, i8* getelementptr inbounds ([11 x i8], [11 x i8]* @.str.13, i64 0, i64 0)) #10, !dbg !1060
  %call155 = tail call i8*** @read_substmap(i8* %call154) #10, !dbg !1061
  store i8*** %call155, i8**** @replacements, align 8, !dbg !1062, !tbaa !953
  %tobool156 = icmp eq i8*** %call155, null, !dbg !1063
  br i1 %tobool156, label %if.then157, label %if.end159, !dbg !1065

if.then157:                                       ; preds = %if.end153
  call void @_Z24__sanitizer_cov_trace_pcv(), !dbg !1066
  call void asm sideeffect "", ""(), !dbg !1066
  %21 = load %struct._IO_FILE*, %struct._IO_FILE** @stderr, align 8, !dbg !1066, !tbaa !953
  %22 = load i8*, i8** @format_name, align 8, !dbg !1068, !tbaa !953
  %call158 = tail call i32 (%struct._IO_FILE*, i8*, ...) @fprintf(%struct._IO_FILE* %21, i8* getelementptr inbounds ([34 x i8], [34 x i8]* @.str.14, i64 0, i64 0), i8* %22, i8* getelementptr inbounds ([11 x i8], [11 x i8]* @.str.13, i64 0, i64 0)) #16, !dbg !1069
  tail call void @exit(i32 1) #17, !dbg !1070
  unreachable, !dbg !1070

if.end159:                                        ; preds = %if.end153
  call void @_Z24__sanitizer_cov_trace_pcv(), !dbg !1071
  call void asm sideeffect "", ""(), !dbg !1071
  %23 = load i32, i32* @longest_sequence, align 4, !dbg !1071, !tbaa !959
  %sub160 = sub nsw i32 512, %23, !dbg !1073
  %24 = load i32, i32* @wrap_margin, align 4, !dbg !1074, !tbaa !959
  call void @_Z26__sanitizer_cov_trace_cmp4jj(i32 %sub160, i32 %24), !dbg !1075
  %cmp161 = icmp sgt i32 %sub160, %24, !dbg !1075
  br i1 %cmp161, label %if.end165, label %if.then163, !dbg !1076

if.then163:                                       ; preds = %if.end159
  call void @_Z24__sanitizer_cov_trace_pcv(), !dbg !1077
  call void asm sideeffect "", ""(), !dbg !1077
  %25 = load %struct._IO_FILE*, %struct._IO_FILE** @stderr, align 8, !dbg !1077, !tbaa !953
  %26 = tail call i64 @fwrite(i8* getelementptr inbounds ([42 x i8], [42 x i8]* @.str.15, i64 0, i64 0), i64 41, i64 1, %struct._IO_FILE* %25) #16, !dbg !1079
  tail call void @exit(i32 1) #17, !dbg !1080
  unreachable, !dbg !1080

if.end165:                                        ; preds = %if.end159
  call void @_Z24__sanitizer_cov_trace_pcv(), !dbg !1081
  call void asm sideeffect "", ""(), !dbg !1081
  %27 = load %struct._IO_FILE*, %struct._IO_FILE** @stdout, align 8, !dbg !1081, !tbaa !953
  %call166 = tail call i32 @fileno(%struct._IO_FILE* %27) #10, !dbg !1083
  %call167 = tail call i32 @isatty(i32 %call166) #10, !dbg !1084
  call void @_Z32__sanitizer_cov_trace_const_cmp4jj(i32 0, i32 %call167), !dbg !1084
  %tobool168 = icmp eq i32 %call167, 0, !dbg !1084
  br i1 %tobool168, label %if.then169, label %if.end180, !dbg !1085

if.then169:                                       ; preds = %if.end165
  call void @_Z24__sanitizer_cov_trace_pcv(), !dbg !1086
  call void asm sideeffect "", ""(), !dbg !1086
  %call170 = tail call noalias i8* @malloc(i64 262144) #10, !dbg !1086
  store i8* %call170, i8** @output_buffer, align 8, !dbg !1088, !tbaa !953
  %tobool171 = icmp eq i8* %call170, null, !dbg !1089
  br i1 %tobool171, label %if.else177, label %if.then172, !dbg !1091

if.then172:                                       ; preds = %if.then169
  call void @_Z24__sanitizer_cov_trace_pcv(), !dbg !1092
  call void asm sideeffect "", ""(), !dbg !1092
  %28 = load %struct._IO_FILE*, %struct._IO_FILE** @stdout, align 8, !dbg !1092, !tbaa !953
  %call173 = tail call i32 @setvbuf(%struct._IO_FILE* %28, i8* nonnull %call170, i32 0, i64 262144) #10, !dbg !1095
  call void @_Z32__sanitizer_cov_trace_const_cmp4jj(i32 0, i32 %call173), !dbg !1095
  %tobool174 = icmp eq i32 %call173, 0, !dbg !1095
  br i1 %tobool174, label %if.end180, label %if.then175, !dbg !1096

if.then175:                                       ; preds = %if.then172
  call void @_Z24__sanitizer_cov_trace_pcv(), !dbg !1097
  call void asm sideeffect "", ""(), !dbg !1097
  tail call void @perror(i8* getelementptr inbounds ([7 x i8], [7 x i8]* @.str.16, i64 0, i64 0)) #16, !dbg !1097
  br label %if.end180, !dbg !1099

if.else177:                                       ; preds = %if.then169
  call void @_Z24__sanitizer_cov_trace_pcv(), !dbg !1100
  call void asm sideeffect "", ""(), !dbg !1100
  %29 = load %struct._IO_FILE*, %struct._IO_FILE** @stderr, align 8, !dbg !1100, !tbaa !953
  %30 = tail call i64 @fwrite(i8* getelementptr inbounds ([29 x i8], [29 x i8]* @.str.17, i64 0, i64 0), i64 28, i64 1, %struct._IO_FILE* %29) #16, !dbg !1102
  br label %if.end180

if.end180:                                        ; preds = %if.then172, %if.end165, %if.else177, %if.then175
  call void @_Z24__sanitizer_cov_trace_pcv(), !dbg !1103
  call void asm sideeffect "", ""(), !dbg !1103
  tail call void @set_std_func() #10, !dbg !1103
  %31 = load i32, i32* @optind, align 4, !dbg !1104, !tbaa !959
  call void @_Z26__sanitizer_cov_trace_cmp4jj(i32 %31, i32 %argc), !dbg !1106
  %cmp181 = icmp eq i32 %31, %argc, !dbg !1106
  br i1 %cmp181, label %if.then183, label %if.end194, !dbg !1107

if.then183:                                       ; preds = %if.end180
  call void @_Z24__sanitizer_cov_trace_pcv(), !dbg !1108
  call void asm sideeffect "", ""(), !dbg !1108
  %32 = load %struct._IO_FILE*, %struct._IO_FILE** @stdin, align 8, !dbg !1108, !tbaa !953
  %call184 = tail call i32 @fileno(%struct._IO_FILE* %32) #10, !dbg !1111
  %call185 = tail call i32 @isatty(i32 %call184) #10, !dbg !1112
  call void @_Z32__sanitizer_cov_trace_const_cmp4jj(i32 0, i32 %call185), !dbg !1112
  %tobool186 = icmp eq i32 %call185, 0, !dbg !1112
  br i1 %tobool186, label %if.end188, label %if.then187, !dbg !1113

if.then187:                                       ; preds = %if.then183
  call void @_Z24__sanitizer_cov_trace_pcv(), !dbg !1114
  call void asm sideeffect "", ""(), !dbg !1114
  tail call void @help(), !dbg !1114
  tail call void @exit(i32 0) #17, !dbg !1116
  unreachable, !dbg !1116

if.end188:                                        ; preds = %if.then183
  call void @_Z24__sanitizer_cov_trace_pcv(), !dbg !1117
  call void asm sideeffect "", ""(), !dbg !1117
  %33 = load i8*, i8** @input_buffer, align 8, !dbg !1117, !tbaa !953
  %tobool189 = icmp eq i8* %33, null, !dbg !1117
  br i1 %tobool189, label %if.end192, label %if.then190, !dbg !1119

if.then190:                                       ; preds = %if.end188
  call void @_Z24__sanitizer_cov_trace_pcv(), !dbg !1120
  call void asm sideeffect "", ""(), !dbg !1120
  %34 = load %struct._IO_FILE*, %struct._IO_FILE** @stdin, align 8, !dbg !1120, !tbaa !953
  %call191 = tail call i32 @setvbuf(%struct._IO_FILE* %34, i8* nonnull %33, i32 0, i64 262144) #10, !dbg !1121
  br label %if.end192, !dbg !1121

if.end192:                                        ; preds = %if.end188, %if.then190
  call void @_Z24__sanitizer_cov_trace_pcv(), !dbg !1122
  call void asm sideeffect "", ""(), !dbg !1122
  %35 = load %struct._IO_FILE*, %struct._IO_FILE** @stdin, align 8, !dbg !1122, !tbaa !953
  %call193 = tail call i32 @analyze_format(%struct._IO_FILE* %35) #10, !dbg !1123
  br label %cleanup, !dbg !1124

if.end194:                                        ; preds = %if.end180
  call void @_Z24__sanitizer_cov_trace_pcv(), !dbg !951
  call void asm sideeffect "", ""(), !dbg !951
  call void @llvm.dbg.value(metadata i32 0, metadata !896, metadata !DIExpression()), !dbg !951
  call void @llvm.dbg.value(metadata i32 %31, metadata !897, metadata !DIExpression()), !dbg !1125
  call void @llvm.dbg.value(metadata i32 0, metadata !900, metadata !DIExpression()), !dbg !933
  call void @_Z26__sanitizer_cov_trace_cmp4jj(i32 %31, i32 %argc), !dbg !1126
  %cmp195359 = icmp slt i32 %31, %argc, !dbg !1126
  br i1 %cmp195359, label %cond.true203.lr.ph, label %cleanup, !dbg !1127

cond.true203.lr.ph:                               ; preds = %if.end194
  call void @_Z24__sanitizer_cov_trace_pcv(), !dbg !1127
  call void asm sideeffect "", ""(), !dbg !1127
  %36 = sext i32 %31 to i64, !dbg !1127
  %37 = sext i32 %argc to i64, !dbg !1127
  br label %cond.true203, !dbg !1127

cond.true203:                                     ; preds = %cond.true203.lr.ph, %for.inc
  %indvars.iv = phi i64 [ %36, %cond.true203.lr.ph ], [ %indvars.iv.next, %for.inc ]
  %c.0362 = phi i32 [ 0, %cond.true203.lr.ph ], [ %c.1, %for.inc ]
  %stdin_processed.0360 = phi i32 [ 0, %cond.true203.lr.ph ], [ %stdin_processed.1, %for.inc ]
  call void @_Z24__sanitizer_cov_trace_pcv(), !dbg !1128
  call void asm sideeffect "", ""(), !dbg !1128
  call void @llvm.dbg.value(metadata i64 1, metadata !927, metadata !DIExpression()), !dbg !1128
  call void @llvm.dbg.value(metadata i32 %stdin_processed.0360, metadata !900, metadata !DIExpression()), !dbg !933
  call void @llvm.dbg.value(metadata i64 %indvars.iv, metadata !897, metadata !DIExpression()), !dbg !1125
  call void @llvm.dbg.value(metadata i32 %c.0362, metadata !896, metadata !DIExpression()), !dbg !951
  %arrayidx205 = getelementptr inbounds i8*, i8** %argv, i64 %indvars.iv, !dbg !1129
  %38 = load i8*, i8** %arrayidx205, align 8, !dbg !1129, !tbaa !953
  call void @llvm.dbg.value(metadata i8* %38, metadata !928, metadata !DIExpression()), !dbg !1129
  %39 = load i8, i8* %38, align 1, !dbg !1129, !tbaa !995
  call void @_Z32__sanitizer_cov_trace_const_cmp1hh(i8 45, i8 %39), !dbg !1130
  %cmp214 = icmp eq i8 %39, 45, !dbg !1130
  br i1 %cmp214, label %if.end243, label %if.else263, !dbg !1130

if.end243:                                        ; preds = %cond.true203
  call void @_Z24__sanitizer_cov_trace_pcv(), !dbg !1132
  call void asm sideeffect "", ""(), !dbg !1132
  %arrayidx218 = getelementptr inbounds i8, i8* %38, i64 1, !dbg !1132
  %40 = load i8, i8* %arrayidx218, align 1, !dbg !1132, !tbaa !995
  call void @_Z32__sanitizer_cov_trace_const_cmp1hh(i8 0, i8 %40), !dbg !1134
  %tobool252 = icmp eq i8 %40, 0, !dbg !1134
  br i1 %tobool252, label %if.then253, label %if.else263, !dbg !1135

if.then253:                                       ; preds = %if.end243
  call void @_Z24__sanitizer_cov_trace_pcv(), !dbg !1136
  call void asm sideeffect "", ""(), !dbg !1136
  call void @_Z32__sanitizer_cov_trace_const_cmp4jj(i32 0, i32 %stdin_processed.0360), !dbg !1136
  %tobool254 = icmp eq i32 %stdin_processed.0360, 0, !dbg !1136
  br i1 %tobool254, label %if.end257, label %if.then255, !dbg !1139

if.then255:                                       ; preds = %if.then253
  call void @_Z24__sanitizer_cov_trace_pcv(), !dbg !1140
  call void asm sideeffect "", ""(), !dbg !1140
  %41 = load %struct._IO_FILE*, %struct._IO_FILE** @stderr, align 8, !dbg !1140, !tbaa !953
  %42 = tail call i64 @fwrite(i8* getelementptr inbounds ([28 x i8], [28 x i8]* @.str.19, i64 0, i64 0), i64 27, i64 1, %struct._IO_FILE* %41) #16, !dbg !1142
  tail call void @exit(i32 1) #17, !dbg !1143
  unreachable, !dbg !1143

if.end257:                                        ; preds = %if.then253
  call void @_Z24__sanitizer_cov_trace_pcv(), !dbg !1144
  call void asm sideeffect "", ""(), !dbg !1144
  %43 = load i8*, i8** @input_buffer, align 8, !dbg !1144, !tbaa !953
  %tobool258 = icmp eq i8* %43, null, !dbg !1144
  br i1 %tobool258, label %if.end261, label %if.then259, !dbg !1146

if.then259:                                       ; preds = %if.end257
  call void @_Z24__sanitizer_cov_trace_pcv(), !dbg !1147
  call void asm sideeffect "", ""(), !dbg !1147
  %44 = load %struct._IO_FILE*, %struct._IO_FILE** @stdin, align 8, !dbg !1147, !tbaa !953
  %call260 = tail call i32 @setvbuf(%struct._IO_FILE* %44, i8* nonnull %43, i32 0, i64 262144) #10, !dbg !1148
  br label %if.end261, !dbg !1148

if.end261:                                        ; preds = %if.end257, %if.then259
  call void @_Z24__sanitizer_cov_trace_pcv(), !dbg !1149
  call void asm sideeffect "", ""(), !dbg !1149
  %45 = load %struct._IO_FILE*, %struct._IO_FILE** @stdin, align 8, !dbg !1149, !tbaa !953
  %call262 = tail call i32 @analyze_format(%struct._IO_FILE* %45) #10, !dbg !1150
  call void @llvm.dbg.value(metadata i32 1, metadata !900, metadata !DIExpression()), !dbg !933
  br label %for.inc, !dbg !1151

if.else263:                                       ; preds = %cond.true203, %if.end243
  call void @_Z24__sanitizer_cov_trace_pcv(), !dbg !1152
  call void asm sideeffect "", ""(), !dbg !1152
  %call266 = tail call %struct._IO_FILE* @fopen(i8* %38, i8* getelementptr inbounds ([3 x i8], [3 x i8]* @.str.20, i64 0, i64 0)), !dbg !1152
  call void @llvm.dbg.value(metadata %struct._IO_FILE* %call266, metadata !895, metadata !DIExpression()), !dbg !1154
  %tobool267 = icmp eq %struct._IO_FILE* %call266, null, !dbg !1155
  br i1 %tobool267, label %if.then268, label %if.end269, !dbg !1157

if.then268:                                       ; preds = %if.else263
  call void @_Z24__sanitizer_cov_trace_pcv(), !dbg !951
  call void asm sideeffect "", ""(), !dbg !951
  call void @llvm.dbg.value(metadata i32 1, metadata !896, metadata !DIExpression()), !dbg !951
  tail call void @perror(i8* getelementptr inbounds ([7 x i8], [7 x i8]* @.str.21, i64 0, i64 0)) #16, !dbg !1158
  br label %for.inc, !dbg !1160

if.end269:                                        ; preds = %if.else263
  call void @_Z24__sanitizer_cov_trace_pcv(), !dbg !1161
  call void asm sideeffect "", ""(), !dbg !1161
  %46 = load i8*, i8** @input_buffer, align 8, !dbg !1161, !tbaa !953
  %tobool270 = icmp eq i8* %46, null, !dbg !1161
  br i1 %tobool270, label %if.end278, label %if.then271, !dbg !1163

if.then271:                                       ; preds = %if.end269
  call void @_Z24__sanitizer_cov_trace_pcv(), !dbg !1164
  call void asm sideeffect "", ""(), !dbg !1164
  %call272 = tail call i32 @setvbuf(%struct._IO_FILE* nonnull %call266, i8* nonnull %46, i32 0, i64 262144) #10, !dbg !1164
  call void @_Z32__sanitizer_cov_trace_const_cmp4jj(i32 0, i32 %call272), !dbg !1164
  %tobool273 = icmp eq i32 %call272, 0, !dbg !1164
  br i1 %tobool273, label %if.end278, label %if.then274, !dbg !1167

if.then274:                                       ; preds = %if.then271
  call void @_Z24__sanitizer_cov_trace_pcv(), !dbg !1168
  call void asm sideeffect "", ""(), !dbg !1168
  %47 = load i8*, i8** %arrayidx205, align 8, !dbg !1168, !tbaa !953
  tail call void @perror(i8* %47) #16, !dbg !1170
  br label %if.end278, !dbg !1171

if.end278:                                        ; preds = %if.then271, %if.end269, %if.then274
  call void @_Z24__sanitizer_cov_trace_pcv(), !dbg !1172
  call void asm sideeffect "", ""(), !dbg !1172
  %call279 = tail call i32 @analyze_format(%struct._IO_FILE* nonnull %call266) #10, !dbg !1172
  call void @llvm.dbg.value(metadata i32 %call279, metadata !896, metadata !DIExpression()), !dbg !951
  %call280 = tail call i32 @fclose(%struct._IO_FILE* nonnull %call266), !dbg !1173
  br label %for.inc

for.inc:                                          ; preds = %if.end261, %if.end278, %if.then268
  %stdin_processed.1 = phi i32 [ %stdin_processed.0360, %if.end278 ], [ %stdin_processed.0360, %if.then268 ], [ 1, %if.end261 ]
  %c.1 = phi i32 [ %call279, %if.end278 ], [ 1, %if.then268 ], [ %c.0362, %if.end261 ]
  call void @_Z24__sanitizer_cov_trace_pcv(), !dbg !1174
  call void asm sideeffect "", ""(), !dbg !1174
  %indvars.iv.next = add nsw i64 %indvars.iv, 1, !dbg !1174
  call void @llvm.dbg.value(metadata i32 %c.1, metadata !896, metadata !DIExpression()), !dbg !951
  call void @llvm.dbg.value(metadata i32 %stdin_processed.1, metadata !900, metadata !DIExpression()), !dbg !933
  call void @_Z26__sanitizer_cov_trace_cmp8mm(i64 %indvars.iv.next, i64 %37), !dbg !1126
  %cmp195 = icmp slt i64 %indvars.iv.next, %37, !dbg !1126
  br i1 %cmp195, label %cond.true203, label %cleanup, !dbg !1127, !llvm.loop !1175

cleanup:                                          ; preds = %for.inc, %if.end194, %if.end192
  %retval.0 = phi i32 [ %call193, %if.end192 ], [ 0, %if.end194 ], [ %c.1, %for.inc ]
  call void @_Z24__sanitizer_cov_trace_pcv(), !dbg !1177
  call void asm sideeffect "", ""(), !dbg !1177
  ret i32 %retval.0, !dbg !1177
}

; Function Attrs: nounwind readnone speculatable
declare void @llvm.dbg.value(metadata, metadata, metadata) #5

; Function Attrs: nounwind uwtable
define void @read_config_file(i8* %filename) local_unnamed_addr #4 !dbg !1178 {
entry:
  call void @_Z24__sanitizer_cov_trace_pcv()
  call void asm sideeffect "", ""()
  %line = alloca [1024 x i8], align 16
  call void @llvm.dbg.value(metadata i8* %filename, metadata !1180, metadata !DIExpression()), !dbg !1287
  %call = tail call %struct._IO_FILE* @fopen(i8* %filename, i8* getelementptr inbounds ([3 x i8], [3 x i8]* @.str.1.145, i64 0, i64 0)), !dbg !1288
  call void @llvm.dbg.value(metadata %struct._IO_FILE* %call, metadata !1181, metadata !DIExpression()), !dbg !1289
  %0 = getelementptr inbounds [1024 x i8], [1024 x i8]* %line, i64 0, i64 0, !dbg !1290
  call void @llvm.lifetime.start.p0i8(i64 1024, i8* nonnull %0) #10, !dbg !1290
  call void @llvm.dbg.declare(metadata [1024 x i8]* %line, metadata !1224, metadata !DIExpression()), !dbg !1291
  call void @llvm.dbg.value(metadata i32 0, metadata !1229, metadata !DIExpression()), !dbg !1292
  %tobool = icmp eq %struct._IO_FILE* %call, null, !dbg !1293
  br i1 %tobool, label %cleanup, label %if.end, !dbg !1295

if.end:                                           ; preds = %entry
  call void @_Z24__sanitizer_cov_trace_pcv(), !dbg !1292
  call void asm sideeffect "", ""(), !dbg !1292
  call void @llvm.dbg.value(metadata i32 0, metadata !1229, metadata !DIExpression()), !dbg !1292
  %call1775 = call i32 @feof(%struct._IO_FILE* nonnull %call) #10, !dbg !1296
  call void @_Z32__sanitizer_cov_trace_const_cmp4jj(i32 0, i32 %call1775), !dbg !1297
  %tobool2776 = icmp eq i32 %call1775, 0, !dbg !1297
  br i1 %tobool2776, label %while.body.preheader, label %while.end545, !dbg !1298

while.body.preheader:                             ; preds = %if.end
  call void @_Z24__sanitizer_cov_trace_pcv(), !dbg !1299
  call void asm sideeffect "", ""(), !dbg !1299
  br label %while.body, !dbg !1299

while.body:                                       ; preds = %while.body.preheader, %while.cond.backedge
  %lineno.0777 = phi i32 [ %inc, %while.cond.backedge ], [ 0, %while.body.preheader ]
  call void @_Z24__sanitizer_cov_trace_pcv(), !dbg !1292
  call void asm sideeffect "", ""(), !dbg !1292
  call void @llvm.dbg.value(metadata i32 %lineno.0777, metadata !1229, metadata !DIExpression()), !dbg !1292
  %call3 = call i8* @fgets(i8* nonnull %0, i32 1024, %struct._IO_FILE* nonnull %call), !dbg !1299
  %call4 = call i32 @feof(%struct._IO_FILE* nonnull %call) #10, !dbg !1300
  call void @_Z32__sanitizer_cov_trace_const_cmp4jj(i32 0, i32 %call4), !dbg !1300
  %tobool5 = icmp eq i32 %call4, 0, !dbg !1300
  br i1 %tobool5, label %if.end7, label %while.end545, !dbg !1302

if.end7:                                          ; preds = %while.body
  call void @_Z24__sanitizer_cov_trace_pcv(), !dbg !1303
  call void asm sideeffect "", ""(), !dbg !1303
  %inc = add nuw nsw i32 %lineno.0777, 1, !dbg !1303
  %call9 = call i8* @strchr(i8* nonnull %0, i32 35) #10, !dbg !1304
  call void @llvm.dbg.value(metadata i8* %call9, metadata !1228, metadata !DIExpression()), !dbg !1306
  %tobool10 = icmp eq i8* %call9, null, !dbg !1307
  br i1 %tobool10, label %if.end12, label %if.then11, !dbg !1308

if.then11:                                        ; preds = %if.end7
  call void @_Z24__sanitizer_cov_trace_pcv(), !dbg !1309
  call void asm sideeffect "", ""(), !dbg !1309
  store i8 0, i8* %call9, align 1, !dbg !1309, !tbaa !995
  br label %if.end12, !dbg !1310

if.end12:                                         ; preds = %if.end7, %if.then11
  call void @_Z24__sanitizer_cov_trace_pcv(), !dbg !1311
  call void asm sideeffect "", ""(), !dbg !1311
  call void @llvm.dbg.value(metadata i8* %0, metadata !1222, metadata !DIExpression()), !dbg !1311
  %1 = load i8, i8* %0, align 16, !dbg !1312, !tbaa !995
  call void @_Z32__sanitizer_cov_trace_const_cmp1hh(i8 0, i8 %1), !dbg !1312
  %tobool15759 = icmp eq i8 %1, 0, !dbg !1312
  br i1 %tobool15759, label %while.cond.backedge, label %land.rhs.lr.ph, !dbg !1313

land.rhs.lr.ph:                                   ; preds = %if.end12
  call void @_Z24__sanitizer_cov_trace_pcv(), !dbg !1314
  call void asm sideeffect "", ""(), !dbg !1314
  %call16 = tail call i16** @__ctype_b_loc() #1, !dbg !1314
  %2 = load i16*, i16** %call16, align 8, !tbaa !953
  br label %land.rhs, !dbg !1313

land.rhs:                                         ; preds = %land.rhs.lr.ph, %while.body20
  %3 = phi i8 [ %1, %land.rhs.lr.ph ], [ %6, %while.body20 ]
  %name.0760 = phi i8* [ %0, %land.rhs.lr.ph ], [ %incdec.ptr, %while.body20 ]
  call void @_Z24__sanitizer_cov_trace_pcv(), !dbg !1311
  call void asm sideeffect "", ""(), !dbg !1311
  call void @llvm.dbg.value(metadata i8* %name.0760, metadata !1222, metadata !DIExpression()), !dbg !1311
  %idxprom = sext i8 %3 to i64, !dbg !1314
  %arrayidx = getelementptr inbounds i16, i16* %2, i64 %idxprom, !dbg !1314
  %4 = load i16, i16* %arrayidx, align 2, !dbg !1314, !tbaa !1315
  %5 = and i16 %4, 8192, !dbg !1314
  call void @_Z32__sanitizer_cov_trace_const_cmp2tt(i16 0, i16 %5), !dbg !1313
  %tobool19 = icmp eq i16 %5, 0, !dbg !1313
  br i1 %tobool19, label %land.rhs26.lr.ph, label %while.body20, !dbg !1317

while.body20:                                     ; preds = %land.rhs
  call void @_Z24__sanitizer_cov_trace_pcv(), !dbg !1318
  call void asm sideeffect "", ""(), !dbg !1318
  %incdec.ptr = getelementptr inbounds i8, i8* %name.0760, i64 1, !dbg !1318
  call void @llvm.dbg.value(metadata i8* %incdec.ptr, metadata !1222, metadata !DIExpression()), !dbg !1311
  %6 = load i8, i8* %incdec.ptr, align 1, !dbg !1312, !tbaa !995
  call void @_Z32__sanitizer_cov_trace_const_cmp1hh(i8 0, i8 %6), !dbg !1312
  %tobool15 = icmp eq i8 %6, 0, !dbg !1312
  br i1 %tobool15, label %while.cond.backedge, label %land.rhs, !dbg !1313, !llvm.loop !1319

while.cond.backedge:                              ; preds = %while.body20, %if.then146, %if.then258, %if.then370, %if.then531, %if.then520, %if.end456, %if.then314, %if.then202, %if.end12
  call void @_Z24__sanitizer_cov_trace_pcv(), !dbg !1292
  call void asm sideeffect "", ""(), !dbg !1292
  call void @llvm.dbg.value(metadata i32 %inc, metadata !1229, metadata !DIExpression()), !dbg !1292
  %call1 = call i32 @feof(%struct._IO_FILE* nonnull %call) #10, !dbg !1296
  call void @_Z32__sanitizer_cov_trace_const_cmp4jj(i32 0, i32 %call1), !dbg !1297
  %tobool2 = icmp eq i32 %call1, 0, !dbg !1297
  br i1 %tobool2, label %while.body, label %while.end545, !dbg !1298, !llvm.loop !1320

land.rhs26.lr.ph:                                 ; preds = %land.rhs
  call void @_Z24__sanitizer_cov_trace_pcv(), !dbg !1322
  call void asm sideeffect "", ""(), !dbg !1322
  call void @llvm.dbg.value(metadata i8* undef, metadata !1223, metadata !DIExpression()), !dbg !1322
  call void @llvm.dbg.value(metadata i8* %name.0760, metadata !1223, metadata !DIExpression()), !dbg !1322
  call void @llvm.dbg.value(metadata i8* %name.0760, metadata !1223, metadata !DIExpression()), !dbg !1322
  %7 = and i16 %4, 8, !dbg !1323
  call void @_Z32__sanitizer_cov_trace_const_cmp2tt(i16 0, i16 %7), !dbg !1323
  %tobool33862 = icmp ne i16 %7, 0, !dbg !1323
  call void @_Z32__sanitizer_cov_trace_const_cmp1hh(i8 95, i8 %3), !dbg !1326
  %cmp863 = icmp eq i8 %3, 95, !dbg !1326
  %or.cond864 = or i1 %cmp863, %tobool33862, !dbg !1327
  br i1 %or.cond864, label %for.inc.preheader, label %for.end, !dbg !1327

for.inc.preheader:                                ; preds = %land.rhs26.lr.ph
  call void @_Z24__sanitizer_cov_trace_pcv(), !dbg !1328
  call void asm sideeffect "", ""(), !dbg !1328
  br label %for.inc, !dbg !1328

for.end.thread:                                   ; preds = %for.inc
  call void @_Z24__sanitizer_cov_trace_pcv()
  call void asm sideeffect "", ""()
  store i8 0, i8* %incdec.ptr37, align 1, !tbaa !995
  %incdec.ptr42738 = getelementptr inbounds i8, i8* %value.0762865, i64 2
  call void @llvm.dbg.value(metadata i8* %incdec.ptr42, metadata !1223, metadata !DIExpression()), !dbg !1322
  br label %if.else, !dbg !1329

for.inc:                                          ; preds = %for.inc.preheader, %for.inc.land.rhs26_crit_edge
  %value.0762865 = phi i8* [ %incdec.ptr37, %for.inc.land.rhs26_crit_edge ], [ %name.0760, %for.inc.preheader ]
  call void @_Z24__sanitizer_cov_trace_pcv(), !dbg !1322
  call void asm sideeffect "", ""(), !dbg !1322
  call void @llvm.dbg.value(metadata i8* %value.0762865, metadata !1223, metadata !DIExpression()), !dbg !1322
  %incdec.ptr37 = getelementptr inbounds i8, i8* %value.0762865, i64 1, !dbg !1328
  %8 = load i8, i8* %incdec.ptr37, align 1, !dbg !1330, !tbaa !995
  call void @_Z32__sanitizer_cov_trace_const_cmp1hh(i8 0, i8 %8), !dbg !1330
  %tobool25 = icmp eq i8 %8, 0, !dbg !1330
  br i1 %tobool25, label %for.end.thread, label %for.inc.land.rhs26_crit_edge, !dbg !1331, !llvm.loop !1332

for.inc.land.rhs26_crit_edge:                     ; preds = %for.inc
  call void @_Z24__sanitizer_cov_trace_pcv()
  call void asm sideeffect "", ""()
  %idxprom29.phi.trans.insert = sext i8 %8 to i64
  %arrayidx30.phi.trans.insert = getelementptr inbounds i16, i16* %2, i64 %idxprom29.phi.trans.insert
  %.pre = load i16, i16* %arrayidx30.phi.trans.insert, align 2, !dbg !1323, !tbaa !1315
  call void @llvm.dbg.value(metadata i8* %incdec.ptr37, metadata !1223, metadata !DIExpression()), !dbg !1322
  %9 = and i16 %.pre, 8, !dbg !1323
  call void @_Z32__sanitizer_cov_trace_const_cmp2tt(i16 0, i16 %9), !dbg !1323
  %tobool33 = icmp ne i16 %9, 0, !dbg !1323
  call void @_Z32__sanitizer_cov_trace_const_cmp1hh(i8 95, i8 %8), !dbg !1326
  %cmp = icmp eq i8 %8, 95, !dbg !1326
  %or.cond = or i1 %cmp, %tobool33, !dbg !1327
  br i1 %or.cond, label %for.inc, label %for.end, !dbg !1327

for.end:                                          ; preds = %for.inc.land.rhs26_crit_edge, %land.rhs26.lr.ph
  %.lcssa846 = phi i8 [ %3, %land.rhs26.lr.ph ], [ %8, %for.inc.land.rhs26_crit_edge ]
  %value.0762.lcssa = phi i8* [ %name.0760, %land.rhs26.lr.ph ], [ %incdec.ptr37, %for.inc.land.rhs26_crit_edge ]
  call void @_Z24__sanitizer_cov_trace_pcv(), !dbg !1335
  call void asm sideeffect "", ""(), !dbg !1335
  call void @_Z32__sanitizer_cov_trace_const_cmp1hh(i8 61, i8 %.lcssa846), !dbg !1335
  %cmp39 = icmp eq i8 %.lcssa846, 61, !dbg !1335
  store i8 0, i8* %value.0762.lcssa, align 1, !tbaa !995
  %incdec.ptr42 = getelementptr inbounds i8, i8* %value.0762.lcssa, i64 1
  call void @llvm.dbg.value(metadata i8* %incdec.ptr42, metadata !1223, metadata !DIExpression()), !dbg !1322
  br i1 %cmp39, label %if.end81, label %if.else, !dbg !1329

if.else:                                          ; preds = %for.end.thread, %for.end
  %incdec.ptr42739 = phi i8* [ %incdec.ptr42738, %for.end.thread ], [ %incdec.ptr42, %for.end ]
  call void @_Z24__sanitizer_cov_trace_pcv(), !dbg !1322
  call void asm sideeffect "", ""(), !dbg !1322
  call void @llvm.dbg.value(metadata i8* %incdec.ptr42739, metadata !1223, metadata !DIExpression()), !dbg !1322
  %10 = load i8, i8* %incdec.ptr42739, align 1, !dbg !1337, !tbaa !995
  call void @_Z32__sanitizer_cov_trace_const_cmp1hh(i8 0, i8 %10), !dbg !1337
  %tobool46763 = icmp eq i8 %10, 0, !dbg !1337
  br i1 %tobool46763, label %if.then63, label %land.end55.lr.ph, !dbg !1339

land.end55.lr.ph:                                 ; preds = %if.else
  call void @_Z24__sanitizer_cov_trace_pcv()
  call void asm sideeffect "", ""()
  %11 = load i16*, i16** %call16, align 8, !tbaa !953
  br label %land.end55, !dbg !1339

while.cond44:                                     ; preds = %land.end55
  call void @_Z24__sanitizer_cov_trace_pcv(), !dbg !1322
  call void asm sideeffect "", ""(), !dbg !1322
  call void @llvm.dbg.value(metadata i8* %incdec.ptr57, metadata !1223, metadata !DIExpression()), !dbg !1322
  %12 = load i8, i8* %incdec.ptr57, align 1, !dbg !1337, !tbaa !995
  call void @_Z32__sanitizer_cov_trace_const_cmp1hh(i8 0, i8 %12), !dbg !1337
  %tobool46 = icmp eq i8 %12, 0, !dbg !1337
  br i1 %tobool46, label %if.then63, label %land.end55, !dbg !1339, !llvm.loop !1340

land.end55:                                       ; preds = %land.end55.lr.ph, %while.cond44
  %13 = phi i8 [ %10, %land.end55.lr.ph ], [ %12, %while.cond44 ]
  %value.1764 = phi i8* [ %incdec.ptr42739, %land.end55.lr.ph ], [ %incdec.ptr57, %while.cond44 ]
  call void @_Z24__sanitizer_cov_trace_pcv(), !dbg !1322
  call void asm sideeffect "", ""(), !dbg !1322
  call void @llvm.dbg.value(metadata i8* %value.1764, metadata !1223, metadata !DIExpression()), !dbg !1322
  %idxprom50 = sext i8 %13 to i64, !dbg !1343
  %arrayidx51 = getelementptr inbounds i16, i16* %11, i64 %idxprom50, !dbg !1343
  %14 = load i16, i16* %arrayidx51, align 2, !dbg !1343, !tbaa !1315
  %15 = and i16 %14, 8192, !dbg !1343
  call void @_Z32__sanitizer_cov_trace_const_cmp2tt(i16 0, i16 %15), !dbg !1339
  %tobool54 = icmp eq i16 %15, 0, !dbg !1339
  %incdec.ptr57 = getelementptr inbounds i8, i8* %value.1764, i64 1
  call void @llvm.dbg.value(metadata i8* %incdec.ptr57, metadata !1223, metadata !DIExpression()), !dbg !1322
  br i1 %tobool54, label %while.end58, label %while.cond44, !dbg !1341

while.end58:                                      ; preds = %land.end55
  call void @_Z24__sanitizer_cov_trace_pcv(), !dbg !1344
  call void asm sideeffect "", ""(), !dbg !1344
  call void @_Z32__sanitizer_cov_trace_const_cmp1hh(i8 61, i8 %13), !dbg !1344
  %cmp61 = icmp eq i8 %13, 61, !dbg !1344
  br i1 %cmp61, label %if.end65, label %if.then63, !dbg !1346

if.then63:                                        ; preds = %while.end58, %if.else, %while.cond44
  call void @_Z24__sanitizer_cov_trace_pcv(), !dbg !1347
  call void asm sideeffect "", ""(), !dbg !1347
  %16 = load %struct._IO_FILE*, %struct._IO_FILE** @stderr, align 8, !dbg !1347, !tbaa !953
  %call64 = call i32 (%struct._IO_FILE*, i8*, ...) @fprintf(%struct._IO_FILE* %16, i8* getelementptr inbounds ([44 x i8], [44 x i8]* @.str.2.146, i64 0, i64 0), i8* %filename, i32 %inc) #16, !dbg !1349
  call void @exit(i32 1) #17, !dbg !1350
  unreachable, !dbg !1350

if.end65:                                         ; preds = %while.end58
  call void @_Z24__sanitizer_cov_trace_pcv(), !dbg !1322
  call void asm sideeffect "", ""(), !dbg !1322
  call void @llvm.dbg.value(metadata i8* %incdec.ptr57, metadata !1223, metadata !DIExpression()), !dbg !1322
  %17 = load i8, i8* %incdec.ptr57, align 1, !dbg !1351, !tbaa !995
  call void @_Z32__sanitizer_cov_trace_const_cmp1hh(i8 0, i8 %17), !dbg !1351
  %tobool68767 = icmp eq i8 %17, 0, !dbg !1351
  br i1 %tobool68767, label %if.then101, label %land.rhs69.preheader, !dbg !1352

land.rhs69.preheader:                             ; preds = %if.end65
  call void @_Z24__sanitizer_cov_trace_pcv(), !dbg !1353
  call void asm sideeffect "", ""(), !dbg !1353
  br label %land.rhs69, !dbg !1353

land.rhs69:                                       ; preds = %land.rhs69.preheader, %while.body78
  %18 = phi i8 [ %21, %while.body78 ], [ %17, %land.rhs69.preheader ]
  %value.2768 = phi i8* [ %incdec.ptr79, %while.body78 ], [ %incdec.ptr57, %land.rhs69.preheader ]
  call void @_Z24__sanitizer_cov_trace_pcv(), !dbg !1322
  call void asm sideeffect "", ""(), !dbg !1322
  call void @llvm.dbg.value(metadata i8* %value.2768, metadata !1223, metadata !DIExpression()), !dbg !1322
  %idxprom72 = sext i8 %18 to i64, !dbg !1353
  %arrayidx73 = getelementptr inbounds i16, i16* %11, i64 %idxprom72, !dbg !1353
  %19 = load i16, i16* %arrayidx73, align 2, !dbg !1353, !tbaa !1315
  %20 = and i16 %19, 8192, !dbg !1353
  call void @_Z32__sanitizer_cov_trace_const_cmp2tt(i16 0, i16 %20), !dbg !1352
  %tobool76 = icmp eq i16 %20, 0, !dbg !1352
  br i1 %tobool76, label %land.rhs85.lr.ph, label %while.body78, !dbg !1354

while.body78:                                     ; preds = %land.rhs69
  call void @_Z24__sanitizer_cov_trace_pcv(), !dbg !1355
  call void asm sideeffect "", ""(), !dbg !1355
  %incdec.ptr79 = getelementptr inbounds i8, i8* %value.2768, i64 1, !dbg !1355
  call void @llvm.dbg.value(metadata i8* %incdec.ptr79, metadata !1223, metadata !DIExpression()), !dbg !1322
  %21 = load i8, i8* %incdec.ptr79, align 1, !dbg !1351, !tbaa !995
  call void @_Z32__sanitizer_cov_trace_const_cmp1hh(i8 0, i8 %21), !dbg !1351
  %tobool68 = icmp eq i8 %21, 0, !dbg !1351
  br i1 %tobool68, label %if.then101, label %land.rhs69, !dbg !1352, !llvm.loop !1356

if.end81:                                         ; preds = %for.end
  call void @_Z24__sanitizer_cov_trace_pcv(), !dbg !1357
  call void asm sideeffect "", ""(), !dbg !1357
  %.pre796 = load i8, i8* %incdec.ptr42, align 1, !dbg !1357, !tbaa !995
  call void @llvm.dbg.value(metadata i8* %incdec.ptr42, metadata !1223, metadata !DIExpression()), !dbg !1322
  call void @llvm.dbg.value(metadata i8* %incdec.ptr42, metadata !1228, metadata !DIExpression()), !dbg !1306
  call void @_Z32__sanitizer_cov_trace_const_cmp1hh(i8 0, i8 %.pre796), !dbg !1357
  %tobool84771 = icmp eq i8 %.pre796, 0, !dbg !1357
  br i1 %tobool84771, label %if.then101, label %land.rhs85.lr.ph, !dbg !1360

land.rhs85.lr.ph:                                 ; preds = %land.rhs69, %if.end81
  %value.3803 = phi i8* [ %incdec.ptr42, %if.end81 ], [ %value.2768, %land.rhs69 ]
  %22 = phi i8 [ %.pre796, %if.end81 ], [ %18, %land.rhs69 ]
  call void @_Z24__sanitizer_cov_trace_pcv()
  call void asm sideeffect "", ""()
  %23 = load i16*, i16** %call16, align 8, !tbaa !953
  br label %land.rhs85, !dbg !1360

land.rhs85:                                       ; preds = %land.rhs85.lr.ph, %for.inc96
  %24 = phi i8 [ %22, %land.rhs85.lr.ph ], [ %27, %for.inc96 ]
  %c.0772 = phi i8* [ %value.3803, %land.rhs85.lr.ph ], [ %incdec.ptr97, %for.inc96 ]
  call void @_Z24__sanitizer_cov_trace_pcv(), !dbg !1306
  call void asm sideeffect "", ""(), !dbg !1306
  call void @llvm.dbg.value(metadata i8* %c.0772, metadata !1228, metadata !DIExpression()), !dbg !1306
  %idxprom88 = sext i8 %24 to i64, !dbg !1361
  %arrayidx89 = getelementptr inbounds i16, i16* %23, i64 %idxprom88, !dbg !1361
  %25 = load i16, i16* %arrayidx89, align 2, !dbg !1361, !tbaa !1315
  %26 = and i16 %25, 8192, !dbg !1361
  call void @_Z32__sanitizer_cov_trace_const_cmp2tt(i16 0, i16 %26), !dbg !1362
  %tobool92 = icmp eq i16 %26, 0, !dbg !1362
  br i1 %tobool92, label %for.inc96, label %for.end98, !dbg !1363

for.inc96:                                        ; preds = %land.rhs85
  call void @_Z24__sanitizer_cov_trace_pcv(), !dbg !1364
  call void asm sideeffect "", ""(), !dbg !1364
  %incdec.ptr97 = getelementptr inbounds i8, i8* %c.0772, i64 1, !dbg !1364
  call void @llvm.dbg.value(metadata i8* %incdec.ptr97, metadata !1228, metadata !DIExpression()), !dbg !1306
  %27 = load i8, i8* %incdec.ptr97, align 1, !dbg !1357, !tbaa !995
  call void @_Z32__sanitizer_cov_trace_const_cmp1hh(i8 0, i8 %27), !dbg !1357
  %tobool84 = icmp eq i8 %27, 0, !dbg !1357
  br i1 %tobool84, label %for.end98, label %land.rhs85, !dbg !1360, !llvm.loop !1365

for.end98:                                        ; preds = %land.rhs85, %for.inc96
  %c.0.lcssa = phi i8* [ %c.0772, %land.rhs85 ], [ %incdec.ptr97, %for.inc96 ]
  call void @_Z24__sanitizer_cov_trace_pcv(), !dbg !1367
  call void asm sideeffect "", ""(), !dbg !1367
  %cmp99 = icmp eq i8* %value.3803, %c.0.lcssa, !dbg !1367
  br i1 %cmp99, label %if.then101, label %if.end103, !dbg !1369

if.then101:                                       ; preds = %if.end65, %if.end81, %for.end98, %while.body78
  call void @_Z24__sanitizer_cov_trace_pcv(), !dbg !1370
  call void asm sideeffect "", ""(), !dbg !1370
  %28 = load %struct._IO_FILE*, %struct._IO_FILE** @stderr, align 8, !dbg !1370, !tbaa !953
  %call102 = call i32 (%struct._IO_FILE*, i8*, ...) @fprintf(%struct._IO_FILE* %28, i8* getelementptr inbounds ([44 x i8], [44 x i8]* @.str.2.146, i64 0, i64 0), i8* %filename, i32 %inc) #16, !dbg !1372
  call void @exit(i32 1) #17, !dbg !1373
  unreachable, !dbg !1373

if.end103:                                        ; preds = %for.end98
  call void @_Z24__sanitizer_cov_trace_pcv(), !dbg !1374
  call void asm sideeffect "", ""(), !dbg !1374
  store i8 0, i8* %c.0.lcssa, align 1, !dbg !1374, !tbaa !995
  call void @llvm.dbg.value(metadata i64 14, metadata !1234, metadata !DIExpression()), !dbg !1375
  %29 = bitcast i8* %name.0760 to i64*, !dbg !1375
  call void @_Z28__sanitizer_cov_trace_strcmpPmS_(i64* %29, i64* bitcast ([15 x i8]* @.str.3.147 to i64*)), !dbg !1375
  %call144 = call i32 @strcmp(i8* %name.0760, i8* getelementptr inbounds ([15 x i8], [15 x i8]* @.str.3.147, i64 0, i64 0)) #10, !dbg !1375
  call void @_Z32__sanitizer_cov_trace_const_cmp4jj(i32 0, i32 %call144), !dbg !1376
  %tobool145 = icmp eq i32 %call144, 0, !dbg !1376
  br i1 %tobool145, label %if.then146, label %cond.end199, !dbg !1377

if.then146:                                       ; preds = %if.end103
  call void @_Z24__sanitizer_cov_trace_pcv(), !dbg !1378
  call void asm sideeffect "", ""(), !dbg !1378
  %call147 = call noalias i8* @__strdup(i8* %value.3803) #10, !dbg !1378
  store i8* %call147, i8** @source_csname, align 8, !dbg !1380, !tbaa !953
  br label %while.cond.backedge, !dbg !1381

cond.end199:                                      ; preds = %if.end103
  call void @_Z24__sanitizer_cov_trace_pcv(), !dbg !1382
  call void asm sideeffect "", ""(), !dbg !1382
  call void @llvm.dbg.value(metadata i64 14, metadata !1241, metadata !DIExpression()), !dbg !1382
  %30 = bitcast i8* %name.0760 to i64*, !dbg !1382
  call void @_Z28__sanitizer_cov_trace_strcmpPmS_(i64* %30, i64* bitcast ([15 x i8]* @.str.4.148 to i64*)), !dbg !1382
  %call198 = call i32 @strcmp(i8* %name.0760, i8* getelementptr inbounds ([15 x i8], [15 x i8]* @.str.4.148, i64 0, i64 0)) #10, !dbg !1382
  call void @_Z32__sanitizer_cov_trace_const_cmp4jj(i32 0, i32 %call198), !dbg !1383
  %tobool201 = icmp eq i32 %call198, 0, !dbg !1383
  br i1 %tobool201, label %if.then202, label %cond.end255, !dbg !1384

if.then202:                                       ; preds = %cond.end199
  call void @_Z24__sanitizer_cov_trace_pcv(), !dbg !1385
  call void asm sideeffect "", ""(), !dbg !1385
  %call203 = call noalias i8* @__strdup(i8* %value.3803) #10, !dbg !1385
  store i8* %call203, i8** @dest_csname, align 8, !dbg !1387, !tbaa !953
  br label %while.cond.backedge, !dbg !1388

cond.end255:                                      ; preds = %cond.end199
  call void @_Z24__sanitizer_cov_trace_pcv(), !dbg !1389
  call void asm sideeffect "", ""(), !dbg !1389
  call void @llvm.dbg.value(metadata i64 6, metadata !1248, metadata !DIExpression()), !dbg !1389
  %31 = bitcast i8* %name.0760 to i64*, !dbg !1389
  call void @_Z28__sanitizer_cov_trace_strcmpPmS_(i64* %31, i64* bitcast ([7 x i8]* @.str.5.149 to i64*)), !dbg !1389
  %call254 = call i32 @strcmp(i8* %name.0760, i8* getelementptr inbounds ([7 x i8], [7 x i8]* @.str.5.149, i64 0, i64 0)) #10, !dbg !1389
  call void @_Z32__sanitizer_cov_trace_const_cmp4jj(i32 0, i32 %call254), !dbg !1390
  %tobool257 = icmp eq i32 %call254, 0, !dbg !1390
  br i1 %tobool257, label %if.then258, label %cond.end311, !dbg !1391

if.then258:                                       ; preds = %cond.end255
  call void @_Z24__sanitizer_cov_trace_pcv(), !dbg !1392
  call void asm sideeffect "", ""(), !dbg !1392
  %call259 = call noalias i8* @__strdup(i8* %value.3803) #10, !dbg !1392
  store i8* %call259, i8** @format_name, align 8, !dbg !1394, !tbaa !953
  br label %while.cond.backedge, !dbg !1395

cond.end311:                                      ; preds = %cond.end255
  call void @_Z24__sanitizer_cov_trace_pcv(), !dbg !1396
  call void asm sideeffect "", ""(), !dbg !1396
  call void @llvm.dbg.value(metadata i64 12, metadata !1255, metadata !DIExpression()), !dbg !1396
  %32 = bitcast i8* %name.0760 to i64*, !dbg !1396
  call void @_Z28__sanitizer_cov_trace_strcmpPmS_(i64* %32, i64* bitcast ([13 x i8]* @.str.6.150 to i64*)), !dbg !1396
  %call310 = call i32 @strcmp(i8* %name.0760, i8* getelementptr inbounds ([13 x i8], [13 x i8]* @.str.6.150, i64 0, i64 0)) #10, !dbg !1396
  call void @_Z32__sanitizer_cov_trace_const_cmp4jj(i32 0, i32 %call310), !dbg !1397
  %tobool313 = icmp eq i32 %call310, 0, !dbg !1397
  br i1 %tobool313, label %if.then314, label %cond.end367, !dbg !1398

if.then314:                                       ; preds = %cond.end311
  call void @_Z24__sanitizer_cov_trace_pcv(), !dbg !1399
  call void asm sideeffect "", ""(), !dbg !1399
  %call315 = call noalias i8* @__strdup(i8* %value.3803) #10, !dbg !1399
  store i8* %call315, i8** @charset_path, align 8, !dbg !1401, !tbaa !953
  br label %while.cond.backedge, !dbg !1402

cond.end367:                                      ; preds = %cond.end311
  call void @_Z24__sanitizer_cov_trace_pcv(), !dbg !1403
  call void asm sideeffect "", ""(), !dbg !1403
  call void @llvm.dbg.value(metadata i64 8, metadata !1262, metadata !DIExpression()), !dbg !1403
  %33 = bitcast i8* %name.0760 to i64*, !dbg !1403
  call void @_Z28__sanitizer_cov_trace_strcmpPmS_(i64* %33, i64* bitcast ([9 x i8]* @.str.7.151 to i64*)), !dbg !1403
  %call366 = call i32 @strcmp(i8* %name.0760, i8* getelementptr inbounds ([9 x i8], [9 x i8]* @.str.7.151, i64 0, i64 0)) #10, !dbg !1403
  call void @_Z32__sanitizer_cov_trace_const_cmp4jj(i32 0, i32 %call366), !dbg !1404
  %tobool369 = icmp eq i32 %call366, 0, !dbg !1404
  br i1 %tobool369, label %if.then370, label %cond.end423, !dbg !1405

if.then370:                                       ; preds = %cond.end367
  call void @_Z24__sanitizer_cov_trace_pcv(), !dbg !1406
  call void asm sideeffect "", ""(), !dbg !1406
  %call371 = call noalias i8* @__strdup(i8* %value.3803) #10, !dbg !1406
  store i8* %call371, i8** @map_path, align 8, !dbg !1408, !tbaa !953
  br label %while.cond.backedge, !dbg !1409

cond.end423:                                      ; preds = %cond.end367
  call void @_Z24__sanitizer_cov_trace_pcv(), !dbg !1410
  call void asm sideeffect "", ""(), !dbg !1410
  call void @llvm.dbg.value(metadata i64 12, metadata !1269, metadata !DIExpression()), !dbg !1410
  %34 = bitcast i8* %name.0760 to i64*, !dbg !1410
  call void @_Z28__sanitizer_cov_trace_strcmpPmS_(i64* %34, i64* bitcast ([13 x i8]* @.str.8.152 to i64*)), !dbg !1410
  %call422 = call i32 @strcmp(i8* %name.0760, i8* getelementptr inbounds ([13 x i8], [13 x i8]* @.str.8.152, i64 0, i64 0)) #10, !dbg !1410
  call void @_Z32__sanitizer_cov_trace_const_cmp4jj(i32 0, i32 %call422), !dbg !1411
  %tobool425 = icmp eq i32 %call422, 0, !dbg !1411
  br i1 %tobool425, label %if.then426, label %cond.end508, !dbg !1412

if.then426:                                       ; preds = %cond.end423
  call void @_Z24__sanitizer_cov_trace_pcv(), !dbg !1413
  call void asm sideeffect "", ""(), !dbg !1413
  %35 = load i8, i8* %value.3803, align 1, !dbg !1413, !tbaa !995
  call void @_Z32__sanitizer_cov_trace_const_cmp1hh(i8 34, i8 %35), !dbg !1416
  %cmp428 = icmp eq i8 %35, 34, !dbg !1416
  br i1 %cmp428, label %land.lhs.true430, label %if.end441, !dbg !1417

land.lhs.true430:                                 ; preds = %if.then426
  call void @_Z24__sanitizer_cov_trace_pcv(), !dbg !1418
  call void asm sideeffect "", ""(), !dbg !1418
  %arrayidx431 = getelementptr inbounds i8, i8* %value.3803, i64 1, !dbg !1418
  %36 = load i8, i8* %arrayidx431, align 1, !dbg !1418, !tbaa !995
  call void @_Z32__sanitizer_cov_trace_const_cmp1hh(i8 0, i8 %36), !dbg !1418
  %tobool433 = icmp eq i8 %36, 0, !dbg !1418
  br i1 %tobool433, label %if.end456, label %land.lhs.true434, !dbg !1419

land.lhs.true434:                                 ; preds = %land.lhs.true430
  call void @_Z24__sanitizer_cov_trace_pcv(), !dbg !1420
  call void asm sideeffect "", ""(), !dbg !1420
  %arrayidx435 = getelementptr inbounds i8, i8* %value.3803, i64 2, !dbg !1420
  %37 = load i8, i8* %arrayidx435, align 1, !dbg !1420, !tbaa !995
  call void @_Z32__sanitizer_cov_trace_const_cmp1hh(i8 34, i8 %37), !dbg !1421
  %cmp437 = icmp eq i8 %37, 34, !dbg !1421
  %spec.select = select i1 %cmp437, i8* %arrayidx431, i8* %value.3803, !dbg !1422
  %.pr.pre = load i8, i8* %spec.select, align 1, !dbg !1423, !tbaa !995
  br label %if.end441, !dbg !1422

if.end441:                                        ; preds = %land.lhs.true434, %if.then426
  %38 = phi i8 [ %35, %if.then426 ], [ %.pr.pre, %land.lhs.true434 ], !dbg !1423
  %value.4 = phi i8* [ %value.3803, %if.then426 ], [ %spec.select, %land.lhs.true434 ]
  call void @_Z24__sanitizer_cov_trace_pcv(), !dbg !1322
  call void asm sideeffect "", ""(), !dbg !1322
  call void @llvm.dbg.value(metadata i8* %value.4, metadata !1223, metadata !DIExpression()), !dbg !1322
  call void @_Z32__sanitizer_cov_trace_const_cmp1hh(i8 39, i8 %38), !dbg !1425
  %cmp443 = icmp eq i8 %38, 39, !dbg !1425
  br i1 %cmp443, label %land.lhs.true445, label %if.end456, !dbg !1426

land.lhs.true445:                                 ; preds = %if.end441
  call void @_Z24__sanitizer_cov_trace_pcv(), !dbg !1427
  call void asm sideeffect "", ""(), !dbg !1427
  %arrayidx446 = getelementptr inbounds i8, i8* %value.4, i64 1, !dbg !1427
  %39 = load i8, i8* %arrayidx446, align 1, !dbg !1427, !tbaa !995
  call void @_Z32__sanitizer_cov_trace_const_cmp1hh(i8 0, i8 %39), !dbg !1427
  %tobool448 = icmp eq i8 %39, 0, !dbg !1427
  br i1 %tobool448, label %if.end456, label %land.lhs.true449, !dbg !1428

land.lhs.true449:                                 ; preds = %land.lhs.true445
  call void @_Z24__sanitizer_cov_trace_pcv(), !dbg !1429
  call void asm sideeffect "", ""(), !dbg !1429
  %arrayidx450 = getelementptr inbounds i8, i8* %value.4, i64 2, !dbg !1429
  %40 = load i8, i8* %arrayidx450, align 1, !dbg !1429, !tbaa !995
  call void @_Z32__sanitizer_cov_trace_const_cmp1hh(i8 39, i8 %40), !dbg !1430
  %cmp452 = icmp eq i8 %40, 39, !dbg !1430
  %spec.select736 = select i1 %cmp452, i8* %arrayidx446, i8* %value.4, !dbg !1431
  %.pre798 = load i8, i8* %spec.select736, align 1, !dbg !1432, !tbaa !995
  br label %if.end456, !dbg !1431

if.end456:                                        ; preds = %land.lhs.true430, %land.lhs.true449, %land.lhs.true445, %if.end441
  %41 = phi i8 [ 39, %land.lhs.true445 ], [ %38, %if.end441 ], [ %.pre798, %land.lhs.true449 ], [ 34, %land.lhs.true430 ], !dbg !1432
  call void @_Z24__sanitizer_cov_trace_pcv(), !dbg !1433
  call void asm sideeffect "", ""(), !dbg !1433
  store i8 %41, i8* getelementptr inbounds ([2 x i8], [2 x i8]* @bad_char, i64 0, i64 0), align 1, !dbg !1433, !tbaa !995
  br label %while.cond.backedge, !dbg !1434

cond.end508:                                      ; preds = %cond.end423
  call void @_Z24__sanitizer_cov_trace_pcv(), !dbg !1435
  call void asm sideeffect "", ""(), !dbg !1435
  call void @llvm.dbg.value(metadata i64 10, metadata !1276, metadata !DIExpression()), !dbg !1435
  %42 = bitcast i8* %name.0760 to i64*, !dbg !1435
  call void @_Z28__sanitizer_cov_trace_strcmpPmS_(i64* %42, i64* bitcast ([11 x i8]* @.str.9.153 to i64*)), !dbg !1435
  %call507 = call i32 @strcmp(i8* %name.0760, i8* getelementptr inbounds ([11 x i8], [11 x i8]* @.str.9.153, i64 0, i64 0)) #10, !dbg !1435
  call void @_Z32__sanitizer_cov_trace_const_cmp4jj(i32 0, i32 %call507), !dbg !1436
  %tobool510 = icmp eq i32 %call507, 0, !dbg !1436
  br i1 %tobool510, label %if.then511, label %if.else536, !dbg !1437

if.then511:                                       ; preds = %cond.end508
  call void @_Z24__sanitizer_cov_trace_pcv(), !dbg !1438
  call void asm sideeffect "", ""(), !dbg !1438
  %call512 = tail call i32** @__ctype_tolower_loc() #1, !dbg !1438
  %43 = load i32*, i32** %call512, align 8, !dbg !1438, !tbaa !953
  %44 = load i8, i8* %value.3803, align 1, !dbg !1438, !tbaa !995
  %idxprom515 = sext i8 %44 to i64, !dbg !1438
  %arrayidx516 = getelementptr inbounds i32, i32* %43, i64 %idxprom515, !dbg !1438
  %45 = load i32, i32* %arrayidx516, align 4, !dbg !1438, !tbaa !959
  call void @llvm.dbg.value(metadata i32 %45, metadata !1280, metadata !DIExpression()), !dbg !1440
  %46 = zext i32 %45 to i64, !dbg !1441
  call void @_Z28__sanitizer_cov_trace_switchmPm(i64 %46, i64* getelementptr inbounds ([4 x i64], [4 x i64]* @__sancov_gen_cov_switch_values.1, i32 0, i32 0)), !dbg !1441
  switch i32 %45, label %if.else532 [
    i32 110, label %if.then520
    i32 121, label %if.then531
  ], !dbg !1441

if.then520:                                       ; preds = %if.then511
  call void @_Z24__sanitizer_cov_trace_pcv()
  call void asm sideeffect "", ""()
  store i1 true, i1* @runtime_locale_check, align 4
  br label %while.cond.backedge, !dbg !1442

if.then531:                                       ; preds = %if.then511
  call void @_Z24__sanitizer_cov_trace_pcv()
  call void asm sideeffect "", ""()
  store i1 false, i1* @runtime_locale_check, align 4
  br label %while.cond.backedge

if.else532:                                       ; preds = %if.then511
  call void @_Z24__sanitizer_cov_trace_pcv(), !dbg !1444
  call void asm sideeffect "", ""(), !dbg !1444
  %47 = load %struct._IO_FILE*, %struct._IO_FILE** @stderr, align 8, !dbg !1444, !tbaa !953
  %call533 = call i32 (%struct._IO_FILE*, i8*, ...) @fprintf(%struct._IO_FILE* %47, i8* getelementptr inbounds ([49 x i8], [49 x i8]* @.str.10.154, i64 0, i64 0), i8* %filename, i32 %inc) #16, !dbg !1446
  call void @exit(i32 1) #17, !dbg !1447
  unreachable, !dbg !1447

if.else536:                                       ; preds = %cond.end508
  call void @_Z24__sanitizer_cov_trace_pcv(), !dbg !1448
  call void asm sideeffect "", ""(), !dbg !1448
  %48 = load %struct._IO_FILE*, %struct._IO_FILE** @stderr, align 8, !dbg !1448, !tbaa !953
  %call537 = call i32 (%struct._IO_FILE*, i8*, ...) @fprintf(%struct._IO_FILE* %48, i8* getelementptr inbounds ([52 x i8], [52 x i8]* @.str.11.155, i64 0, i64 0), i8* %filename, i32 %inc, i8* %name.0760, i8* %value.3803) #16, !dbg !1450
  call void @exit(i32 1) #17, !dbg !1451
  unreachable, !dbg !1451

while.end545:                                     ; preds = %while.cond.backedge, %while.body, %if.end
  call void @_Z24__sanitizer_cov_trace_pcv(), !dbg !1452
  call void asm sideeffect "", ""(), !dbg !1452
  %call546 = call i32 @fclose(%struct._IO_FILE* nonnull %call), !dbg !1452
  br label %cleanup, !dbg !1453

cleanup:                                          ; preds = %entry, %while.end545
  call void @_Z24__sanitizer_cov_trace_pcv(), !dbg !1453
  call void asm sideeffect "", ""(), !dbg !1453
  call void @llvm.lifetime.end.p0i8(i64 1024, i8* nonnull %0) #10, !dbg !1453
  ret void, !dbg !1453
}

; Function Attrs: nounwind
declare noalias i8* @malloc(i64) local_unnamed_addr #6

; Function Attrs: argmemonly nounwind
declare void @llvm.memcpy.p0i8.p0i8.i64(i8* nocapture writeonly, i8* nocapture readonly, i64, i32, i1) #7

; Function Attrs: nounwind readonly
declare i8* @getenv(i8* nocapture) local_unnamed_addr #8

; Function Attrs: nounwind uwtable
define noalias i8* @find_file(i8* nocapture %name, i8* %path) local_unnamed_addr #4 !dbg !1454 {
entry:
  call void @_Z24__sanitizer_cov_trace_pcv()
  call void asm sideeffect "", ""()
  %path_buf = alloca [1024 x i8], align 16
  %dir_sep = alloca i16, align 2
  call void @llvm.dbg.value(metadata i8* %name, metadata !1458, metadata !DIExpression()), !dbg !1464
  call void @llvm.dbg.value(metadata i8* %path, metadata !1459, metadata !DIExpression()), !dbg !1465
  %0 = getelementptr inbounds [1024 x i8], [1024 x i8]* %path_buf, i64 0, i64 0, !dbg !1466
  call void @llvm.lifetime.start.p0i8(i64 1024, i8* nonnull %0) #10, !dbg !1466
  call void @llvm.dbg.declare(metadata [1024 x i8]* %path_buf, metadata !1462, metadata !DIExpression()), !dbg !1467
  %1 = bitcast i16* %dir_sep to i8*, !dbg !1468
  call void @llvm.lifetime.start.p0i8(i64 2, i8* nonnull %1) #10, !dbg !1468
  call void @llvm.dbg.value(metadata i16 47, metadata !1463, metadata !DIExpression()), !dbg !1469
  store i16 47, i16* %dir_sep, align 2, !dbg !1469
  call void @llvm.dbg.value(metadata i8* %path, metadata !1460, metadata !DIExpression()), !dbg !1470
  %tobool48 = icmp eq i8* %path, null, !dbg !1471
  br i1 %tobool48, label %for.end, label %for.body.preheader, !dbg !1471

for.body.preheader:                               ; preds = %entry
  call void @_Z24__sanitizer_cov_trace_pcv(), !dbg !1473
  call void asm sideeffect "", ""(), !dbg !1473
  br label %for.body, !dbg !1473

for.cond.backedge:                                ; preds = %for.inc, %if.then
  call void @_Z24__sanitizer_cov_trace_pcv(), !dbg !1476
  call void asm sideeffect "", ""(), !dbg !1476
  %add.ptr3047 = getelementptr inbounds i8, i8* %call, i64 1, !dbg !1476
  call void @llvm.dbg.value(metadata i8* %add.ptr3047, metadata !1460, metadata !DIExpression()), !dbg !1470
  br label %for.body

for.body:                                         ; preds = %for.body.preheader, %for.cond.backedge
  %p.049 = phi i8* [ %add.ptr3047, %for.cond.backedge ], [ %path, %for.body.preheader ]
  call void @_Z24__sanitizer_cov_trace_pcv(), !dbg !1470
  call void asm sideeffect "", ""(), !dbg !1470
  call void @llvm.dbg.value(metadata i8* %p.049, metadata !1460, metadata !DIExpression()), !dbg !1470
  %call = call i8* @strchr(i8* nonnull %p.049, i32 58) #10, !dbg !1473
  call void @llvm.dbg.value(metadata i8* %call, metadata !1461, metadata !DIExpression()), !dbg !1477
  %tobool1 = icmp ne i8* %call, null, !dbg !1478
  br i1 %tobool1, label %if.then, label %if.else, !dbg !1480

if.then:                                          ; preds = %for.body
  call void @_Z24__sanitizer_cov_trace_pcv(), !dbg !1481
  call void asm sideeffect "", ""(), !dbg !1481
  %call2 = call i32 @prepare_path_buf(i8* nonnull %0, i8* nonnull %p.049, i8* nonnull %call), !dbg !1481
  call void @_Z32__sanitizer_cov_trace_const_cmp4jj(i32 0, i32 %call2), !dbg !1481
  %tobool3 = icmp eq i32 %call2, 0, !dbg !1481
  br i1 %tobool3, label %for.cond.backedge, label %if.end11, !dbg !1484

if.else:                                          ; preds = %for.body
  call void @_Z24__sanitizer_cov_trace_pcv(), !dbg !1485
  call void asm sideeffect "", ""(), !dbg !1485
  %call6 = call i64 @strlen(i8* nonnull %p.049) #18, !dbg !1485
  %add.ptr = getelementptr inbounds i8, i8* %p.049, i64 %call6, !dbg !1488
  %call7 = call i32 @prepare_path_buf(i8* nonnull %0, i8* nonnull %p.049, i8* nonnull %add.ptr), !dbg !1489
  call void @_Z32__sanitizer_cov_trace_const_cmp4jj(i32 0, i32 %call7), !dbg !1489
  %tobool8 = icmp eq i32 %call7, 0, !dbg !1489
  br i1 %tobool8, label %for.end, label %if.end11, !dbg !1490

if.end11:                                         ; preds = %if.then, %if.else
  call void @_Z24__sanitizer_cov_trace_pcv(), !dbg !1491
  call void asm sideeffect "", ""(), !dbg !1491
  %call14 = call i8* @strcat(i8* nonnull %0, i8* nonnull %1) #10, !dbg !1491
  %call16 = call i64 @strlen(i8* nonnull %0) #18, !dbg !1492
  %call17 = call i64 @strlen(i8* %name) #18, !dbg !1494
  %add = add i64 %call17, %call16, !dbg !1495
  call void @_Z32__sanitizer_cov_trace_const_cmp8mm(i64 1023, i64 %add), !dbg !1496
  %cmp = icmp ugt i64 %add, 1023, !dbg !1496
  br i1 %cmp, label %for.inc, label %if.end19, !dbg !1497

if.end19:                                         ; preds = %if.end11
  call void @_Z24__sanitizer_cov_trace_pcv(), !dbg !1498
  call void asm sideeffect "", ""(), !dbg !1498
  %call21 = call i8* @strcat(i8* nonnull %0, i8* %name) #10, !dbg !1498
  %call23 = call i32 @access(i8* nonnull %0, i32 0) #10, !dbg !1499
  call void @_Z32__sanitizer_cov_trace_const_cmp4jj(i32 0, i32 %call23), !dbg !1501
  %cmp24 = icmp eq i32 %call23, 0, !dbg !1501
  br i1 %cmp24, label %if.then25, label %for.inc, !dbg !1502

if.then25:                                        ; preds = %if.end19
  call void @_Z24__sanitizer_cov_trace_pcv(), !dbg !1503
  call void asm sideeffect "", ""(), !dbg !1503
  call void @free(i8* %name) #10, !dbg !1503
  %call27 = call noalias i8* @__strdup(i8* nonnull %0) #10, !dbg !1505
  br label %cleanup, !dbg !1506

for.inc:                                          ; preds = %if.end19, %if.end11
  call void @_Z24__sanitizer_cov_trace_pcv()
  call void asm sideeffect "", ""()
  br i1 %tobool1, label %for.cond.backedge, label %for.end

for.end:                                          ; preds = %if.else, %for.inc, %entry
  call void @_Z24__sanitizer_cov_trace_pcv(), !dbg !1507
  call void asm sideeffect "", ""(), !dbg !1507
  call void @free(i8* %name) #10, !dbg !1507
  br label %cleanup, !dbg !1508

cleanup:                                          ; preds = %for.end, %if.then25
  %retval.0 = phi i8* [ %call27, %if.then25 ], [ null, %for.end ]
  call void @_Z24__sanitizer_cov_trace_pcv(), !dbg !1509
  call void asm sideeffect "", ""(), !dbg !1509
  call void @llvm.lifetime.end.p0i8(i64 2, i8* nonnull %1) #10, !dbg !1509
  call void @llvm.lifetime.end.p0i8(i64 1024, i8* nonnull %0) #10, !dbg !1509
  ret i8* %retval.0, !dbg !1509
}

; Function Attrs: nounwind
declare void @free(i8* nocapture) local_unnamed_addr #6

; Function Attrs: nounwind uwtable
define void @get_locale_charset() local_unnamed_addr #4 !dbg !1510 {
entry:
  call void @_Z24__sanitizer_cov_trace_pcv()
  call void asm sideeffect "", ""()
  %.b = load i1, i1* @runtime_locale_check, align 4
  br i1 %.b, label %cleanup, label %if.end, !dbg !1575

if.end:                                           ; preds = %entry
  call void @_Z24__sanitizer_cov_trace_pcv(), !dbg !1576
  call void asm sideeffect "", ""(), !dbg !1576
  %call = tail call i8* @setlocale(i32 0, i8* getelementptr inbounds ([1 x i8], [1 x i8]* @.str.12.158, i64 0, i64 0)) #10, !dbg !1576
  %tobool1 = icmp eq i8* %call, null, !dbg !1576
  br i1 %tobool1, label %cleanup, label %if.end3, !dbg !1578

if.end3:                                          ; preds = %if.end
  call void @_Z24__sanitizer_cov_trace_pcv(), !dbg !1579
  call void asm sideeffect "", ""(), !dbg !1579
  %call4 = tail call i8* @nl_langinfo(i32 14) #10, !dbg !1579
  call void @llvm.dbg.value(metadata i8* %call4, metadata !1514, metadata !DIExpression()), !dbg !1580
  %call45 = tail call i32 @strncmp(i8* %call4, i8* getelementptr inbounds ([4 x i8], [4 x i8]* @.str.13.159, i64 0, i64 0), i64 3) #18, !dbg !1581
  call void @_Z32__sanitizer_cov_trace_const_cmp4jj(i32 0, i32 %call45), !dbg !1581
  %tobool46 = icmp eq i32 %call45, 0, !dbg !1581
  br i1 %tobool46, label %if.then104, label %cond.false101, !dbg !1582

cond.false101:                                    ; preds = %if.end3
  call void @_Z24__sanitizer_cov_trace_pcv(), !dbg !1583
  call void asm sideeffect "", ""(), !dbg !1583
  %call102 = tail call i32 @strncmp(i8* %call4, i8* getelementptr inbounds ([4 x i8], [4 x i8]* @.str.14.160, i64 0, i64 0), i64 3) #18, !dbg !1583
  call void @_Z32__sanitizer_cov_trace_const_cmp4jj(i32 0, i32 %call102), !dbg !1583
  %tobool103 = icmp eq i32 %call102, 0, !dbg !1583
  br i1 %tobool103, label %if.then104, label %cond.end225, !dbg !1584

if.then104:                                       ; preds = %cond.false101, %if.end3
  call void @_Z24__sanitizer_cov_trace_pcv(), !dbg !1585
  call void asm sideeffect "", ""(), !dbg !1585
  %add.ptr = getelementptr inbounds i8, i8* %call4, i64 3, !dbg !1585
  call void @llvm.dbg.value(metadata i8* %add.ptr, metadata !1514, metadata !DIExpression()), !dbg !1580
  %0 = load i8, i8* %add.ptr, align 1, !dbg !1586, !tbaa !995
  call void @_Z32__sanitizer_cov_trace_const_cmp1hh(i8 45, i8 %0), !dbg !1588
  %cmp106 = icmp eq i8 %0, 45, !dbg !1588
  %incdec.ptr = getelementptr inbounds i8, i8* %call4, i64 4, !dbg !1589
  %spec.select = select i1 %cmp106, i8* %incdec.ptr, i8* %add.ptr, !dbg !1590
  call void @llvm.dbg.value(metadata i8* %spec.select, metadata !1514, metadata !DIExpression()), !dbg !1580
  %call165 = tail call i32 @strncmp(i8* nonnull %spec.select, i8* getelementptr inbounds ([4 x i8], [4 x i8]* @.str.15.161, i64 0, i64 0), i64 3) #18, !dbg !1591
  call void @_Z32__sanitizer_cov_trace_const_cmp4jj(i32 0, i32 %call165), !dbg !1591
  %tobool166 = icmp eq i32 %call165, 0, !dbg !1591
  br i1 %tobool166, label %if.then167, label %if.else, !dbg !1592

if.then167:                                       ; preds = %if.then104
  call void @_Z24__sanitizer_cov_trace_pcv(), !dbg !1593
  call void asm sideeffect "", ""(), !dbg !1593
  %call168 = tail call i32 @check_charset(i8** nonnull @dest_csname, i8* getelementptr inbounds ([9 x i8], [9 x i8]* @.str.16.162, i64 0, i64 0)) #10, !dbg !1593
  br label %cleanup, !dbg !1595

if.else:                                          ; preds = %if.then104
  call void @_Z24__sanitizer_cov_trace_pcv(), !dbg !1596
  call void asm sideeffect "", ""(), !dbg !1596
  %call169 = tail call i32 @check_charset(i8** nonnull @dest_csname, i8* nonnull %spec.select) #10, !dbg !1596
  call void @_Z32__sanitizer_cov_trace_const_cmp4jj(i32 0, i32 %call169), !dbg !1596
  %tobool170 = icmp eq i32 %call169, 0, !dbg !1596
  br i1 %tobool170, label %cleanup, label %if.then171, !dbg !1599

if.then171:                                       ; preds = %if.else
  call void @_Z24__sanitizer_cov_trace_pcv(), !dbg !1600
  call void asm sideeffect "", ""(), !dbg !1600
  %1 = load i64, i64* bitcast (i8** @dest_csname to i64*), align 8, !dbg !1600, !tbaa !953
  store i64 %1, i64* bitcast (i8** @locale_charset to i64*), align 8, !dbg !1602, !tbaa !953
  br label %cleanup, !dbg !1603

cond.end225:                                      ; preds = %cond.false101
  call void @_Z24__sanitizer_cov_trace_pcv(), !dbg !1604
  call void asm sideeffect "", ""(), !dbg !1604
  call void @llvm.dbg.value(metadata i64 14, metadata !1539, metadata !DIExpression()), !dbg !1604
  %2 = bitcast i8* %call4 to i64*, !dbg !1604
  call void @_Z28__sanitizer_cov_trace_strcmpPmS_(i64* %2, i64* bitcast ([15 x i8]* @.str.17.163 to i64*)), !dbg !1604
  %call224 = tail call i32 @strcmp(i8* %call4, i8* getelementptr inbounds ([15 x i8], [15 x i8]* @.str.17.163, i64 0, i64 0)) #10, !dbg !1604
  call void @_Z32__sanitizer_cov_trace_const_cmp4jj(i32 0, i32 %call224), !dbg !1605
  %tobool227 = icmp eq i32 %call224, 0, !dbg !1605
  br i1 %tobool227, label %if.then228, label %cond.false285, !dbg !1606

if.then228:                                       ; preds = %cond.end225
  call void @_Z24__sanitizer_cov_trace_pcv(), !dbg !1607
  call void asm sideeffect "", ""(), !dbg !1607
  %call229 = tail call i32 @check_charset(i8** nonnull @dest_csname, i8* getelementptr inbounds ([9 x i8], [9 x i8]* @.str.16.162, i64 0, i64 0)) #10, !dbg !1607
  br label %cleanup, !dbg !1609

cond.false285:                                    ; preds = %cond.end225
  call void @_Z24__sanitizer_cov_trace_pcv(), !dbg !1610
  call void asm sideeffect "", ""(), !dbg !1610
  %call286 = tail call i32 @strncmp(i8* %call4, i8* getelementptr inbounds ([5 x i8], [5 x i8]* @.str.18.164, i64 0, i64 0), i64 4) #18, !dbg !1610
  call void @_Z32__sanitizer_cov_trace_const_cmp4jj(i32 0, i32 %call286), !dbg !1610
  %tobool287 = icmp eq i32 %call286, 0, !dbg !1610
  br i1 %tobool287, label %if.then346, label %cond.false343, !dbg !1611

cond.false343:                                    ; preds = %cond.false285
  call void @_Z24__sanitizer_cov_trace_pcv(), !dbg !1612
  call void asm sideeffect "", ""(), !dbg !1612
  %call344 = tail call i32 @strncmp(i8* %call4, i8* getelementptr inbounds ([5 x i8], [5 x i8]* @.str.19.165, i64 0, i64 0), i64 4) #18, !dbg !1612
  call void @_Z32__sanitizer_cov_trace_const_cmp4jj(i32 0, i32 %call344), !dbg !1612
  %tobool345 = icmp eq i32 %call344, 0, !dbg !1612
  br i1 %tobool345, label %if.then346, label %cond.false420, !dbg !1613

if.then346:                                       ; preds = %cond.false343, %cond.false285
  call void @_Z24__sanitizer_cov_trace_pcv(), !dbg !1614
  call void asm sideeffect "", ""(), !dbg !1614
  %3 = load i8, i8* %call4, align 1, !dbg !1614, !tbaa !995
  call void @_Z32__sanitizer_cov_trace_const_cmp1hh(i8 45, i8 %3), !dbg !1616
  %cmp348 = icmp eq i8 %3, 45, !dbg !1616
  %incdec.ptr351 = getelementptr inbounds i8, i8* %call4, i64 1, !dbg !1617
  %spec.select513 = select i1 %cmp348, i8* %incdec.ptr351, i8* %call4, !dbg !1619
  call void @llvm.dbg.value(metadata i8* %spec.select513, metadata !1514, metadata !DIExpression()), !dbg !1580
  %call353 = tail call i64 @strlen(i8* %spec.select513) #18, !dbg !1620
  %add355 = add i64 %call353, -1, !dbg !1621
  %call356 = tail call noalias i8* @malloc(i64 %add355) #10, !dbg !1622
  call void @llvm.dbg.value(metadata i8* %call356, metadata !1556, metadata !DIExpression()), !dbg !1623
  tail call void @llvm.memcpy.p0i8.p0i8.i64(i8* %call356, i8* getelementptr inbounds ([3 x i8], [3 x i8]* @.str.20.166, i64 0, i64 0), i64 3, i32 1, i1 false), !dbg !1624
  %add.ptr358 = getelementptr inbounds i8, i8* %call356, i64 2, !dbg !1625
  %add.ptr359 = getelementptr inbounds i8, i8* %spec.select513, i64 4, !dbg !1626
  %call360 = tail call i8* @strcpy(i8* nonnull %add.ptr358, i8* nonnull %add.ptr359) #10, !dbg !1627
  %call361 = tail call i32 @check_charset(i8** nonnull @dest_csname, i8* %call356) #10, !dbg !1628
  call void @_Z32__sanitizer_cov_trace_const_cmp4jj(i32 0, i32 %call361), !dbg !1628
  %tobool362 = icmp eq i32 %call361, 0, !dbg !1628
  br i1 %tobool362, label %if.end364, label %if.then363, !dbg !1630

if.then363:                                       ; preds = %if.then346
  call void @_Z24__sanitizer_cov_trace_pcv(), !dbg !1631
  call void asm sideeffect "", ""(), !dbg !1631
  %4 = load i64, i64* bitcast (i8** @dest_csname to i64*), align 8, !dbg !1631, !tbaa !953
  store i64 %4, i64* bitcast (i8** @locale_charset to i64*), align 8, !dbg !1633, !tbaa !953
  br label %if.end364, !dbg !1634

if.end364:                                        ; preds = %if.then346, %if.then363
  call void @_Z24__sanitizer_cov_trace_pcv(), !dbg !1635
  call void asm sideeffect "", ""(), !dbg !1635
  tail call void @free(i8* %call356) #10, !dbg !1635
  br label %cleanup, !dbg !1636

cond.false420:                                    ; preds = %cond.false343
  call void @_Z24__sanitizer_cov_trace_pcv(), !dbg !1637
  call void asm sideeffect "", ""(), !dbg !1637
  %call421 = tail call i32 @strncmp(i8* %call4, i8* getelementptr inbounds ([4 x i8], [4 x i8]* @.str.21.167, i64 0, i64 0), i64 3) #18, !dbg !1637
  call void @_Z32__sanitizer_cov_trace_const_cmp4jj(i32 0, i32 %call421), !dbg !1637
  %tobool422 = icmp eq i32 %call421, 0, !dbg !1637
  br i1 %tobool422, label %if.then423, label %if.else443, !dbg !1638

if.then423:                                       ; preds = %cond.false420
  call void @_Z24__sanitizer_cov_trace_pcv(), !dbg !1639
  call void asm sideeffect "", ""(), !dbg !1639
  %add.ptr425 = getelementptr inbounds i8, i8* %call4, i64 3, !dbg !1639
  call void @llvm.dbg.value(metadata i8* %add.ptr425, metadata !1514, metadata !DIExpression()), !dbg !1580
  %5 = load i8, i8* %add.ptr425, align 1, !dbg !1640, !tbaa !995
  call void @_Z32__sanitizer_cov_trace_const_cmp1hh(i8 45, i8 %5), !dbg !1642
  %cmp427 = icmp eq i8 %5, 45, !dbg !1642
  %incdec.ptr430 = getelementptr inbounds i8, i8* %call4, i64 4, !dbg !1643
  %spec.select514 = select i1 %cmp427, i8* %incdec.ptr430, i8* %add.ptr425, !dbg !1644
  call void @llvm.dbg.value(metadata i8* %spec.select514, metadata !1514, metadata !DIExpression()), !dbg !1580
  %call432 = tail call i64 @strlen(i8* nonnull %spec.select514) #18, !dbg !1645
  %add434 = add i64 %call432, 3, !dbg !1646
  %call435 = tail call noalias i8* @malloc(i64 %add434) #10, !dbg !1647
  call void @llvm.dbg.value(metadata i8* %call435, metadata !1565, metadata !DIExpression()), !dbg !1648
  tail call void @llvm.memcpy.p0i8.p0i8.i64(i8* %call435, i8* getelementptr inbounds ([3 x i8], [3 x i8]* @.str.20.166, i64 0, i64 0), i64 3, i32 1, i1 false), !dbg !1649
  %add.ptr437 = getelementptr inbounds i8, i8* %call435, i64 2, !dbg !1650
  %call438 = tail call i8* @strcpy(i8* nonnull %add.ptr437, i8* nonnull %spec.select514) #10, !dbg !1651
  %call439 = tail call i32 @check_charset(i8** nonnull @dest_csname, i8* %call435) #10, !dbg !1652
  call void @_Z32__sanitizer_cov_trace_const_cmp4jj(i32 0, i32 %call439), !dbg !1652
  %tobool440 = icmp eq i32 %call439, 0, !dbg !1652
  br i1 %tobool440, label %if.end442, label %if.then441, !dbg !1654

if.then441:                                       ; preds = %if.then423
  call void @_Z24__sanitizer_cov_trace_pcv(), !dbg !1655
  call void asm sideeffect "", ""(), !dbg !1655
  %6 = load i64, i64* bitcast (i8** @dest_csname to i64*), align 8, !dbg !1655, !tbaa !953
  store i64 %6, i64* bitcast (i8** @locale_charset to i64*), align 8, !dbg !1657, !tbaa !953
  br label %if.end442, !dbg !1658

if.end442:                                        ; preds = %if.then423, %if.then441
  call void @_Z24__sanitizer_cov_trace_pcv(), !dbg !1659
  call void asm sideeffect "", ""(), !dbg !1659
  tail call void @free(i8* %call435) #10, !dbg !1659
  br label %cleanup, !dbg !1660

if.else443:                                       ; preds = %cond.false420
  call void @_Z24__sanitizer_cov_trace_pcv(), !dbg !1661
  call void asm sideeffect "", ""(), !dbg !1661
  %call445 = tail call noalias i8* @__strdup(i8* %call4) #10, !dbg !1661
  call void @llvm.dbg.value(metadata i8* %call445, metadata !1569, metadata !DIExpression()), !dbg !1662
  call void @llvm.dbg.value(metadata i8* %call445, metadata !1567, metadata !DIExpression()), !dbg !1663
  %7 = load i8, i8* %call445, align 1, !dbg !1664, !tbaa !995
  call void @_Z32__sanitizer_cov_trace_const_cmp1hh(i8 0, i8 %7), !dbg !1665
  %tobool446515 = icmp eq i8 %7, 0, !dbg !1665
  br i1 %tobool446515, label %for.end, label %for.body.lr.ph, !dbg !1665

for.body.lr.ph:                                   ; preds = %if.else443
  call void @_Z24__sanitizer_cov_trace_pcv(), !dbg !1666
  call void asm sideeffect "", ""(), !dbg !1666
  %call447 = tail call i32** @__ctype_tolower_loc() #1, !dbg !1666
  br label %for.body, !dbg !1665

for.body:                                         ; preds = %for.body.lr.ph, %for.body
  %8 = phi i8 [ %7, %for.body.lr.ph ], [ %11, %for.body ]
  %i.0516 = phi i8* [ %call445, %for.body.lr.ph ], [ %incdec.ptr452, %for.body ]
  call void @_Z24__sanitizer_cov_trace_pcv(), !dbg !1663
  call void asm sideeffect "", ""(), !dbg !1663
  call void @llvm.dbg.value(metadata i8* %i.0516, metadata !1567, metadata !DIExpression()), !dbg !1663
  %9 = load i32*, i32** %call447, align 8, !dbg !1666, !tbaa !953
  %idxprom = sext i8 %8 to i64, !dbg !1666
  %arrayidx449 = getelementptr inbounds i32, i32* %9, i64 %idxprom, !dbg !1666
  %10 = load i32, i32* %arrayidx449, align 4, !dbg !1666, !tbaa !959
  call void @llvm.dbg.value(metadata i32 %10, metadata !1570, metadata !DIExpression()), !dbg !1668
  %conv451 = trunc i32 %10 to i8, !dbg !1669
  store i8 %conv451, i8* %i.0516, align 1, !dbg !1670, !tbaa !995
  %incdec.ptr452 = getelementptr inbounds i8, i8* %i.0516, i64 1, !dbg !1671
  call void @llvm.dbg.value(metadata i8* %incdec.ptr452, metadata !1567, metadata !DIExpression()), !dbg !1663
  %11 = load i8, i8* %incdec.ptr452, align 1, !dbg !1664, !tbaa !995
  call void @_Z32__sanitizer_cov_trace_const_cmp1hh(i8 0, i8 %11), !dbg !1665
  %tobool446 = icmp eq i8 %11, 0, !dbg !1665
  br i1 %tobool446, label %for.end, label %for.body, !dbg !1665, !llvm.loop !1672

for.end:                                          ; preds = %for.body, %if.else443
  call void @_Z24__sanitizer_cov_trace_pcv(), !dbg !1674
  call void asm sideeffect "", ""(), !dbg !1674
  %call453 = tail call i32 @check_charset(i8** nonnull @dest_csname, i8* %call445) #10, !dbg !1674
  call void @_Z32__sanitizer_cov_trace_const_cmp4jj(i32 0, i32 %call453), !dbg !1674
  %tobool454 = icmp eq i32 %call453, 0, !dbg !1674
  br i1 %tobool454, label %cleanup, label %if.then455, !dbg !1676

if.then455:                                       ; preds = %for.end
  call void @_Z24__sanitizer_cov_trace_pcv(), !dbg !1677
  call void asm sideeffect "", ""(), !dbg !1677
  %12 = load i64, i64* bitcast (i8** @dest_csname to i64*), align 8, !dbg !1677, !tbaa !953
  store i64 %12, i64* bitcast (i8** @locale_charset to i64*), align 8, !dbg !1679, !tbaa !953
  br label %cleanup, !dbg !1680

cleanup:                                          ; preds = %if.then171, %if.then167, %if.end364, %if.end442, %if.then228, %if.else, %for.end, %if.then455, %if.end, %entry
  call void @_Z24__sanitizer_cov_trace_pcv(), !dbg !1681
  call void asm sideeffect "", ""(), !dbg !1681
  ret void, !dbg !1681
}

; Function Attrs: nounwind
declare i32 @getopt(i32, i8**, i8*) local_unnamed_addr #6

; Function Attrs: nounwind uwtable
define i32 @check_charset(i8** nocapture %filename, i8* readonly %charset) local_unnamed_addr #4 !dbg !1682 {
entry:
  call void @_Z24__sanitizer_cov_trace_pcv(), !dbg !1700
  call void asm sideeffect "", ""(), !dbg !1700
  call void @llvm.dbg.value(metadata i8** %filename, metadata !1686, metadata !DIExpression()), !dbg !1700
  call void @llvm.dbg.value(metadata i8* %charset, metadata !1687, metadata !DIExpression()), !dbg !1701
  %cmp = icmp eq i8* %charset, null, !dbg !1702
  br i1 %cmp, label %cleanup, label %cond.end, !dbg !1704

cond.end:                                         ; preds = %entry
  call void @_Z24__sanitizer_cov_trace_pcv(), !dbg !1705
  call void asm sideeffect "", ""(), !dbg !1705
  call void @llvm.dbg.value(metadata i64 5, metadata !1692, metadata !DIExpression()), !dbg !1705
  %0 = bitcast i8* %charset to i64*, !dbg !1705
  call void @_Z28__sanitizer_cov_trace_strcmpPmS_(i64* %0, i64* bitcast ([6 x i8]* @.str.1.130 to i64*)), !dbg !1705
  %call = tail call i32 @strcmp(i8* nonnull %charset, i8* getelementptr inbounds ([6 x i8], [6 x i8]* @.str.1.130, i64 0, i64 0)) #10, !dbg !1705
  call void @_Z32__sanitizer_cov_trace_const_cmp4jj(i32 0, i32 %call), !dbg !1706
  %tobool = icmp eq i32 %call, 0, !dbg !1706
  br i1 %tobool, label %cond.false49, label %if.end62, !dbg !1706

cond.false49:                                     ; preds = %cond.end
  call void @_Z24__sanitizer_cov_trace_pcv(), !dbg !1707
  call void asm sideeffect "", ""(), !dbg !1707
  call void @llvm.dbg.value(metadata i64 6, metadata !1696, metadata !DIExpression()), !dbg !1707
  %call50 = tail call noalias i8* @malloc(i64 6) #10, !dbg !1707
  call void @llvm.dbg.value(metadata i8* %call50, metadata !1699, metadata !DIExpression()), !dbg !1707
  %cmp51 = icmp eq i8* %call50, null, !dbg !1708
  br i1 %cmp51, label %cond.end60, label %if.then53, !dbg !1707

if.then53:                                        ; preds = %cond.false49
  call void @_Z24__sanitizer_cov_trace_pcv(), !dbg !1708
  call void asm sideeffect "", ""(), !dbg !1708
  tail call void @llvm.memcpy.p0i8.p0i8.i64(i8* nonnull %call50, i8* getelementptr inbounds ([6 x i8], [6 x i8]* @.str.1.130, i64 0, i64 0), i64 6, i32 1, i1 false), !dbg !1708
  call void @llvm.dbg.value(metadata i8* %call50, metadata !1699, metadata !DIExpression()), !dbg !1707
  br label %cond.end60, !dbg !1708

cond.end60:                                       ; preds = %if.then53, %cond.false49
  call void @_Z24__sanitizer_cov_trace_pcv(), !dbg !1707
  call void asm sideeffect "", ""(), !dbg !1707
  call void @llvm.dbg.value(metadata i8* %call50, metadata !1699, metadata !DIExpression()), !dbg !1707
  store i8* %call50, i8** %filename, align 8, !dbg !1710, !tbaa !953
  br label %cleanup, !dbg !1711

if.end62:                                         ; preds = %cond.end
  call void @_Z24__sanitizer_cov_trace_pcv(), !dbg !1712
  call void asm sideeffect "", ""(), !dbg !1712
  %call63 = tail call i8* @stradd(i8* nonnull %charset, i8* getelementptr inbounds ([5 x i8], [5 x i8]* @.str.2.131, i64 0, i64 0)), !dbg !1712
  %1 = load i8*, i8** @charset_path, align 8, !dbg !1713, !tbaa !953
  %call64 = tail call i8* @find_file(i8* %call63, i8* %1), !dbg !1714
  call void @llvm.dbg.value(metadata i8* %call64, metadata !1688, metadata !DIExpression()), !dbg !1715
  %tobool65 = icmp eq i8* %call64, null, !dbg !1716
  br i1 %tobool65, label %cleanup, label %land.lhs.true66, !dbg !1718

land.lhs.true66:                                  ; preds = %if.end62
  call void @_Z24__sanitizer_cov_trace_pcv(), !dbg !1719
  call void asm sideeffect "", ""(), !dbg !1719
  %2 = load i8, i8* %call64, align 1, !dbg !1719, !tbaa !995
  call void @_Z32__sanitizer_cov_trace_const_cmp1hh(i8 0, i8 %2), !dbg !1719
  %tobool68 = icmp eq i8 %2, 0, !dbg !1719
  br i1 %tobool68, label %cleanup, label %if.then69, !dbg !1720

if.then69:                                        ; preds = %land.lhs.true66
  call void @_Z24__sanitizer_cov_trace_pcv(), !dbg !1721
  call void asm sideeffect "", ""(), !dbg !1721
  %call70 = tail call noalias i8* @__strdup(i8* nonnull %charset) #10, !dbg !1721
  store i8* %call70, i8** %filename, align 8, !dbg !1723, !tbaa !953
  tail call void @free(i8* nonnull %call64) #10, !dbg !1724
  br label %cleanup, !dbg !1725

cleanup:                                          ; preds = %if.end62, %land.lhs.true66, %entry, %if.then69, %cond.end60
  %retval.0 = phi i32 [ 1, %if.then69 ], [ 1, %cond.end60 ], [ 0, %entry ], [ 0, %land.lhs.true66 ], [ 0, %if.end62 ]
  call void @_Z24__sanitizer_cov_trace_pcv(), !dbg !1726
  call void asm sideeffect "", ""(), !dbg !1726
  ret i32 %retval.0, !dbg !1726
}

; Function Attrs: nounwind
declare noalias i8* @__strdup(i8* nocapture readonly) local_unnamed_addr #6

; Function Attrs: nounwind uwtable
define i32 @get_word8_char(%struct._IO_FILE* %f, i64* nocapture %offset, i64 %fileend) #4 !dbg !1727 {
entry:
  call void @_Z24__sanitizer_cov_trace_pcv(), !dbg !1778
  call void asm sideeffect "", ""(), !dbg !1778
  call void @llvm.dbg.value(metadata %struct._IO_FILE* %f, metadata !1771, metadata !DIExpression()), !dbg !1778
  call void @llvm.dbg.value(metadata i64* %offset, metadata !1772, metadata !DIExpression()), !dbg !1779
  call void @llvm.dbg.value(metadata i64 %fileend, metadata !1773, metadata !DIExpression()), !dbg !1780
  %0 = load i64, i64* %offset, align 8, !dbg !1781, !tbaa !1783
  %rem = srem i64 %0, 256, !dbg !1785
  %conv = trunc i64 %rem to i32, !dbg !1786
  call void @llvm.dbg.value(metadata i32 %conv, metadata !1775, metadata !DIExpression()), !dbg !1787
  call void @_Z32__sanitizer_cov_trace_const_cmp4jj(i32 0, i32 %conv), !dbg !1788
  %cmp = icmp eq i32 %conv, 0, !dbg !1788
  br i1 %cmp, label %if.then, label %if.end35, !dbg !1789

if.then:                                          ; preds = %entry
  call void @_Z24__sanitizer_cov_trace_pcv(), !dbg !1790
  call void asm sideeffect "", ""(), !dbg !1790
  %1 = load i64 (i8*, i64, i64, %struct._IO_FILE*)*, i64 (i8*, i64, i64, %struct._IO_FILE*)** @catdoc_read, align 8, !dbg !1790, !tbaa !953
  %call = tail call i64 %1(i8* getelementptr inbounds ([256 x i8], [256 x i8]* @read_buf, i64 0, i64 0), i64 1, i64 256, %struct._IO_FILE* %f) #10, !dbg !1790
  %sext = shl i64 %call, 32, !dbg !1792
  %idx.ext = ashr exact i64 %sext, 32, !dbg !1792
  %add.ptr = getelementptr inbounds [256 x i8], [256 x i8]* @read_buf, i64 0, i64 %idx.ext, !dbg !1792
  %sext73 = sub i64 1099511627776, %sext, !dbg !1793
  %conv3 = ashr exact i64 %sext73, 32, !dbg !1793
  tail call void @llvm.memset.p0i8.i64(i8* nonnull %add.ptr, i8 0, i64 %conv3, i32 1, i1 false), !dbg !1794
  store i1 false, i1* @buf_is_unicode, align 4
  %2 = load i64, i64* %offset, align 8, !dbg !1795, !tbaa !1783
  %add = add nsw i64 %2, %idx.ext, !dbg !1797
  call void @_Z26__sanitizer_cov_trace_cmp8mm(i64 %add, i64 %fileend), !dbg !1798
  %cmp5 = icmp sgt i64 %add, %fileend, !dbg !1798
  %sub8 = sub nsw i64 %fileend, %2, !dbg !1799
  %spec.select = select i1 %cmp5, i64 %sub8, i64 %call, !dbg !1801
  %count.0 = trunc i64 %spec.select to i32
  call void @llvm.dbg.value(metadata i32 %count.0, metadata !1774, metadata !DIExpression()), !dbg !1802
  call void @llvm.dbg.value(metadata i32 0, metadata !1775, metadata !DIExpression()), !dbg !1787
  call void @_Z32__sanitizer_cov_trace_const_cmp4jj(i32 0, i32 %count.0), !dbg !1803
  %cmp1075 = icmp sgt i32 %count.0, 0, !dbg !1803
  br i1 %cmp1075, label %while.body.lr.ph, label %if.else, !dbg !1804

while.body.lr.ph:                                 ; preds = %if.then
  call void @_Z24__sanitizer_cov_trace_pcv(), !dbg !1804
  call void asm sideeffect "", ""(), !dbg !1804
  %sext79 = shl i64 %spec.select, 32, !dbg !1804
  %3 = ashr exact i64 %sext79, 32, !dbg !1804
  br label %while.body, !dbg !1804

while.body:                                       ; preds = %while.body.lr.ph, %if.end33
  %indvars.iv = phi i64 [ 0, %while.body.lr.ph ], [ %indvars.iv.next, %if.end33 ]
  call void @_Z24__sanitizer_cov_trace_pcv(), !dbg !1787
  call void asm sideeffect "", ""(), !dbg !1787
  call void @llvm.dbg.value(metadata i64 %indvars.iv, metadata !1775, metadata !DIExpression()), !dbg !1787
  %4 = or i64 %indvars.iv, 1, !dbg !1805
  %arrayidx = getelementptr inbounds [256 x i8], [256 x i8]* @read_buf, i64 0, i64 %indvars.iv, !dbg !1807
  %5 = load i8, i8* %arrayidx, align 2, !dbg !1807, !tbaa !995
  call void @llvm.dbg.value(metadata i8 %5, metadata !1777, metadata !DIExpression()), !dbg !1808
  %6 = zext i8 %5 to i64, !dbg !1809
  call void @_Z28__sanitizer_cov_trace_switchmPm(i64 %6, i64* getelementptr inbounds ([4 x i64], [4 x i64]* @__sancov_gen_cov_switch_values.2, i32 0, i32 0)), !dbg !1809
  switch i8 %5, label %lor.lhs.false18 [
    i8 32, label %land.lhs.true
    i8 13, label %land.lhs.true
  ], !dbg !1809

lor.lhs.false18:                                  ; preds = %while.body
  call void @_Z24__sanitizer_cov_trace_pcv(), !dbg !1811
  call void asm sideeffect "", ""(), !dbg !1811
  %call19 = tail call i16** @__ctype_b_loc() #1, !dbg !1811
  %7 = load i16*, i16** %call19, align 8, !dbg !1811, !tbaa !953
  %idxprom21 = sext i8 %5 to i64, !dbg !1811
  %arrayidx22 = getelementptr inbounds i16, i16* %7, i64 %idxprom21, !dbg !1811
  %8 = load i16, i16* %arrayidx22, align 2, !dbg !1811, !tbaa !1315
  %9 = and i16 %8, 4, !dbg !1811
  call void @_Z32__sanitizer_cov_trace_const_cmp2tt(i16 0, i16 %9), !dbg !1811
  %tobool = icmp ne i16 %9, 0, !dbg !1811
  call void @_Z26__sanitizer_cov_trace_cmp8mm(i64 %4, i64 %3), !dbg !1812
  %cmp24 = icmp slt i64 %4, %3, !dbg !1812
  %or.cond = and i1 %cmp24, %tobool, !dbg !1813
  br i1 %or.cond, label %land.lhs.true26, label %if.end33, !dbg !1813

land.lhs.true:                                    ; preds = %while.body, %while.body
  call void @_Z24__sanitizer_cov_trace_pcv(), !dbg !1812
  call void asm sideeffect "", ""(), !dbg !1812
  call void @_Z26__sanitizer_cov_trace_cmp8mm(i64 %4, i64 %3), !dbg !1812
  %cmp24.old = icmp slt i64 %4, %3, !dbg !1812
  br i1 %cmp24.old, label %land.lhs.true26, label %if.end33, !dbg !1814

land.lhs.true26:                                  ; preds = %lor.lhs.false18, %land.lhs.true
  call void @_Z24__sanitizer_cov_trace_pcv(), !dbg !1815
  call void asm sideeffect "", ""(), !dbg !1815
  %arrayidx28 = getelementptr inbounds [256 x i8], [256 x i8]* @read_buf, i64 0, i64 %4, !dbg !1815
  %10 = load i8, i8* %arrayidx28, align 1, !dbg !1815, !tbaa !995
  call void @_Z32__sanitizer_cov_trace_const_cmp1hh(i8 0, i8 %10), !dbg !1816
  %cmp30 = icmp eq i8 %10, 0, !dbg !1816
  br i1 %cmp30, label %if.end35.thread, label %if.end33, !dbg !1817

if.end35.thread:                                  ; preds = %land.lhs.true26
  call void @_Z24__sanitizer_cov_trace_pcv()
  call void asm sideeffect "", ""()
  store i1 true, i1* @buf_is_unicode, align 4
  call void @llvm.dbg.value(metadata i32 %conv, metadata !1775, metadata !DIExpression()), !dbg !1787
  br label %if.then37, !dbg !1818

if.end33:                                         ; preds = %lor.lhs.false18, %land.lhs.true26, %land.lhs.true
  call void @_Z24__sanitizer_cov_trace_pcv(), !dbg !1819
  call void asm sideeffect "", ""(), !dbg !1819
  %indvars.iv.next = add nuw i64 %indvars.iv, 2, !dbg !1819
  %11 = trunc i64 %indvars.iv.next to i32, !dbg !1803
  call void @_Z26__sanitizer_cov_trace_cmp4jj(i32 %11, i32 %count.0), !dbg !1803
  %cmp10 = icmp slt i32 %11, %count.0, !dbg !1803
  br i1 %cmp10, label %while.body, label %if.else, !dbg !1804, !llvm.loop !1820

if.end35:                                         ; preds = %entry
  call void @_Z24__sanitizer_cov_trace_pcv()
  call void asm sideeffect "", ""()
  %.b.pr.pre = load i1, i1* @buf_is_unicode, align 4
  call void @llvm.dbg.value(metadata i32 %conv, metadata !1775, metadata !DIExpression()), !dbg !1787
  br i1 %.b.pr.pre, label %if.then37, label %if.else, !dbg !1818

if.then37:                                        ; preds = %if.end35.thread, %if.end35
  %12 = phi i64 [ %2, %if.end35.thread ], [ %0, %if.end35 ], !dbg !1822
  %i.174 = phi i32 [ 0, %if.end35.thread ], [ %conv, %if.end35 ]
  call void @_Z24__sanitizer_cov_trace_pcv(), !dbg !1825
  call void asm sideeffect "", ""(), !dbg !1825
  %idxprom38 = sext i32 %i.174 to i64, !dbg !1825
  %arrayidx39 = getelementptr inbounds [256 x i8], [256 x i8]* @read_buf, i64 0, i64 %idxprom38, !dbg !1825
  %13 = load i8, i8* %arrayidx39, align 1, !dbg !1825, !tbaa !995
  %conv40 = zext i8 %13 to i32, !dbg !1825
  %add41 = add nsw i32 %i.174, 1, !dbg !1826
  %idxprom42 = sext i32 %add41 to i64, !dbg !1827
  %arrayidx43 = getelementptr inbounds [256 x i8], [256 x i8]* @read_buf, i64 0, i64 %idxprom42, !dbg !1827
  %14 = load i8, i8* %arrayidx43, align 1, !dbg !1827, !tbaa !995
  %conv44 = zext i8 %14 to i32, !dbg !1827
  %shl = shl nuw nsw i32 %conv44, 8, !dbg !1828
  %or = or i32 %shl, %conv40, !dbg !1829
  call void @llvm.dbg.value(metadata i32 %or, metadata !1776, metadata !DIExpression()), !dbg !1830
  %add45 = add nsw i64 %12, 2, !dbg !1822
  br label %if.end51, !dbg !1831

if.else:                                          ; preds = %if.end33, %if.then, %if.end35
  %i.1.ph81 = phi i64 [ %rem, %if.end35 ], [ 0, %if.then ], [ 0, %if.end33 ]
  call void @_Z24__sanitizer_cov_trace_pcv(), !dbg !1832
  call void asm sideeffect "", ""(), !dbg !1832
  %15 = load i16*, i16** @source_charset, align 8, !dbg !1832, !tbaa !953
  %arrayidx47 = getelementptr inbounds [256 x i8], [256 x i8]* @read_buf, i64 0, i64 %i.1.ph81, !dbg !1834
  %16 = load i8, i8* %arrayidx47, align 1, !dbg !1834, !tbaa !995
  %conv48 = zext i8 %16 to i32, !dbg !1834
  %call49 = tail call i32 @to_unicode(i16* %15, i32 %conv48) #10, !dbg !1835
  call void @llvm.dbg.value(metadata i32 %call49, metadata !1776, metadata !DIExpression()), !dbg !1830
  %17 = load i64, i64* %offset, align 8, !dbg !1836, !tbaa !1783
  %inc50 = add nsw i64 %17, 1, !dbg !1836
  br label %if.end51

if.end51:                                         ; preds = %if.else, %if.then37
  %storemerge = phi i64 [ %inc50, %if.else ], [ %add45, %if.then37 ]
  %u.0 = phi i32 [ %call49, %if.else ], [ %or, %if.then37 ]
  call void @_Z24__sanitizer_cov_trace_pcv()
  call void asm sideeffect "", ""()
  store i64 %storemerge, i64* %offset, align 8, !tbaa !1783
  call void @llvm.dbg.value(metadata i32 %u.0, metadata !1776, metadata !DIExpression()), !dbg !1830
  ret i32 %u.0, !dbg !1837
}

; Function Attrs: nounwind uwtable
define i32 @get_8bit_char(%struct._IO_FILE* %f, i64* nocapture %offset, i64 %fileend) #4 !dbg !1838 {
entry:
  call void @_Z24__sanitizer_cov_trace_pcv()
  call void asm sideeffect "", ""()
  %buf = alloca i8, align 1
  call void @llvm.dbg.value(metadata %struct._IO_FILE* %f, metadata !1882, metadata !DIExpression()), !dbg !1886
  call void @llvm.dbg.value(metadata i64* %offset, metadata !1883, metadata !DIExpression()), !dbg !1887
  call void @llvm.dbg.value(metadata i64 %fileend, metadata !1884, metadata !DIExpression()), !dbg !1888
  call void @llvm.dbg.value(metadata i8* %buf, metadata !1885, metadata !DIExpression()), !dbg !1889
  call void @llvm.lifetime.start.p0i8(i64 1, i8* nonnull %buf) #10, !dbg !1890
  %0 = load i64 (i8*, i64, i64, %struct._IO_FILE*)*, i64 (i8*, i64, i64, %struct._IO_FILE*)** @catdoc_read, align 8, !dbg !1891, !tbaa !953
  call void @llvm.dbg.value(metadata i8* %buf, metadata !1885, metadata !DIExpression()), !dbg !1889
  %call = call i64 %0(i8* nonnull %buf, i64 1, i64 1, %struct._IO_FILE* %f) #10, !dbg !1891
  call void @_Z32__sanitizer_cov_trace_const_cmp8mm(i64 0, i64 %call), !dbg !1893
  %cmp = icmp eq i64 %call, 0, !dbg !1893
  br i1 %cmp, label %cleanup, label %if.end, !dbg !1894

if.end:                                           ; preds = %entry
  call void @_Z24__sanitizer_cov_trace_pcv(), !dbg !1895
  call void asm sideeffect "", ""(), !dbg !1895
  %1 = load i64, i64* %offset, align 8, !dbg !1895, !tbaa !1783
  %inc = add nsw i64 %1, 1, !dbg !1895
  store i64 %inc, i64* %offset, align 8, !dbg !1895, !tbaa !1783
  %2 = load i16*, i16** @source_charset, align 8, !dbg !1896, !tbaa !953
  %3 = load i8, i8* %buf, align 1, !dbg !1897, !tbaa !995
  call void @llvm.dbg.value(metadata i8 %3, metadata !1885, metadata !DIExpression()), !dbg !1889
  call void @llvm.dbg.value(metadata i16* %2, metadata !1898, metadata !DIExpression()), !dbg !1904
  %idxprom.i = zext i8 %3 to i64, !dbg !1906
  %arrayidx.i = getelementptr inbounds i16, i16* %2, i64 %idxprom.i, !dbg !1906
  %4 = load i16, i16* %arrayidx.i, align 2, !dbg !1906, !tbaa !1315
  %conv.i = zext i16 %4 to i32, !dbg !1906
  br label %cleanup, !dbg !1907

cleanup:                                          ; preds = %entry, %if.end
  %retval.0 = phi i32 [ %conv.i, %if.end ], [ -1, %entry ]
  call void @_Z24__sanitizer_cov_trace_pcv(), !dbg !1889
  call void asm sideeffect "", ""(), !dbg !1889
  call void @llvm.dbg.value(metadata i8* %buf, metadata !1885, metadata !DIExpression()), !dbg !1889
  call void @llvm.lifetime.end.p0i8(i64 1, i8* nonnull %buf) #10, !dbg !1908
  ret i32 %retval.0, !dbg !1908
}

; Function Attrs: argmemonly nounwind
declare void @llvm.lifetime.start.p0i8(i64, i8* nocapture) #7

; Function Attrs: nounwind
declare i64 @strtol(i8* readonly, i8** nocapture, i32) local_unnamed_addr #6

; Function Attrs: noreturn nounwind
declare void @exit(i32) local_unnamed_addr #9

; Function Attrs: argmemonly nounwind
declare void @llvm.lifetime.end.p0i8(i64, i8* nocapture) #7

; Function Attrs: nounwind uwtable
define void @list_charsets() local_unnamed_addr #4 !dbg !1909 {
entry:
  call void @_Z24__sanitizer_cov_trace_pcv()
  call void asm sideeffect "", ""()
  %path_buf = alloca [1024 x i8], align 16
  %dir_sep = alloca i16, align 2
  %glob_buf = alloca %struct.glob_t, align 8
  %0 = getelementptr inbounds [1024 x i8], [1024 x i8]* %path_buf, i64 0, i64 0, !dbg !1946
  call void @llvm.lifetime.start.p0i8(i64 1024, i8* nonnull %0) #10, !dbg !1946
  call void @llvm.dbg.declare(metadata [1024 x i8]* %path_buf, metadata !1913, metadata !DIExpression()), !dbg !1947
  %1 = bitcast i16* %dir_sep to i8*, !dbg !1948
  call void @llvm.lifetime.start.p0i8(i64 2, i8* nonnull %1) #10, !dbg !1948
  call void @llvm.dbg.value(metadata i16 47, metadata !1914, metadata !DIExpression()), !dbg !1949
  store i16 47, i16* %dir_sep, align 2, !dbg !1949
  %2 = bitcast %struct.glob_t* %glob_buf to i8*, !dbg !1950
  call void @llvm.lifetime.start.p0i8(i64 72, i8* nonnull %2) #10, !dbg !1950
  call void @llvm.dbg.value(metadata i32 1, metadata !1945, metadata !DIExpression()), !dbg !1951
  call void @llvm.memset.p0i8.i64(i8* nonnull %2, i8 0, i64 72, i32 8, i1 false), !dbg !1952
  %3 = load i8*, i8** @charset_path, align 8, !dbg !1953, !tbaa !953
  call void @llvm.dbg.value(metadata i8* %3, metadata !1911, metadata !DIExpression()), !dbg !1955
  call void @llvm.dbg.value(metadata i32 1, metadata !1945, metadata !DIExpression()), !dbg !1951
  %tobool96 = icmp eq i8* %3, null, !dbg !1956
  br i1 %tobool96, label %for.end, label %for.body.lr.ph, !dbg !1956

for.body.lr.ph:                                   ; preds = %entry
  call void @_Z24__sanitizer_cov_trace_pcv()
  call void asm sideeffect "", ""()
  %arrayidx21 = getelementptr inbounds [1024 x i8], [1024 x i8]* %path_buf, i64 0, i64 1
  br label %for.body, !dbg !1956

for.cond.backedge:                                ; preds = %for.inc, %if.then
  %glob_flags.190 = phi i32 [ %glob_flags.1, %for.inc ], [ %glob_flags.098, %if.then ]
  call void @_Z24__sanitizer_cov_trace_pcv(), !dbg !1957
  call void asm sideeffect "", ""(), !dbg !1957
  %add.ptr91 = getelementptr inbounds i8, i8* %call, i64 1, !dbg !1957
  call void @llvm.dbg.value(metadata i32 %glob_flags.190, metadata !1945, metadata !DIExpression()), !dbg !1951
  call void @llvm.dbg.value(metadata i8* %add.ptr91, metadata !1911, metadata !DIExpression()), !dbg !1955
  br label %for.body

for.body:                                         ; preds = %for.cond.backedge, %for.body.lr.ph
  %glob_flags.098 = phi i32 [ 1, %for.body.lr.ph ], [ %glob_flags.190, %for.cond.backedge ]
  %p.097 = phi i8* [ %3, %for.body.lr.ph ], [ %add.ptr91, %for.cond.backedge ]
  call void @_Z24__sanitizer_cov_trace_pcv(), !dbg !1955
  call void asm sideeffect "", ""(), !dbg !1955
  call void @llvm.dbg.value(metadata i8* %p.097, metadata !1911, metadata !DIExpression()), !dbg !1955
  call void @llvm.dbg.value(metadata i32 %glob_flags.098, metadata !1945, metadata !DIExpression()), !dbg !1951
  %call = call i8* @strchr(i8* nonnull %p.097, i32 58) #10, !dbg !1959
  call void @llvm.dbg.value(metadata i8* %call, metadata !1912, metadata !DIExpression()), !dbg !1961
  %tobool1 = icmp ne i8* %call, null, !dbg !1962
  br i1 %tobool1, label %if.then, label %if.else, !dbg !1964

if.then:                                          ; preds = %for.body
  call void @_Z24__sanitizer_cov_trace_pcv(), !dbg !1965
  call void asm sideeffect "", ""(), !dbg !1965
  %sub.ptr.lhs.cast = ptrtoint i8* %call to i64, !dbg !1965
  %sub.ptr.rhs.cast = ptrtoint i8* %p.097 to i64, !dbg !1965
  %sub.ptr.sub = sub i64 %sub.ptr.lhs.cast, %sub.ptr.rhs.cast, !dbg !1965
  call void @_Z32__sanitizer_cov_trace_const_cmp8mm(i64 1023, i64 %sub.ptr.sub), !dbg !1968
  %cmp = icmp sgt i64 %sub.ptr.sub, 1023, !dbg !1968
  br i1 %cmp, label %for.cond.backedge, label %if.end, !dbg !1969

if.end:                                           ; preds = %if.then
  call void @_Z24__sanitizer_cov_trace_pcv(), !dbg !1970
  call void asm sideeffect "", ""(), !dbg !1970
  %call6 = call i8* @strncpy(i8* nonnull %0, i8* nonnull %p.097, i64 %sub.ptr.sub) #10, !dbg !1970
  %arrayidx = getelementptr inbounds [1024 x i8], [1024 x i8]* %path_buf, i64 0, i64 %sub.ptr.sub, !dbg !1971
  store i8 0, i8* %arrayidx, align 1, !dbg !1972, !tbaa !995
  br label %if.end16, !dbg !1973

if.else:                                          ; preds = %for.body
  call void @_Z24__sanitizer_cov_trace_pcv(), !dbg !1974
  call void asm sideeffect "", ""(), !dbg !1974
  %call10 = call i64 @strlen(i8* nonnull %p.097) #18, !dbg !1974
  call void @_Z32__sanitizer_cov_trace_const_cmp8mm(i64 1023, i64 %call10), !dbg !1977
  %cmp11 = icmp ugt i64 %call10, 1023, !dbg !1977
  br i1 %cmp11, label %for.end, label %if.end13, !dbg !1978

if.end13:                                         ; preds = %if.else
  call void @_Z24__sanitizer_cov_trace_pcv(), !dbg !1979
  call void asm sideeffect "", ""(), !dbg !1979
  %call15 = call i8* @strcpy(i8* nonnull %0, i8* nonnull %p.097) #10, !dbg !1979
  br label %if.end16

if.end16:                                         ; preds = %if.end13, %if.end
  call void @_Z24__sanitizer_cov_trace_pcv(), !dbg !1980
  call void asm sideeffect "", ""(), !dbg !1980
  %4 = load i8, i8* %0, align 16, !dbg !1980, !tbaa !995
  call void @_Z32__sanitizer_cov_trace_const_cmp1hh(i8 0, i8 %4), !dbg !1980
  %tobool18 = icmp eq i8 %4, 0, !dbg !1980
  br i1 %tobool18, label %if.then19, label %if.end22, !dbg !1982

if.then19:                                        ; preds = %if.end16
  call void @_Z24__sanitizer_cov_trace_pcv(), !dbg !1983
  call void asm sideeffect "", ""(), !dbg !1983
  store i8 46, i8* %0, align 16, !dbg !1983, !tbaa !995
  store i8 0, i8* %arrayidx21, align 1, !dbg !1985, !tbaa !995
  br label %if.end22, !dbg !1986

if.end22:                                         ; preds = %if.end16, %if.then19
  call void @_Z24__sanitizer_cov_trace_pcv(), !dbg !1987
  call void asm sideeffect "", ""(), !dbg !1987
  %call25 = call i8* @strcat(i8* nonnull %0, i8* nonnull %1) #10, !dbg !1987
  %call27 = call i64 @strlen(i8* nonnull %0) #18, !dbg !1988
  %add = add i64 %call27, 6, !dbg !1990
  call void @_Z32__sanitizer_cov_trace_const_cmp8mm(i64 1023, i64 %add), !dbg !1991
  %cmp28 = icmp ugt i64 %add, 1023, !dbg !1991
  br i1 %cmp28, label %for.inc, label %if.end30, !dbg !1992

if.end30:                                         ; preds = %if.end22
  call void @_Z24__sanitizer_cov_trace_pcv(), !dbg !1993
  call void asm sideeffect "", ""(), !dbg !1993
  %strlen = call i64 @strlen(i8* nonnull %0), !dbg !1993
  %endptr = getelementptr [1024 x i8], [1024 x i8]* %path_buf, i64 0, i64 %strlen, !dbg !1993
  call void @llvm.memcpy.p0i8.p0i8.i64(i8* %endptr, i8* getelementptr inbounds ([6 x i8], [6 x i8]* @.str.4.137, i64 0, i64 0), i64 6, i32 1, i1 false), !dbg !1993
  call void @llvm.dbg.value(metadata %struct.glob_t* %glob_buf, metadata !1916, metadata !DIExpression()), !dbg !1994
  %call34 = call i32 @glob(i8* nonnull %0, i32 %glob_flags.098, i32 (i8*, i32)* null, %struct.glob_t* nonnull %glob_buf) #10, !dbg !1995
  %5 = zext i32 %call34 to i64, !dbg !1996
  call void @_Z28__sanitizer_cov_trace_switchmPm(i64 %5, i64* getelementptr inbounds ([4 x i64], [4 x i64]* @__sancov_gen_cov_switch_values.3, i32 0, i32 0)), !dbg !1996
  switch i32 %call34, label %sw.default [
    i32 0, label %sw.epilog
    i32 3, label %sw.epilog
  ], !dbg !1996

sw.default:                                       ; preds = %if.end30
  call void @_Z24__sanitizer_cov_trace_pcv(), !dbg !1997
  call void asm sideeffect "", ""(), !dbg !1997
  call void @perror(i8* getelementptr inbounds ([7 x i8], [7 x i8]* @.str.5.138, i64 0, i64 0)) #16, !dbg !1997
  call void @exit(i32 1) #17, !dbg !1999
  unreachable, !dbg !1999

sw.epilog:                                        ; preds = %if.end30, %if.end30
  call void @_Z24__sanitizer_cov_trace_pcv(), !dbg !2000
  call void asm sideeffect "", ""(), !dbg !2000
  %or = or i32 %glob_flags.098, 32, !dbg !2000
  call void @llvm.dbg.value(metadata i32 %or, metadata !1945, metadata !DIExpression()), !dbg !1951
  br label %for.inc, !dbg !2001

for.inc:                                          ; preds = %if.end22, %sw.epilog
  %glob_flags.1 = phi i32 [ %glob_flags.098, %if.end22 ], [ %or, %sw.epilog ]
  call void @_Z24__sanitizer_cov_trace_pcv(), !dbg !1951
  call void asm sideeffect "", ""(), !dbg !1951
  call void @llvm.dbg.value(metadata i32 %glob_flags.1, metadata !1945, metadata !DIExpression()), !dbg !1951
  br i1 %tobool1, label %for.cond.backedge, label %for.end

for.end:                                          ; preds = %if.else, %for.inc, %entry
  call void @_Z24__sanitizer_cov_trace_pcv(), !dbg !2002
  call void asm sideeffect "", ""(), !dbg !2002
  call void @llvm.dbg.value(metadata i32 0, metadata !1944, metadata !DIExpression()), !dbg !2002
  %call36 = call i32 (i8*, ...) @printf(i8* getelementptr inbounds ([20 x i8], [20 x i8]* @.str.6.139, i64 0, i64 0)), !dbg !2003
  %gl_pathv = getelementptr inbounds %struct.glob_t, %struct.glob_t* %glob_buf, i64 0, i32 1, !dbg !2004
  %6 = load i8**, i8*** %gl_pathv, align 8, !dbg !2004, !tbaa !2006
  call void @llvm.dbg.value(metadata i8** %6, metadata !1915, metadata !DIExpression()), !dbg !2008
  call void @llvm.dbg.value(metadata i32 0, metadata !1944, metadata !DIExpression()), !dbg !2002
  %7 = load i8*, i8** %6, align 8, !dbg !2009, !tbaa !953
  %tobool3892 = icmp eq i8* %7, null, !dbg !2011
  call void @llvm.dbg.value(metadata i32 1, metadata !1944, metadata !DIExpression()), !dbg !2002
  %putchar93 = call i32 @putchar(i32 10), !dbg !2012
  br i1 %tobool3892, label %for.end55, label %for.body39.preheader, !dbg !2011

for.body39.preheader:                             ; preds = %for.end
  call void @_Z24__sanitizer_cov_trace_pcv(), !dbg !2013
  call void asm sideeffect "", ""(), !dbg !2013
  br label %for.body39, !dbg !2013

for.body39:                                       ; preds = %for.body39.preheader, %for.inc53
  %inc95 = phi i32 [ %inc, %for.inc53 ], [ 1, %for.body39.preheader ]
  %ptr.094 = phi i8** [ %incdec.ptr54, %for.inc53 ], [ %6, %for.body39.preheader ]
  call void @_Z24__sanitizer_cov_trace_pcv(), !dbg !2008
  call void asm sideeffect "", ""(), !dbg !2008
  call void @llvm.dbg.value(metadata i8** %ptr.094, metadata !1915, metadata !DIExpression()), !dbg !2008
  %8 = load i8*, i8** %ptr.094, align 8, !dbg !2013, !tbaa !953
  %call44 = call i8* @strrchr(i8* %8, i32 47) #18, !dbg !2015
  call void @llvm.dbg.value(metadata i8* %call44, metadata !1911, metadata !DIExpression()), !dbg !1955
  %tobool45 = icmp eq i8* %call44, null, !dbg !2016
  br i1 %tobool45, label %for.inc53, label %if.end47, !dbg !2018

if.end47:                                         ; preds = %for.body39
  call void @_Z24__sanitizer_cov_trace_pcv(), !dbg !2019
  call void asm sideeffect "", ""(), !dbg !2019
  %incdec.ptr = getelementptr inbounds i8, i8* %call44, i64 1, !dbg !2019
  call void @llvm.dbg.value(metadata i8* %incdec.ptr, metadata !1911, metadata !DIExpression()), !dbg !1955
  %call48 = call i8* @strchr(i8* nonnull %incdec.ptr, i32 46) #10, !dbg !2020
  call void @llvm.dbg.value(metadata i8* %call48, metadata !1912, metadata !DIExpression()), !dbg !1961
  %tobool49 = icmp eq i8* %call48, null, !dbg !2022
  br i1 %tobool49, label %if.end51, label %if.then50, !dbg !2023

if.then50:                                        ; preds = %if.end47
  call void @_Z24__sanitizer_cov_trace_pcv(), !dbg !2024
  call void asm sideeffect "", ""(), !dbg !2024
  store i8 0, i8* %call48, align 1, !dbg !2024, !tbaa !995
  br label %if.end51, !dbg !2025

if.end51:                                         ; preds = %if.end47, %if.then50
  call void @_Z24__sanitizer_cov_trace_pcv(), !dbg !2026
  call void asm sideeffect "", ""(), !dbg !2026
  %9 = load %struct._IO_FILE*, %struct._IO_FILE** @stdout, align 8, !dbg !2026, !tbaa !953
  %call52 = call i32 @fputs(i8* nonnull %incdec.ptr, %struct._IO_FILE* %9), !dbg !2027
  br label %for.inc53, !dbg !2028

for.inc53:                                        ; preds = %for.body39, %if.end51
  call void @_Z24__sanitizer_cov_trace_pcv(), !dbg !2029
  call void asm sideeffect "", ""(), !dbg !2029
  %incdec.ptr54 = getelementptr inbounds i8*, i8** %ptr.094, i64 1, !dbg !2029
  call void @llvm.dbg.value(metadata i32 %inc95, metadata !1944, metadata !DIExpression()), !dbg !2002
  call void @llvm.dbg.value(metadata i8** %incdec.ptr54, metadata !1915, metadata !DIExpression()), !dbg !2008
  %10 = load i8*, i8** %incdec.ptr54, align 8, !dbg !2009, !tbaa !953
  %tobool38 = icmp eq i8* %10, null, !dbg !2011
  %inc = add nuw nsw i32 %inc95, 1
  call void @llvm.dbg.value(metadata i32 %inc, metadata !1944, metadata !DIExpression()), !dbg !2002
  %rem = urem i32 %inc95, 5
  call void @_Z32__sanitizer_cov_trace_const_cmp4jj(i32 0, i32 %rem)
  %tobool40 = icmp eq i32 %rem, 0
  %cond41 = select i1 %tobool40, i32 10, i32 9
  %putchar = call i32 @putchar(i32 %cond41), !dbg !2012
  br i1 %tobool38, label %for.end55, label %for.body39, !dbg !2011, !llvm.loop !2030

for.end55:                                        ; preds = %for.inc53, %for.end
  call void @_Z24__sanitizer_cov_trace_pcv(), !dbg !2032
  call void asm sideeffect "", ""(), !dbg !2032
  %11 = load %struct._IO_FILE*, %struct._IO_FILE** @stdout, align 8, !dbg !2032, !tbaa !953
  %12 = call i64 @fwrite(i8* getelementptr inbounds ([6 x i8], [6 x i8]* @.str.1.130, i64 0, i64 0), i64 5, i64 1, %struct._IO_FILE* %11), !dbg !2033
  %putchar88 = call i32 @putchar(i32 10), !dbg !2034
  call void @llvm.dbg.value(metadata %struct.glob_t* %glob_buf, metadata !1916, metadata !DIExpression()), !dbg !1994
  call void @globfree(%struct.glob_t* nonnull %glob_buf) #10, !dbg !2035
  call void @llvm.lifetime.end.p0i8(i64 72, i8* nonnull %2) #10, !dbg !2036
  call void @llvm.lifetime.end.p0i8(i64 2, i8* nonnull %1) #10, !dbg !2036
  call void @llvm.lifetime.end.p0i8(i64 1024, i8* nonnull %0) #10, !dbg !2036
  ret void, !dbg !2036
}

; Function Attrs: nounwind
declare i32 @printf(i8* nocapture readonly, ...) local_unnamed_addr #6

; Function Attrs: nounwind uwtable
define void @help() local_unnamed_addr #4 !dbg !2037 {
entry:
  call void @_Z24__sanitizer_cov_trace_pcv(), !dbg !2038
  call void asm sideeffect "", ""(), !dbg !2038
  %puts = tail call i32 @puts(i8* getelementptr inbounds ([86 x i8], [86 x i8]* @str, i64 0, i64 0)), !dbg !2038
  ret void, !dbg !2039
}

; Function Attrs: nounwind
declare i64 @fwrite(i8* nocapture, i64, i64, %struct._IO_FILE* nocapture) local_unnamed_addr #10

; Function Attrs: nounwind uwtable
define noalias i16* @read_charset(i8* %filename) local_unnamed_addr #4 !dbg !2040 {
entry:
  call void @_Z24__sanitizer_cov_trace_pcv()
  call void asm sideeffect "", ""()
  %c = alloca i32, align 4
  %uc = alloca i64, align 8
  call void @llvm.dbg.value(metadata i8* %filename, metadata !2044, metadata !DIExpression()), !dbg !2050
  %0 = bitcast i32* %c to i8*, !dbg !2051
  call void @llvm.lifetime.start.p0i8(i64 4, i8* nonnull %0) #10, !dbg !2051
  %1 = bitcast i64* %uc to i8*, !dbg !2052
  call void @llvm.lifetime.start.p0i8(i64 8, i8* nonnull %1) #10, !dbg !2052
  %call = tail call i8* @stradd(i8* %filename, i8* getelementptr inbounds ([5 x i8], [5 x i8]* @.str.4.90, i64 0, i64 0)) #10, !dbg !2053
  %2 = load i8*, i8** @charset_path, align 8, !dbg !2054, !tbaa !953
  %call1 = tail call i8* @find_file(i8* %call, i8* %2) #10, !dbg !2055
  call void @llvm.dbg.value(metadata i8* %call1, metadata !2045, metadata !DIExpression()), !dbg !2056
  %tobool = icmp eq i8* %call1, null, !dbg !2057
  br i1 %tobool, label %if.then, label %if.end, !dbg !2059

if.then:                                          ; preds = %entry
  call void @_Z24__sanitizer_cov_trace_pcv(), !dbg !2060
  call void asm sideeffect "", ""(), !dbg !2060
  %3 = load %struct._IO_FILE*, %struct._IO_FILE** @stderr, align 8, !dbg !2060, !tbaa !953
  %call2 = tail call i32 (%struct._IO_FILE*, i8*, ...) @fprintf(%struct._IO_FILE* %3, i8* getelementptr inbounds ([41 x i8], [41 x i8]* @.str.5.91, i64 0, i64 0), i8* %filename) #16, !dbg !2062
  br label %cleanup, !dbg !2063

if.end:                                           ; preds = %entry
  call void @_Z24__sanitizer_cov_trace_pcv(), !dbg !2064
  call void asm sideeffect "", ""(), !dbg !2064
  %call3 = tail call %struct._IO_FILE* @fopen(i8* nonnull %call1, i8* getelementptr inbounds ([3 x i8], [3 x i8]* @.str.6.92, i64 0, i64 0)), !dbg !2064
  call void @llvm.dbg.value(metadata %struct._IO_FILE* %call3, metadata !2046, metadata !DIExpression()), !dbg !2065
  %tobool4 = icmp eq %struct._IO_FILE* %call3, null, !dbg !2066
  br i1 %tobool4, label %if.then5, label %if.end6, !dbg !2068

if.then5:                                         ; preds = %if.end
  call void @_Z24__sanitizer_cov_trace_pcv(), !dbg !2069
  call void asm sideeffect "", ""(), !dbg !2069
  tail call void @perror(i8* nonnull %call1) #16, !dbg !2069
  br label %cleanup, !dbg !2071

if.end6:                                          ; preds = %if.end
  call void @_Z24__sanitizer_cov_trace_pcv(), !dbg !2072
  call void asm sideeffect "", ""(), !dbg !2072
  %4 = load i8*, i8** @input_buffer, align 8, !dbg !2072, !tbaa !953
  %tobool7 = icmp eq i8* %4, null, !dbg !2072
  br i1 %tobool7, label %if.end10, label %if.then8, !dbg !2074

if.then8:                                         ; preds = %if.end6
  call void @_Z24__sanitizer_cov_trace_pcv(), !dbg !2075
  call void asm sideeffect "", ""(), !dbg !2075
  %call9 = tail call i32 @setvbuf(%struct._IO_FILE* nonnull %call3, i8* nonnull %4, i32 0, i64 262144) #10, !dbg !2075
  br label %if.end10, !dbg !2075

if.end10:                                         ; preds = %if.end6, %if.then8
  call void @_Z24__sanitizer_cov_trace_pcv(), !dbg !2076
  call void asm sideeffect "", ""(), !dbg !2076
  %call11 = tail call noalias i8* @calloc(i64 2, i64 256) #10, !dbg !2076
  %5 = bitcast i8* %call11 to i16*, !dbg !2076
  call void @llvm.dbg.value(metadata i16* %5, metadata !2047, metadata !DIExpression()), !dbg !2077
  call void @llvm.dbg.value(metadata i32 0, metadata !2048, metadata !DIExpression()), !dbg !2078
  call void @llvm.dbg.value(metadata i64 0, metadata !2048, metadata !DIExpression()), !dbg !2078
  call void @llvm.dbg.value(metadata i64 0, metadata !2048, metadata !DIExpression()), !dbg !2078
  call void @llvm.dbg.value(metadata i32 1, metadata !2048, metadata !DIExpression()), !dbg !2078
  call void @llvm.dbg.value(metadata i64 1, metadata !2048, metadata !DIExpression()), !dbg !2078
  %arrayidx.1 = getelementptr inbounds i8, i8* %call11, i64 2, !dbg !2079
  call void @llvm.dbg.value(metadata i64 1, metadata !2048, metadata !DIExpression()), !dbg !2078
  call void @llvm.dbg.value(metadata i32 2, metadata !2048, metadata !DIExpression()), !dbg !2078
  call void @llvm.dbg.value(metadata i64 2, metadata !2048, metadata !DIExpression()), !dbg !2078
  call void @llvm.dbg.value(metadata i64 2, metadata !2048, metadata !DIExpression()), !dbg !2078
  call void @llvm.dbg.value(metadata i32 3, metadata !2048, metadata !DIExpression()), !dbg !2078
  call void @llvm.dbg.value(metadata i64 3, metadata !2048, metadata !DIExpression()), !dbg !2078
  call void @llvm.dbg.value(metadata i64 3, metadata !2048, metadata !DIExpression()), !dbg !2078
  call void @llvm.dbg.value(metadata i32 4, metadata !2048, metadata !DIExpression()), !dbg !2078
  call void @llvm.dbg.value(metadata i64 4, metadata !2048, metadata !DIExpression()), !dbg !2078
  call void @llvm.dbg.value(metadata i64 4, metadata !2048, metadata !DIExpression()), !dbg !2078
  call void @llvm.dbg.value(metadata i32 5, metadata !2048, metadata !DIExpression()), !dbg !2078
  call void @llvm.dbg.value(metadata i64 5, metadata !2048, metadata !DIExpression()), !dbg !2078
  call void @llvm.dbg.value(metadata i64 5, metadata !2048, metadata !DIExpression()), !dbg !2078
  call void @llvm.dbg.value(metadata i32 6, metadata !2048, metadata !DIExpression()), !dbg !2078
  call void @llvm.dbg.value(metadata i64 6, metadata !2048, metadata !DIExpression()), !dbg !2078
  call void @llvm.dbg.value(metadata i64 6, metadata !2048, metadata !DIExpression()), !dbg !2078
  call void @llvm.dbg.value(metadata i32 7, metadata !2048, metadata !DIExpression()), !dbg !2078
  call void @llvm.dbg.value(metadata i64 7, metadata !2048, metadata !DIExpression()), !dbg !2078
  call void @llvm.dbg.value(metadata i64 7, metadata !2048, metadata !DIExpression()), !dbg !2078
  call void @llvm.dbg.value(metadata i32 8, metadata !2048, metadata !DIExpression()), !dbg !2078
  call void @llvm.dbg.value(metadata i64 8, metadata !2048, metadata !DIExpression()), !dbg !2078
  %6 = bitcast i8* %arrayidx.1 to <8 x i16>*, !dbg !2083
  store <8 x i16> <i16 1, i16 2, i16 3, i16 4, i16 5, i16 6, i16 7, i16 8>, <8 x i16>* %6, align 2, !dbg !2083, !tbaa !1315
  call void @llvm.dbg.value(metadata i64 8, metadata !2048, metadata !DIExpression()), !dbg !2078
  call void @llvm.dbg.value(metadata i32 9, metadata !2048, metadata !DIExpression()), !dbg !2078
  call void @llvm.dbg.value(metadata i64 9, metadata !2048, metadata !DIExpression()), !dbg !2078
  %arrayidx.9 = getelementptr inbounds i8, i8* %call11, i64 18, !dbg !2079
  call void @llvm.dbg.value(metadata i64 9, metadata !2048, metadata !DIExpression()), !dbg !2078
  call void @llvm.dbg.value(metadata i32 10, metadata !2048, metadata !DIExpression()), !dbg !2078
  call void @llvm.dbg.value(metadata i64 10, metadata !2048, metadata !DIExpression()), !dbg !2078
  call void @llvm.dbg.value(metadata i64 10, metadata !2048, metadata !DIExpression()), !dbg !2078
  call void @llvm.dbg.value(metadata i32 11, metadata !2048, metadata !DIExpression()), !dbg !2078
  call void @llvm.dbg.value(metadata i64 11, metadata !2048, metadata !DIExpression()), !dbg !2078
  call void @llvm.dbg.value(metadata i64 11, metadata !2048, metadata !DIExpression()), !dbg !2078
  call void @llvm.dbg.value(metadata i32 12, metadata !2048, metadata !DIExpression()), !dbg !2078
  call void @llvm.dbg.value(metadata i64 12, metadata !2048, metadata !DIExpression()), !dbg !2078
  call void @llvm.dbg.value(metadata i64 12, metadata !2048, metadata !DIExpression()), !dbg !2078
  call void @llvm.dbg.value(metadata i32 13, metadata !2048, metadata !DIExpression()), !dbg !2078
  call void @llvm.dbg.value(metadata i64 13, metadata !2048, metadata !DIExpression()), !dbg !2078
  call void @llvm.dbg.value(metadata i64 13, metadata !2048, metadata !DIExpression()), !dbg !2078
  call void @llvm.dbg.value(metadata i32 14, metadata !2048, metadata !DIExpression()), !dbg !2078
  call void @llvm.dbg.value(metadata i64 14, metadata !2048, metadata !DIExpression()), !dbg !2078
  call void @llvm.dbg.value(metadata i64 14, metadata !2048, metadata !DIExpression()), !dbg !2078
  call void @llvm.dbg.value(metadata i32 15, metadata !2048, metadata !DIExpression()), !dbg !2078
  call void @llvm.dbg.value(metadata i64 15, metadata !2048, metadata !DIExpression()), !dbg !2078
  call void @llvm.dbg.value(metadata i64 15, metadata !2048, metadata !DIExpression()), !dbg !2078
  call void @llvm.dbg.value(metadata i32 16, metadata !2048, metadata !DIExpression()), !dbg !2078
  call void @llvm.dbg.value(metadata i64 16, metadata !2048, metadata !DIExpression()), !dbg !2078
  %7 = bitcast i8* %arrayidx.9 to <8 x i16>*, !dbg !2083
  store <8 x i16> <i16 9, i16 10, i16 11, i16 12, i16 13, i16 14, i16 15, i16 16>, <8 x i16>* %7, align 2, !dbg !2083, !tbaa !1315
  call void @llvm.dbg.value(metadata i64 16, metadata !2048, metadata !DIExpression()), !dbg !2078
  call void @llvm.dbg.value(metadata i32 17, metadata !2048, metadata !DIExpression()), !dbg !2078
  call void @llvm.dbg.value(metadata i64 17, metadata !2048, metadata !DIExpression()), !dbg !2078
  %arrayidx.17 = getelementptr inbounds i8, i8* %call11, i64 34, !dbg !2079
  call void @llvm.dbg.value(metadata i64 17, metadata !2048, metadata !DIExpression()), !dbg !2078
  call void @llvm.dbg.value(metadata i32 18, metadata !2048, metadata !DIExpression()), !dbg !2078
  call void @llvm.dbg.value(metadata i64 18, metadata !2048, metadata !DIExpression()), !dbg !2078
  call void @llvm.dbg.value(metadata i64 18, metadata !2048, metadata !DIExpression()), !dbg !2078
  call void @llvm.dbg.value(metadata i32 19, metadata !2048, metadata !DIExpression()), !dbg !2078
  call void @llvm.dbg.value(metadata i64 19, metadata !2048, metadata !DIExpression()), !dbg !2078
  call void @llvm.dbg.value(metadata i64 19, metadata !2048, metadata !DIExpression()), !dbg !2078
  call void @llvm.dbg.value(metadata i32 20, metadata !2048, metadata !DIExpression()), !dbg !2078
  call void @llvm.dbg.value(metadata i64 20, metadata !2048, metadata !DIExpression()), !dbg !2078
  call void @llvm.dbg.value(metadata i64 20, metadata !2048, metadata !DIExpression()), !dbg !2078
  call void @llvm.dbg.value(metadata i32 21, metadata !2048, metadata !DIExpression()), !dbg !2078
  call void @llvm.dbg.value(metadata i64 21, metadata !2048, metadata !DIExpression()), !dbg !2078
  call void @llvm.dbg.value(metadata i64 21, metadata !2048, metadata !DIExpression()), !dbg !2078
  call void @llvm.dbg.value(metadata i32 22, metadata !2048, metadata !DIExpression()), !dbg !2078
  call void @llvm.dbg.value(metadata i64 22, metadata !2048, metadata !DIExpression()), !dbg !2078
  call void @llvm.dbg.value(metadata i64 22, metadata !2048, metadata !DIExpression()), !dbg !2078
  call void @llvm.dbg.value(metadata i32 23, metadata !2048, metadata !DIExpression()), !dbg !2078
  call void @llvm.dbg.value(metadata i64 23, metadata !2048, metadata !DIExpression()), !dbg !2078
  call void @llvm.dbg.value(metadata i64 23, metadata !2048, metadata !DIExpression()), !dbg !2078
  call void @llvm.dbg.value(metadata i32 24, metadata !2048, metadata !DIExpression()), !dbg !2078
  call void @llvm.dbg.value(metadata i64 24, metadata !2048, metadata !DIExpression()), !dbg !2078
  %8 = bitcast i8* %arrayidx.17 to <8 x i16>*, !dbg !2083
  store <8 x i16> <i16 17, i16 18, i16 19, i16 20, i16 21, i16 22, i16 23, i16 24>, <8 x i16>* %8, align 2, !dbg !2083, !tbaa !1315
  call void @llvm.dbg.value(metadata i64 24, metadata !2048, metadata !DIExpression()), !dbg !2078
  call void @llvm.dbg.value(metadata i32 25, metadata !2048, metadata !DIExpression()), !dbg !2078
  call void @llvm.dbg.value(metadata i64 25, metadata !2048, metadata !DIExpression()), !dbg !2078
  %arrayidx.25 = getelementptr inbounds i8, i8* %call11, i64 50, !dbg !2079
  %9 = bitcast i8* %arrayidx.25 to i16*, !dbg !2079
  store i16 25, i16* %9, align 2, !dbg !2083, !tbaa !1315
  call void @llvm.dbg.value(metadata i64 25, metadata !2048, metadata !DIExpression()), !dbg !2078
  call void @llvm.dbg.value(metadata i32 26, metadata !2048, metadata !DIExpression()), !dbg !2078
  call void @llvm.dbg.value(metadata i64 26, metadata !2048, metadata !DIExpression()), !dbg !2078
  %arrayidx.26 = getelementptr inbounds i8, i8* %call11, i64 52, !dbg !2079
  %10 = bitcast i8* %arrayidx.26 to i16*, !dbg !2079
  store i16 26, i16* %10, align 2, !dbg !2083, !tbaa !1315
  call void @llvm.dbg.value(metadata i64 26, metadata !2048, metadata !DIExpression()), !dbg !2078
  call void @llvm.dbg.value(metadata i32 27, metadata !2048, metadata !DIExpression()), !dbg !2078
  call void @llvm.dbg.value(metadata i64 27, metadata !2048, metadata !DIExpression()), !dbg !2078
  %arrayidx.27 = getelementptr inbounds i8, i8* %call11, i64 54, !dbg !2079
  %11 = bitcast i8* %arrayidx.27 to i16*, !dbg !2079
  store i16 27, i16* %11, align 2, !dbg !2083, !tbaa !1315
  call void @llvm.dbg.value(metadata i64 27, metadata !2048, metadata !DIExpression()), !dbg !2078
  call void @llvm.dbg.value(metadata i32 28, metadata !2048, metadata !DIExpression()), !dbg !2078
  call void @llvm.dbg.value(metadata i64 28, metadata !2048, metadata !DIExpression()), !dbg !2078
  %arrayidx.28 = getelementptr inbounds i8, i8* %call11, i64 56, !dbg !2079
  %12 = bitcast i8* %arrayidx.28 to i16*, !dbg !2079
  store i16 28, i16* %12, align 2, !dbg !2083, !tbaa !1315
  call void @llvm.dbg.value(metadata i64 28, metadata !2048, metadata !DIExpression()), !dbg !2078
  call void @llvm.dbg.value(metadata i32 29, metadata !2048, metadata !DIExpression()), !dbg !2078
  call void @llvm.dbg.value(metadata i64 29, metadata !2048, metadata !DIExpression()), !dbg !2078
  %arrayidx.29 = getelementptr inbounds i8, i8* %call11, i64 58, !dbg !2079
  %13 = bitcast i8* %arrayidx.29 to i16*, !dbg !2079
  store i16 29, i16* %13, align 2, !dbg !2083, !tbaa !1315
  call void @llvm.dbg.value(metadata i64 29, metadata !2048, metadata !DIExpression()), !dbg !2078
  call void @llvm.dbg.value(metadata i32 30, metadata !2048, metadata !DIExpression()), !dbg !2078
  call void @llvm.dbg.value(metadata i64 30, metadata !2048, metadata !DIExpression()), !dbg !2078
  %arrayidx.30 = getelementptr inbounds i8, i8* %call11, i64 60, !dbg !2079
  %14 = bitcast i8* %arrayidx.30 to i16*, !dbg !2079
  store i16 30, i16* %14, align 2, !dbg !2083, !tbaa !1315
  call void @llvm.dbg.value(metadata i64 30, metadata !2048, metadata !DIExpression()), !dbg !2078
  call void @llvm.dbg.value(metadata i32 31, metadata !2048, metadata !DIExpression()), !dbg !2078
  call void @llvm.dbg.value(metadata i64 31, metadata !2048, metadata !DIExpression()), !dbg !2078
  %arrayidx.31 = getelementptr inbounds i8, i8* %call11, i64 62, !dbg !2079
  %15 = bitcast i8* %arrayidx.31 to i16*, !dbg !2079
  store i16 31, i16* %15, align 2, !dbg !2083, !tbaa !1315
  call void @llvm.dbg.value(metadata i64 31, metadata !2048, metadata !DIExpression()), !dbg !2078
  call void @llvm.dbg.value(metadata i32 32, metadata !2048, metadata !DIExpression()), !dbg !2078
  store i32 32, i32* %c, align 4, !tbaa !959
  %call1273 = call i32 @feof(%struct._IO_FILE* nonnull %call3) #10, !dbg !2084
  call void @_Z32__sanitizer_cov_trace_const_cmp4jj(i32 0, i32 %call1273), !dbg !2085
  %tobool1374 = icmp eq i32 %call1273, 0, !dbg !2085
  br i1 %tobool1374, label %while.body.preheader, label %while.end46, !dbg !2086

while.body.preheader:                             ; preds = %if.end10
  call void @_Z24__sanitizer_cov_trace_pcv(), !dbg !2087
  call void asm sideeffect "", ""(), !dbg !2087
  br label %while.body, !dbg !2087

while.body:                                       ; preds = %while.body.preheader, %while.end
  call void @_Z24__sanitizer_cov_trace_pcv(), !dbg !2078
  call void asm sideeffect "", ""(), !dbg !2078
  call void @llvm.dbg.value(metadata i32* %c, metadata !2048, metadata !DIExpression()), !dbg !2078
  call void @llvm.dbg.value(metadata i64* %uc, metadata !2049, metadata !DIExpression()), !dbg !2090
  %call14 = call i32 (%struct._IO_FILE*, i8*, ...) @__isoc99_fscanf(%struct._IO_FILE* nonnull %call3, i8* getelementptr inbounds ([7 x i8], [7 x i8]* @.str.7.93, i64 0, i64 0), i32* nonnull %c, i64* nonnull %uc) #10, !dbg !2087
  call void @_Z32__sanitizer_cov_trace_const_cmp4jj(i32 2, i32 %call14), !dbg !2091
  %cmp15 = icmp eq i32 %call14, 2, !dbg !2091
  br i1 %cmp15, label %if.then17, label %if.end37, !dbg !2092

if.then17:                                        ; preds = %while.body
  call void @_Z24__sanitizer_cov_trace_pcv(), !dbg !2093
  call void asm sideeffect "", ""(), !dbg !2093
  %16 = load i32, i32* %c, align 4, !dbg !2093, !tbaa !959
  call void @llvm.dbg.value(metadata i32 %16, metadata !2048, metadata !DIExpression()), !dbg !2078
  call void @_Z32__sanitizer_cov_trace_const_cmp4jj(i32 255, i32 %16), !dbg !2096
  %17 = icmp ugt i32 %16, 255, !dbg !2096
  %18 = load i64, i64* %uc, align 8, !dbg !2097
  call void @llvm.dbg.value(metadata i64 %18, metadata !2049, metadata !DIExpression()), !dbg !2090
  call void @_Z32__sanitizer_cov_trace_const_cmp8mm(i64 0, i64 %18), !dbg !2098
  %cmp23 = icmp slt i64 %18, 0, !dbg !2098
  %or.cond52 = or i1 %17, %cmp23, !dbg !2096
  br i1 %or.cond52, label %if.then30, label %lor.lhs.false25, !dbg !2096

lor.lhs.false25:                                  ; preds = %if.then17
  call void @_Z24__sanitizer_cov_trace_pcv(), !dbg !2099
  call void asm sideeffect "", ""(), !dbg !2099
  call void @_Z32__sanitizer_cov_trace_const_cmp8mm(i64 65278, i64 %18), !dbg !2099
  %cmp26 = icmp sgt i64 %18, 65278, !dbg !2099
  call void @_Z32__sanitizer_cov_trace_const_cmp8mm(i64 65534, i64 %18), !dbg !2100
  %cmp28 = icmp ne i64 %18, 65534, !dbg !2100
  %or.cond53 = and i1 %cmp26, %cmp28, !dbg !2101
  br i1 %or.cond53, label %if.then30, label %if.end33, !dbg !2101

if.then30:                                        ; preds = %lor.lhs.false25, %if.then17
  call void @_Z24__sanitizer_cov_trace_pcv(), !dbg !2102
  call void asm sideeffect "", ""(), !dbg !2102
  %19 = load %struct._IO_FILE*, %struct._IO_FILE** @stderr, align 8, !dbg !2102, !tbaa !953
  %call31 = call i32 (%struct._IO_FILE*, i8*, ...) @fprintf(%struct._IO_FILE* %19, i8* getelementptr inbounds ([25 x i8], [25 x i8]* @.str.8.94, i64 0, i64 0), i8* nonnull %call1) #16, !dbg !2104
  %call32 = call i32 @fclose(%struct._IO_FILE* nonnull %call3), !dbg !2105
  call void @free(i8* %call11) #10, !dbg !2106
  br label %cleanup, !dbg !2107

if.end33:                                         ; preds = %lor.lhs.false25
  call void @_Z24__sanitizer_cov_trace_pcv(), !dbg !2108
  call void asm sideeffect "", ""(), !dbg !2108
  %conv34 = trunc i64 %18 to i16, !dbg !2108
  %idxprom35 = sext i32 %16 to i64, !dbg !2109
  %arrayidx36 = getelementptr inbounds i16, i16* %5, i64 %idxprom35, !dbg !2109
  store i16 %conv34, i16* %arrayidx36, align 2, !dbg !2110, !tbaa !1315
  br label %if.end37, !dbg !2111

if.end37:                                         ; preds = %if.end33, %while.body
  call void @_Z24__sanitizer_cov_trace_pcv(), !dbg !2112
  call void asm sideeffect "", ""(), !dbg !2112
  %call3971 = call i32 @fgetc(%struct._IO_FILE* nonnull %call3), !dbg !2112
  call void @_Z32__sanitizer_cov_trace_const_cmp4jj(i32 10, i32 %call3971), !dbg !2113
  %cmp4072 = icmp eq i32 %call3971, 10, !dbg !2113
  br i1 %cmp4072, label %while.end, label %land.rhs.preheader, !dbg !2114

land.rhs.preheader:                               ; preds = %if.end37
  call void @_Z24__sanitizer_cov_trace_pcv(), !dbg !2115
  call void asm sideeffect "", ""(), !dbg !2115
  br label %land.rhs, !dbg !2115

while.cond38:                                     ; preds = %land.rhs
  call void @_Z24__sanitizer_cov_trace_pcv(), !dbg !2112
  call void asm sideeffect "", ""(), !dbg !2112
  %call39 = call i32 @fgetc(%struct._IO_FILE* nonnull %call3), !dbg !2112
  call void @_Z32__sanitizer_cov_trace_const_cmp4jj(i32 10, i32 %call39), !dbg !2113
  %cmp40 = icmp eq i32 %call39, 10, !dbg !2113
  br i1 %cmp40, label %while.end, label %land.rhs, !dbg !2114, !llvm.loop !2116

land.rhs:                                         ; preds = %land.rhs.preheader, %while.cond38
  call void @_Z24__sanitizer_cov_trace_pcv(), !dbg !2115
  call void asm sideeffect "", ""(), !dbg !2115
  %call42 = call i32 @feof(%struct._IO_FILE* nonnull %call3) #10, !dbg !2115
  call void @_Z32__sanitizer_cov_trace_const_cmp4jj(i32 0, i32 %call42), !dbg !2119
  %tobool43 = icmp eq i32 %call42, 0, !dbg !2119
  br i1 %tobool43, label %while.cond38, label %while.end, !dbg !2117

while.end:                                        ; preds = %land.rhs, %while.cond38, %if.end37
  call void @_Z24__sanitizer_cov_trace_pcv(), !dbg !2084
  call void asm sideeffect "", ""(), !dbg !2084
  %call12 = call i32 @feof(%struct._IO_FILE* nonnull %call3) #10, !dbg !2084
  call void @_Z32__sanitizer_cov_trace_const_cmp4jj(i32 0, i32 %call12), !dbg !2085
  %tobool13 = icmp eq i32 %call12, 0, !dbg !2085
  br i1 %tobool13, label %while.body, label %while.end46, !dbg !2086, !llvm.loop !2120

while.end46:                                      ; preds = %while.end, %if.end10
  call void @_Z24__sanitizer_cov_trace_pcv(), !dbg !2122
  call void asm sideeffect "", ""(), !dbg !2122
  %call47 = call i32 @fclose(%struct._IO_FILE* nonnull %call3), !dbg !2122
  call void @free(i8* %call1) #10, !dbg !2123
  br label %cleanup, !dbg !2124

cleanup:                                          ; preds = %while.end46, %if.then30, %if.then5, %if.then
  %retval.0 = phi i16* [ null, %if.then30 ], [ %5, %while.end46 ], [ null, %if.then5 ], [ null, %if.then ]
  call void @_Z24__sanitizer_cov_trace_pcv(), !dbg !2125
  call void asm sideeffect "", ""(), !dbg !2125
  call void @llvm.lifetime.end.p0i8(i64 8, i8* nonnull %1) #10, !dbg !2125
  call void @llvm.lifetime.end.p0i8(i64 4, i8* nonnull %0) #10, !dbg !2125
  ret i16* %retval.0, !dbg !2125
}

; Function Attrs: nounwind readonly
declare i32 @strcmp(i8* nocapture, i8* nocapture) local_unnamed_addr #8

; Function Attrs: nounwind uwtable
define noalias i16** @make_reverse_map(i16* readonly %charset) local_unnamed_addr #4 !dbg !2126 {
entry:
  call void @_Z24__sanitizer_cov_trace_pcv(), !dbg !2137
  call void asm sideeffect "", ""(), !dbg !2137
  call void @llvm.dbg.value(metadata i16* %charset, metadata !2130, metadata !DIExpression()), !dbg !2137
  %call = tail call noalias i8* @calloc(i64 8, i64 256) #10, !dbg !2138
  %0 = bitcast i8* %call to i16**, !dbg !2138
  call void @llvm.dbg.value(metadata i16** %0, metadata !2131, metadata !DIExpression()), !dbg !2139
  %tobool = icmp eq i16* %charset, null, !dbg !2140
  br i1 %tobool, label %if.then, label %for.body.preheader, !dbg !2142

for.body.preheader:                               ; preds = %entry
  call void @_Z24__sanitizer_cov_trace_pcv(), !dbg !2143
  call void asm sideeffect "", ""(), !dbg !2143
  br label %for.body, !dbg !2143

if.then:                                          ; preds = %entry
  call void @_Z24__sanitizer_cov_trace_pcv(), !dbg !2147
  call void asm sideeffect "", ""(), !dbg !2147
  tail call void @free(i8* %call) #10, !dbg !2147
  br label %cleanup, !dbg !2149

for.body:                                         ; preds = %for.body.preheader, %if.end20
  %indvars.iv = phi i64 [ %indvars.iv.next, %if.end20 ], [ 0, %for.body.preheader ]
  %i.060 = phi i32 [ %inc27, %if.end20 ], [ 0, %for.body.preheader ]
  call void @_Z24__sanitizer_cov_trace_pcv(), !dbg !2150
  call void asm sideeffect "", ""(), !dbg !2150
  call void @llvm.dbg.value(metadata i64 %indvars.iv, metadata !2132, metadata !DIExpression()), !dbg !2150
  %arrayidx = getelementptr inbounds i16, i16* %charset, i64 %indvars.iv, !dbg !2143
  %1 = load i16, i16* %arrayidx, align 2, !dbg !2143, !tbaa !1315
  %conv = sext i16 %1 to i32, !dbg !2143
  call void @llvm.dbg.value(metadata i32 %conv, metadata !2134, metadata !DIExpression()), !dbg !2151
  %shr = lshr i32 %conv, 8, !dbg !2152
  call void @llvm.dbg.value(metadata i32 %shr, metadata !2133, metadata !DIExpression()), !dbg !2153
  %2 = zext i32 %shr to i64, !dbg !2154
  %arrayidx2 = getelementptr inbounds i16*, i16** %0, i64 %2, !dbg !2154
  %3 = load i16*, i16** %arrayidx2, align 8, !dbg !2154, !tbaa !953
  %tobool3 = icmp eq i16* %3, null, !dbg !2154
  br i1 %tobool3, label %if.then4, label %if.end20, !dbg !2156

if.then4:                                         ; preds = %for.body
  call void @_Z24__sanitizer_cov_trace_pcv(), !dbg !2157
  call void asm sideeffect "", ""(), !dbg !2157
  %call5 = tail call noalias i8* @malloc(i64 512) #10, !dbg !2157
  %4 = bitcast i16** %arrayidx2 to i8**, !dbg !2159
  store i8* %call5, i8** %4, align 8, !dbg !2159, !tbaa !953
  %tobool10 = icmp eq i8* %call5, null, !dbg !2160
  br i1 %tobool10, label %if.then11, label %if.end13, !dbg !2162

if.then11:                                        ; preds = %if.then4
  call void @_Z24__sanitizer_cov_trace_pcv(), !dbg !2163
  call void asm sideeffect "", ""(), !dbg !2163
  %5 = load %struct._IO_FILE*, %struct._IO_FILE** @stderr, align 8, !dbg !2163, !tbaa !953
  %6 = tail call i64 @fwrite(i8* getelementptr inbounds ([34 x i8], [34 x i8]* @.str.3.87, i64 0, i64 0), i64 33, i64 1, %struct._IO_FILE* %5) #16, !dbg !2165
  tail call void @exit(i32 1) #17, !dbg !2166
  unreachable, !dbg !2166

if.end13:                                         ; preds = %if.then4
  call void @_Z24__sanitizer_cov_trace_pcv(), !dbg !2162
  call void asm sideeffect "", ""(), !dbg !2162
  %7 = bitcast i8* %call5 to i16*, !dbg !2162
  call void @llvm.dbg.value(metadata i32 0, metadata !2135, metadata !DIExpression()), !dbg !2167
  call void @llvm.dbg.value(metadata i16* %7, metadata !2136, metadata !DIExpression()), !dbg !2168
  call void @llvm.memset.p0i8.i64(i8* nonnull %call5, i8 -1, i64 512, i32 2, i1 false), !dbg !2169
  br label %if.end20, !dbg !2172

if.end20:                                         ; preds = %if.end13, %for.body
  %8 = phi i16* [ %7, %if.end13 ], [ %3, %for.body ], !dbg !2172
  call void @_Z24__sanitizer_cov_trace_pcv(), !dbg !2168
  call void asm sideeffect "", ""(), !dbg !2168
  call void @llvm.dbg.value(metadata i16* %8, metadata !2136, metadata !DIExpression()), !dbg !2168
  %conv23 = trunc i32 %i.060 to i16, !dbg !2173
  %and = and i32 %conv, 255, !dbg !2174
  %9 = zext i32 %and to i64, !dbg !2175
  %arrayidx25 = getelementptr inbounds i16, i16* %8, i64 %9, !dbg !2175
  store i16 %conv23, i16* %arrayidx25, align 2, !dbg !2176, !tbaa !1315
  %indvars.iv.next = add nuw nsw i64 %indvars.iv, 1, !dbg !2177
  %inc27 = add nuw nsw i32 %i.060, 1, !dbg !2177
  call void @llvm.dbg.value(metadata i32 %inc27, metadata !2132, metadata !DIExpression()), !dbg !2150
  call void @_Z32__sanitizer_cov_trace_const_cmp8mm(i64 256, i64 %indvars.iv.next), !dbg !2178
  %cmp = icmp ult i64 %indvars.iv.next, 256, !dbg !2178
  br i1 %cmp, label %for.body, label %cleanup, !dbg !2179, !llvm.loop !2180

cleanup:                                          ; preds = %if.end20, %if.then
  %retval.0 = phi i16** [ null, %if.then ], [ %0, %if.end20 ]
  call void @_Z24__sanitizer_cov_trace_pcv(), !dbg !2182
  call void asm sideeffect "", ""(), !dbg !2182
  ret i16** %retval.0, !dbg !2182
}

; Function Attrs: nounwind uwtable
define i8* @stradd(i8* nocapture readonly %s1, i8* nocapture readonly %s2) local_unnamed_addr #4 !dbg !2183 {
entry:
  call void @_Z24__sanitizer_cov_trace_pcv(), !dbg !2190
  call void asm sideeffect "", ""(), !dbg !2190
  call void @llvm.dbg.value(metadata i8* %s1, metadata !2187, metadata !DIExpression()), !dbg !2190
  call void @llvm.dbg.value(metadata i8* %s2, metadata !2188, metadata !DIExpression()), !dbg !2191
  %call = tail call i64 @strlen(i8* %s1) #18, !dbg !2192
  %call1 = tail call i64 @strlen(i8* %s2) #18, !dbg !2193
  %add = add i64 %call, 1, !dbg !2194
  %add2 = add i64 %add, %call1, !dbg !2195
  %call3 = tail call noalias i8* @malloc(i64 %add2) #10, !dbg !2196
  call void @llvm.dbg.value(metadata i8* %call3, metadata !2189, metadata !DIExpression()), !dbg !2197
  %tobool = icmp eq i8* %call3, null, !dbg !2198
  br i1 %tobool, label %if.then, label %if.end, !dbg !2200

if.then:                                          ; preds = %entry
  call void @_Z24__sanitizer_cov_trace_pcv(), !dbg !2201
  call void asm sideeffect "", ""(), !dbg !2201
  %0 = load %struct._IO_FILE*, %struct._IO_FILE** @stderr, align 8, !dbg !2201, !tbaa !953
  %1 = tail call i64 @fwrite(i8* getelementptr inbounds ([15 x i8], [15 x i8]* @.str.3.134, i64 0, i64 0), i64 14, i64 1, %struct._IO_FILE* %0) #16, !dbg !2203
  tail call void @exit(i32 1) #17, !dbg !2204
  unreachable, !dbg !2204

if.end:                                           ; preds = %entry
  call void @_Z24__sanitizer_cov_trace_pcv(), !dbg !2205
  call void asm sideeffect "", ""(), !dbg !2205
  %call5 = tail call i8* @strcpy(i8* nonnull %call3, i8* %s1) #10, !dbg !2205
  %call6 = tail call i8* @strcat(i8* nonnull %call3, i8* %s2) #10, !dbg !2206
  ret i8* %call3, !dbg !2207
}

; Function Attrs: nounwind uwtable
define noalias i8*** @read_substmap(i8* %filename) local_unnamed_addr #4 !dbg !2208 {
entry:
  call void @_Z24__sanitizer_cov_trace_pcv()
  call void asm sideeffect "", ""()
  %line = alloca [1024 x i8], align 16
  %p = alloca i8*, align 8
  %s = alloca [256 x i8], align 16
  call void @llvm.dbg.value(metadata i8* %filename, metadata !2212, metadata !DIExpression()), !dbg !2267
  %call = tail call noalias i8* @calloc(i64 8, i64 256) #10, !dbg !2268
  %0 = bitcast i8* %call to i8***, !dbg !2268
  call void @llvm.dbg.value(metadata i8*** %0, metadata !2254, metadata !DIExpression()), !dbg !2269
  %1 = getelementptr inbounds [1024 x i8], [1024 x i8]* %line, i64 0, i64 0, !dbg !2270
  call void @llvm.lifetime.start.p0i8(i64 1024, i8* nonnull %1) #10, !dbg !2270
  call void @llvm.dbg.declare(metadata [1024 x i8]* %line, metadata !2256, metadata !DIExpression()), !dbg !2271
  %2 = bitcast i8** %p to i8*, !dbg !2270
  call void @llvm.lifetime.start.p0i8(i64 8, i8* nonnull %2) #10, !dbg !2270
  %3 = getelementptr inbounds [256 x i8], [256 x i8]* %s, i64 0, i64 0, !dbg !2272
  call void @llvm.lifetime.start.p0i8(i64 256, i8* nonnull %3) #10, !dbg !2272
  call void @llvm.dbg.declare(metadata [256 x i8]* %s, metadata !2259, metadata !DIExpression()), !dbg !2273
  call void @llvm.dbg.value(metadata i32 0, metadata !2263, metadata !DIExpression()), !dbg !2274
  %4 = load i8*, i8** @map_path, align 8, !dbg !2275, !tbaa !953
  %call1 = tail call i8* @find_file(i8* %filename, i8* %4) #10, !dbg !2276
  call void @llvm.dbg.value(metadata i8* %call1, metadata !2255, metadata !DIExpression()), !dbg !2277
  %tobool = icmp eq i8* %call1, null, !dbg !2278
  br i1 %tobool, label %if.then, label %if.end, !dbg !2280

if.then:                                          ; preds = %entry
  call void @_Z24__sanitizer_cov_trace_pcv(), !dbg !2281
  call void asm sideeffect "", ""(), !dbg !2281
  tail call void @free(i8* %call) #10, !dbg !2281
  br label %cleanup, !dbg !2283

if.end:                                           ; preds = %entry
  call void @_Z24__sanitizer_cov_trace_pcv(), !dbg !2284
  call void asm sideeffect "", ""(), !dbg !2284
  %tobool2 = icmp eq i8* %call, null, !dbg !2284
  br i1 %tobool2, label %if.then3, label %if.end5, !dbg !2286

if.then3:                                         ; preds = %if.end
  call void @_Z24__sanitizer_cov_trace_pcv(), !dbg !2287
  call void asm sideeffect "", ""(), !dbg !2287
  %5 = load %struct._IO_FILE*, %struct._IO_FILE** @stderr, align 8, !dbg !2287, !tbaa !953
  %6 = tail call i64 @fwrite(i8* getelementptr inbounds ([21 x i8], [21 x i8]* @.str.1.119, i64 0, i64 0), i64 20, i64 1, %struct._IO_FILE* %5) #16, !dbg !2289
  tail call void @exit(i32 1) #17, !dbg !2290
  unreachable, !dbg !2290

if.end5:                                          ; preds = %if.end
  call void @_Z24__sanitizer_cov_trace_pcv(), !dbg !2291
  call void asm sideeffect "", ""(), !dbg !2291
  %call6 = tail call %struct._IO_FILE* @fopen(i8* nonnull %call1, i8* getelementptr inbounds ([3 x i8], [3 x i8]* @.str.2.120, i64 0, i64 0)), !dbg !2291
  call void @llvm.dbg.value(metadata %struct._IO_FILE* %call6, metadata !2213, metadata !DIExpression()), !dbg !2292
  %tobool7 = icmp eq %struct._IO_FILE* %call6, null, !dbg !2293
  br i1 %tobool7, label %if.then8, label %if.end9, !dbg !2295

if.then8:                                         ; preds = %if.end5
  call void @_Z24__sanitizer_cov_trace_pcv(), !dbg !2296
  call void asm sideeffect "", ""(), !dbg !2296
  tail call void @perror(i8* nonnull %call1) #16, !dbg !2296
  tail call void @free(i8* nonnull %call) #10, !dbg !2298
  br label %cleanup, !dbg !2299

if.end9:                                          ; preds = %if.end5
  call void @_Z24__sanitizer_cov_trace_pcv(), !dbg !2300
  call void asm sideeffect "", ""(), !dbg !2300
  %7 = load i8*, i8** @input_buffer, align 8, !dbg !2300, !tbaa !953
  %tobool10 = icmp eq i8* %7, null, !dbg !2300
  br i1 %tobool10, label %if.end13, label %if.then11, !dbg !2302

if.then11:                                        ; preds = %if.end9
  call void @_Z24__sanitizer_cov_trace_pcv(), !dbg !2303
  call void asm sideeffect "", ""(), !dbg !2303
  %call12 = tail call i32 @setvbuf(%struct._IO_FILE* nonnull %call6, i8* nonnull %7, i32 0, i64 262144) #10, !dbg !2303
  br label %if.end13, !dbg !2303

if.end13:                                         ; preds = %if.end9, %if.then11
  call void @_Z24__sanitizer_cov_trace_pcv(), !dbg !2274
  call void asm sideeffect "", ""(), !dbg !2274
  call void @llvm.dbg.value(metadata i32 0, metadata !2263, metadata !DIExpression()), !dbg !2274
  %call14219236 = call i32 @feof(%struct._IO_FILE* nonnull %call6) #10, !dbg !2304
  call void @_Z32__sanitizer_cov_trace_const_cmp4jj(i32 0, i32 %call14219236), !dbg !2305
  %tobool15220237 = icmp eq i32 %call14219236, 0, !dbg !2305
  br i1 %tobool15220237, label %while.body.lr.ph.preheader, label %while.end149, !dbg !2306

while.body.lr.ph.preheader:                       ; preds = %if.end13
  call void @_Z24__sanitizer_cov_trace_pcv(), !dbg !2306
  call void asm sideeffect "", ""(), !dbg !2306
  br label %while.body.lr.ph, !dbg !2306

while.body.lr.ph:                                 ; preds = %while.body.lr.ph.preheader, %while.cond.outer.backedge
  %lineno.0.ph238 = phi i32 [ %inc, %while.cond.outer.backedge ], [ 0, %while.body.lr.ph.preheader ]
  call void @_Z24__sanitizer_cov_trace_pcv(), !dbg !2274
  call void asm sideeffect "", ""(), !dbg !2274
  call void @llvm.dbg.value(metadata i32 %lineno.0.ph238, metadata !2263, metadata !DIExpression()), !dbg !2274
  br label %while.body, !dbg !2306

while.cond:                                       ; preds = %while.body
  call void @_Z24__sanitizer_cov_trace_pcv(), !dbg !2274
  call void asm sideeffect "", ""(), !dbg !2274
  call void @llvm.dbg.value(metadata i32 undef, metadata !2263, metadata !DIExpression()), !dbg !2274
  %call14 = call i32 @feof(%struct._IO_FILE* nonnull %call6) #10, !dbg !2304
  call void @_Z32__sanitizer_cov_trace_const_cmp4jj(i32 0, i32 %call14), !dbg !2305
  %tobool15 = icmp eq i32 %call14, 0, !dbg !2305
  br i1 %tobool15, label %while.body, label %while.end149, !dbg !2306, !llvm.loop !2307

while.body:                                       ; preds = %while.body.lr.ph, %while.cond
  call void @_Z24__sanitizer_cov_trace_pcv(), !dbg !2309
  call void asm sideeffect "", ""(), !dbg !2309
  %call16 = call i8* @fgets(i8* nonnull %1, i32 1024, %struct._IO_FILE* nonnull %call6), !dbg !2309
  %tobool17 = icmp eq i8* %call16, null, !dbg !2309
  br i1 %tobool17, label %while.cond, label %if.end19, !dbg !2312

if.end19:                                         ; preds = %while.body
  call void @_Z24__sanitizer_cov_trace_pcv(), !dbg !2313
  call void asm sideeffect "", ""(), !dbg !2313
  %inc = add nuw nsw i32 %lineno.0.ph238, 1, !dbg !2313
  call void @llvm.dbg.value(metadata i8* %1, metadata !2257, metadata !DIExpression()), !dbg !2314
  store i8* %1, i8** %p, align 8, !tbaa !953
  %8 = load i8, i8* %1, align 16, !dbg !2315, !tbaa !995
  call void @_Z32__sanitizer_cov_trace_const_cmp1hh(i8 0, i8 %8), !dbg !2315
  %tobool21221 = icmp eq i8 %8, 0, !dbg !2315
  br i1 %tobool21221, label %while.cond.outer.backedge, label %land.rhs.lr.ph, !dbg !2318

land.rhs.lr.ph:                                   ; preds = %if.end19
  call void @_Z24__sanitizer_cov_trace_pcv(), !dbg !2319
  call void asm sideeffect "", ""(), !dbg !2319
  %call22 = tail call i16** @__ctype_b_loc() #1, !dbg !2319
  %.pre = load i16*, i16** %call22, align 8, !dbg !2319, !tbaa !953
  br label %land.rhs, !dbg !2318

land.rhs:                                         ; preds = %land.rhs.lr.ph, %for.inc
  %9 = phi i8 [ %8, %land.rhs.lr.ph ], [ %12, %for.inc ]
  %storemerge222 = phi i8* [ %1, %land.rhs.lr.ph ], [ %incdec.ptr, %for.inc ]
  call void @_Z24__sanitizer_cov_trace_pcv(), !dbg !2314
  call void asm sideeffect "", ""(), !dbg !2314
  call void @llvm.dbg.value(metadata i8* %storemerge222, metadata !2257, metadata !DIExpression()), !dbg !2314
  %idxprom = sext i8 %9 to i64, !dbg !2319
  %arrayidx = getelementptr inbounds i16, i16* %.pre, i64 %idxprom, !dbg !2319
  %10 = load i16, i16* %arrayidx, align 2, !dbg !2319, !tbaa !1315
  %11 = and i16 %10, 8192, !dbg !2319
  call void @_Z32__sanitizer_cov_trace_const_cmp2tt(i16 0, i16 %11), !dbg !2318
  %tobool25 = icmp eq i16 %11, 0, !dbg !2318
  br i1 %tobool25, label %for.end, label %for.inc, !dbg !2320

for.inc:                                          ; preds = %land.rhs
  call void @_Z24__sanitizer_cov_trace_pcv(), !dbg !2321
  call void asm sideeffect "", ""(), !dbg !2321
  %incdec.ptr = getelementptr inbounds i8, i8* %storemerge222, i64 1, !dbg !2321
  store i8* %incdec.ptr, i8** %p, align 8, !tbaa !953
  call void @llvm.dbg.value(metadata i8* %incdec.ptr, metadata !2257, metadata !DIExpression()), !dbg !2314
  %12 = load i8, i8* %incdec.ptr, align 1, !dbg !2315, !tbaa !995
  call void @_Z32__sanitizer_cov_trace_const_cmp1hh(i8 0, i8 %12), !dbg !2315
  %tobool21 = icmp eq i8 %12, 0, !dbg !2315
  br i1 %tobool21, label %while.cond.outer.backedge, label %land.rhs, !dbg !2318, !llvm.loop !2322

for.end:                                          ; preds = %land.rhs
  call void @_Z24__sanitizer_cov_trace_pcv(), !dbg !2314
  call void asm sideeffect "", ""(), !dbg !2314
  call void @llvm.dbg.value(metadata i8* undef, metadata !2257, metadata !DIExpression()), !dbg !2314
  call void @_Z32__sanitizer_cov_trace_const_cmp1hh(i8 35, i8 %9), !dbg !2324
  %cond = icmp eq i8 %9, 35, !dbg !2324
  br i1 %cond, label %while.cond.outer.backedge, label %if.end30, !dbg !2324

while.cond.outer.backedge:                        ; preds = %for.inc, %if.end48, %for.cond49.if.then66_crit_edge, %for.end, %if.end19, %if.then46, %map_insert.exit, %if.then105
  call void @_Z24__sanitizer_cov_trace_pcv(), !dbg !2274
  call void asm sideeffect "", ""(), !dbg !2274
  call void @llvm.dbg.value(metadata i32 %inc, metadata !2263, metadata !DIExpression()), !dbg !2274
  %call14219 = call i32 @feof(%struct._IO_FILE* nonnull %call6) #10, !dbg !2304
  call void @_Z32__sanitizer_cov_trace_const_cmp4jj(i32 0, i32 %call14219), !dbg !2305
  %tobool15220 = icmp eq i32 %call14219, 0, !dbg !2305
  br i1 %tobool15220, label %while.body.lr.ph, label %while.end149, !dbg !2306, !llvm.loop !2307

if.end30:                                         ; preds = %for.end
  call void @_Z24__sanitizer_cov_trace_pcv(), !dbg !2314
  call void asm sideeffect "", ""(), !dbg !2314
  call void @llvm.dbg.value(metadata i8** %p, metadata !2257, metadata !DIExpression()), !dbg !2314
  %call31 = call i64 @strtol(i8* nonnull %storemerge222, i8** nonnull %p, i32 16) #10, !dbg !2326
  %conv32 = trunc i64 %call31 to i32, !dbg !2326
  call void @llvm.dbg.value(metadata i32 %conv32, metadata !2265, metadata !DIExpression()), !dbg !2327
  %13 = load i16*, i16** %call22, align 8, !dbg !2328, !tbaa !953
  %14 = load i8*, i8** %p, align 8, !dbg !2328, !tbaa !953
  call void @llvm.dbg.value(metadata i8* %14, metadata !2257, metadata !DIExpression()), !dbg !2314
  %15 = load i8, i8* %14, align 1, !dbg !2328, !tbaa !995
  %idxprom35 = sext i8 %15 to i64, !dbg !2328
  %arrayidx36 = getelementptr inbounds i16, i16* %13, i64 %idxprom35, !dbg !2328
  %16 = load i16, i16* %arrayidx36, align 2, !dbg !2328, !tbaa !1315
  %17 = and i16 %16, 8192, !dbg !2328
  call void @_Z32__sanitizer_cov_trace_const_cmp2tt(i16 0, i16 %17), !dbg !2328
  %tobool39 = icmp eq i16 %17, 0, !dbg !2328
  call void @_Z32__sanitizer_cov_trace_const_cmp4jj(i32 65533, i32 %conv32), !dbg !2330
  %18 = icmp ugt i32 %conv32, 65533, !dbg !2330
  %19 = or i1 %18, %tobool39, !dbg !2330
  br i1 %19, label %if.then46, label %if.end48, !dbg !2330

if.then46:                                        ; preds = %if.end30
  call void @_Z24__sanitizer_cov_trace_pcv(), !dbg !2331
  call void asm sideeffect "", ""(), !dbg !2331
  %20 = load %struct._IO_FILE*, %struct._IO_FILE** @stderr, align 8, !dbg !2331, !tbaa !953
  %call47 = call i32 (%struct._IO_FILE*, i8*, ...) @fprintf(%struct._IO_FILE* %20, i8* getelementptr inbounds ([22 x i8], [22 x i8]* @.str.3.121, i64 0, i64 0), i8* nonnull %call1, i32 %inc) #16, !dbg !2333
  br label %while.cond.outer.backedge, !dbg !2334

if.end48:                                         ; preds = %if.end30
  call void @_Z24__sanitizer_cov_trace_pcv(), !dbg !2314
  call void asm sideeffect "", ""(), !dbg !2314
  call void @llvm.dbg.value(metadata i8* %14, metadata !2257, metadata !DIExpression()), !dbg !2314
  call void @_Z32__sanitizer_cov_trace_const_cmp1hh(i8 0, i8 %15), !dbg !2335
  %tobool51223 = icmp eq i8 %15, 0, !dbg !2335
  br i1 %tobool51223, label %while.cond.outer.backedge, label %land.rhs52.lr.ph, !dbg !2338

land.rhs52.lr.ph:                                 ; preds = %if.end48
  call void @_Z24__sanitizer_cov_trace_pcv(), !dbg !2339
  call void asm sideeffect "", ""(), !dbg !2339
  %21 = and i16 %16, 8192, !dbg !2339
  call void @_Z32__sanitizer_cov_trace_const_cmp2tt(i16 0, i16 %21), !dbg !2338
  %tobool59266 = icmp eq i16 %21, 0, !dbg !2338
  br i1 %tobool59266, label %if.end67, label %for.inc62.preheader, !dbg !2340

for.inc62.preheader:                              ; preds = %land.rhs52.lr.ph
  call void @_Z24__sanitizer_cov_trace_pcv(), !dbg !2341
  call void asm sideeffect "", ""(), !dbg !2341
  br label %for.inc62, !dbg !2341

for.inc62:                                        ; preds = %for.inc62.preheader, %for.inc62.land.rhs52_crit_edge
  %incdec.ptr63224267 = phi i8* [ %incdec.ptr63, %for.inc62.land.rhs52_crit_edge ], [ %14, %for.inc62.preheader ]
  call void @_Z24__sanitizer_cov_trace_pcv(), !dbg !2341
  call void asm sideeffect "", ""(), !dbg !2341
  %incdec.ptr63 = getelementptr inbounds i8, i8* %incdec.ptr63224267, i64 1, !dbg !2341
  call void @llvm.dbg.value(metadata i8* %incdec.ptr63, metadata !2257, metadata !DIExpression()), !dbg !2314
  %22 = load i8, i8* %incdec.ptr63, align 1, !dbg !2335, !tbaa !995
  call void @_Z32__sanitizer_cov_trace_const_cmp1hh(i8 0, i8 %22), !dbg !2335
  %tobool51 = icmp eq i8 %22, 0, !dbg !2335
  br i1 %tobool51, label %for.cond49.if.then66_crit_edge, label %for.inc62.land.rhs52_crit_edge, !dbg !2338, !llvm.loop !2342

for.inc62.land.rhs52_crit_edge:                   ; preds = %for.inc62
  call void @_Z24__sanitizer_cov_trace_pcv()
  call void asm sideeffect "", ""()
  %idxprom55.phi.trans.insert = sext i8 %22 to i64
  %arrayidx56.phi.trans.insert = getelementptr inbounds i16, i16* %13, i64 %idxprom55.phi.trans.insert
  %.pre248 = load i16, i16* %arrayidx56.phi.trans.insert, align 2, !dbg !2339, !tbaa !1315
  %23 = and i16 %.pre248, 8192, !dbg !2339
  call void @_Z32__sanitizer_cov_trace_const_cmp2tt(i16 0, i16 %23), !dbg !2338
  %tobool59 = icmp eq i16 %23, 0, !dbg !2338
  br i1 %tobool59, label %if.end67, label %for.inc62, !dbg !2340

for.cond49.if.then66_crit_edge:                   ; preds = %for.inc62
  call void @_Z24__sanitizer_cov_trace_pcv(), !dbg !2341
  call void asm sideeffect "", ""(), !dbg !2341
  store i8* %incdec.ptr63, i8** %p, align 8, !dbg !2341, !tbaa !953
  br label %while.cond.outer.backedge, !dbg !2338

if.end67:                                         ; preds = %for.inc62.land.rhs52_crit_edge, %land.rhs52.lr.ph
  %incdec.ptr63224.lcssa = phi i8* [ %14, %land.rhs52.lr.ph ], [ %incdec.ptr63, %for.inc62.land.rhs52_crit_edge ]
  %.lcssa263 = phi i8 [ %15, %land.rhs52.lr.ph ], [ %22, %for.inc62.land.rhs52_crit_edge ]
  call void @_Z24__sanitizer_cov_trace_pcv(), !dbg !2341
  call void asm sideeffect "", ""(), !dbg !2341
  store i8* %incdec.ptr63224.lcssa, i8** %p, align 8, !dbg !2341, !tbaa !953
  call void @llvm.dbg.value(metadata i8* undef, metadata !2257, metadata !DIExpression()), !dbg !2314
  %conv68 = sext i8 %.lcssa263 to i32, !dbg !2344
  %24 = zext i32 %conv68 to i64, !dbg !2345
  call void @_Z28__sanitizer_cov_trace_switchmPm(i64 %24, i64* getelementptr inbounds ([7 x i64], [7 x i64]* @__sancov_gen_cov_switch_values.4, i32 0, i32 0)), !dbg !2345
  switch i32 %conv68, label %sw.default [
    i32 39, label %sw.bb
    i32 34, label %sw.bb
    i32 40, label %sw.epilog
    i32 91, label %sw.bb70
    i32 123, label %sw.bb71
  ], !dbg !2345

sw.bb:                                            ; preds = %if.end67, %if.end67
  call void @_Z24__sanitizer_cov_trace_pcv(), !dbg !2314
  call void asm sideeffect "", ""(), !dbg !2314
  call void @llvm.dbg.value(metadata i8* undef, metadata !2257, metadata !DIExpression()), !dbg !2314
  call void @llvm.dbg.value(metadata i8 undef, metadata !2261, metadata !DIExpression()), !dbg !2346
  br label %sw.epilog, !dbg !2347

sw.bb70:                                          ; preds = %if.end67
  call void @_Z24__sanitizer_cov_trace_pcv(), !dbg !2346
  call void asm sideeffect "", ""(), !dbg !2346
  call void @llvm.dbg.value(metadata i8 93, metadata !2261, metadata !DIExpression()), !dbg !2346
  br label %sw.epilog, !dbg !2349

sw.bb71:                                          ; preds = %if.end67
  call void @_Z24__sanitizer_cov_trace_pcv(), !dbg !2346
  call void asm sideeffect "", ""(), !dbg !2346
  call void @llvm.dbg.value(metadata i8 125, metadata !2261, metadata !DIExpression()), !dbg !2346
  br label %sw.epilog, !dbg !2350

sw.default:                                       ; preds = %if.end67
  call void @_Z24__sanitizer_cov_trace_pcv(), !dbg !2351
  call void asm sideeffect "", ""(), !dbg !2351
  %incdec.ptr72 = getelementptr inbounds i8, i8* %incdec.ptr63224.lcssa, i64 -1, !dbg !2351
  call void @llvm.dbg.value(metadata i8* %incdec.ptr72, metadata !2257, metadata !DIExpression()), !dbg !2314
  store i8* %incdec.ptr72, i8** %p, align 8, !dbg !2351, !tbaa !953
  call void @llvm.dbg.value(metadata i8 10, metadata !2261, metadata !DIExpression()), !dbg !2346
  br label %sw.epilog, !dbg !2352

sw.epilog:                                        ; preds = %if.end67, %sw.default, %sw.bb71, %sw.bb70, %sw.bb
  %25 = phi i8* [ %incdec.ptr72, %sw.default ], [ %incdec.ptr63224.lcssa, %sw.bb71 ], [ %incdec.ptr63224.lcssa, %sw.bb70 ], [ %incdec.ptr63224.lcssa, %sw.bb ], [ %incdec.ptr63224.lcssa, %if.end67 ], !dbg !2353
  %stopchar.0 = phi i8 [ 10, %sw.default ], [ 125, %sw.bb71 ], [ 93, %sw.bb70 ], [ %.lcssa263, %sw.bb ], [ 41, %if.end67 ]
  call void @_Z24__sanitizer_cov_trace_pcv(), !dbg !2346
  call void asm sideeffect "", ""(), !dbg !2346
  call void @llvm.dbg.value(metadata i8 %stopchar.0, metadata !2261, metadata !DIExpression()), !dbg !2346
  call void @llvm.dbg.value(metadata i8* %25, metadata !2257, metadata !DIExpression()), !dbg !2314
  %incdec.ptr73 = getelementptr inbounds i8, i8* %25, i64 1, !dbg !2353
  call void @llvm.dbg.value(metadata i8* %incdec.ptr73, metadata !2257, metadata !DIExpression()), !dbg !2314
  store i8* %incdec.ptr73, i8** %p, align 8, !dbg !2353, !tbaa !953
  call void @llvm.dbg.value(metadata i8* %incdec.ptr73, metadata !2258, metadata !DIExpression()), !dbg !2354
  call void @llvm.dbg.value(metadata i32 0, metadata !2262, metadata !DIExpression()), !dbg !2355
  %26 = load i8, i8* %incdec.ptr73, align 1, !dbg !2356, !tbaa !995
  call void @_Z32__sanitizer_cov_trace_const_cmp1hh(i8 0, i8 %26), !dbg !2356
  %tobool76225 = icmp eq i8 %26, 0, !dbg !2356
  br i1 %tobool76225, label %while.end, label %land.rhs77.lr.ph, !dbg !2357

land.rhs77.lr.ph:                                 ; preds = %sw.epilog
  call void @_Z24__sanitizer_cov_trace_pcv()
  call void asm sideeffect "", ""()
  call void @_Z32__sanitizer_cov_trace_const_cmp1hh(i8 10, i8 %stopchar.0)
  %cmp.i = icmp eq i8 %stopchar.0, 10
  br label %land.rhs77, !dbg !2357

land.rhs77:                                       ; preds = %land.rhs77.lr.ph, %while.body82
  %27 = phi i8 [ %26, %land.rhs77.lr.ph ], [ %31, %while.body82 ]
  %escaped.0227 = phi i32 [ 0, %land.rhs77.lr.ph ], [ %escaped.1, %while.body82 ]
  %q.0226 = phi i8* [ %incdec.ptr73, %land.rhs77.lr.ph ], [ %incdec.ptr89, %while.body82 ]
  call void @_Z24__sanitizer_cov_trace_pcv(), !dbg !2358
  call void asm sideeffect "", ""(), !dbg !2358
  call void @llvm.dbg.value(metadata i8 %27, metadata !2363, metadata !DIExpression()) #10, !dbg !2358
  call void @llvm.dbg.value(metadata i8 %stopchar.0, metadata !2364, metadata !DIExpression()) #10, !dbg !2366
  call void @llvm.dbg.value(metadata i8* %q.0226, metadata !2258, metadata !DIExpression()), !dbg !2354
  call void @llvm.dbg.value(metadata i32 %escaped.0227, metadata !2262, metadata !DIExpression()), !dbg !2355
  br i1 %cmp.i, label %if.then.i, label %if.else.i, !dbg !2367

if.then.i:                                        ; preds = %land.rhs77
  call void @_Z24__sanitizer_cov_trace_pcv(), !dbg !2368
  call void asm sideeffect "", ""(), !dbg !2368
  %idxprom.i = sext i8 %27 to i64, !dbg !2368
  %arrayidx.i = getelementptr inbounds i16, i16* %13, i64 %idxprom.i, !dbg !2368
  %28 = load i16, i16* %arrayidx.i, align 2, !dbg !2368, !tbaa !1315
  %29 = and i16 %28, 8192, !dbg !2368
  %and.i = zext i16 %29 to i32, !dbg !2368
  br label %isstop.exit, !dbg !2371

if.else.i:                                        ; preds = %land.rhs77
  call void @_Z24__sanitizer_cov_trace_pcv(), !dbg !2372
  call void asm sideeffect "", ""(), !dbg !2372
  call void @_Z26__sanitizer_cov_trace_cmp1hh(i8 %27, i8 %stopchar.0), !dbg !2372
  %cmp6.i = icmp eq i8 %27, %stopchar.0, !dbg !2372
  %conv7.i = zext i1 %cmp6.i to i32, !dbg !2372
  br label %isstop.exit, !dbg !2374

isstop.exit:                                      ; preds = %if.then.i, %if.else.i
  %retval.0.i = phi i32 [ %and.i, %if.then.i ], [ %conv7.i, %if.else.i ]
  call void @_Z24__sanitizer_cov_trace_pcv(), !dbg !2375
  call void asm sideeffect "", ""(), !dbg !2375
  call void @_Z32__sanitizer_cov_trace_const_cmp4jj(i32 0, i32 %retval.0.i), !dbg !2375
  %tobool79 = icmp eq i32 %retval.0.i, 0, !dbg !2375
  call void @_Z32__sanitizer_cov_trace_const_cmp4jj(i32 0, i32 %escaped.0227), !dbg !2376
  %tobool80 = icmp ne i32 %escaped.0227, 0, !dbg !2376
  %30 = or i1 %tobool80, %tobool79, !dbg !2376
  br i1 %30, label %while.body82, label %while.end, !dbg !2377

while.body82:                                     ; preds = %isstop.exit
  call void @_Z24__sanitizer_cov_trace_pcv(), !dbg !2378
  call void asm sideeffect "", ""(), !dbg !2378
  call void @_Z32__sanitizer_cov_trace_const_cmp1hh(i8 92, i8 %27), !dbg !2378
  %cmp86 = icmp eq i8 %27, 92, !dbg !2378
  %not.tobool80 = xor i1 %tobool80, true, !dbg !2382
  %narrow = and i1 %cmp86, %not.tobool80, !dbg !2382
  %escaped.1 = zext i1 %narrow to i32, !dbg !2382
  %incdec.ptr89 = getelementptr inbounds i8, i8* %q.0226, i64 1, !dbg !2383
  call void @llvm.dbg.value(metadata i32 %escaped.1, metadata !2262, metadata !DIExpression()), !dbg !2355
  call void @llvm.dbg.value(metadata i8* %incdec.ptr89, metadata !2258, metadata !DIExpression()), !dbg !2354
  %31 = load i8, i8* %incdec.ptr89, align 1, !dbg !2356, !tbaa !995
  call void @_Z32__sanitizer_cov_trace_const_cmp1hh(i8 0, i8 %31), !dbg !2356
  %tobool76 = icmp eq i8 %31, 0, !dbg !2356
  br i1 %tobool76, label %while.end, label %land.rhs77, !dbg !2357, !llvm.loop !2384

while.end:                                        ; preds = %isstop.exit, %while.body82, %sw.epilog
  %q.0.lcssa = phi i8* [ %incdec.ptr73, %sw.epilog ], [ %incdec.ptr89, %while.body82 ], [ %q.0226, %isstop.exit ]
  %.lcssa = phi i8 [ 0, %sw.epilog ], [ 0, %while.body82 ], [ %27, %isstop.exit ]
  call void @_Z24__sanitizer_cov_trace_pcv(), !dbg !2386
  call void asm sideeffect "", ""(), !dbg !2386
  call void @_Z26__sanitizer_cov_trace_cmp1hh(i8 %.lcssa, i8 %stopchar.0), !dbg !2386
  %cmp92 = icmp eq i8 %.lcssa, %stopchar.0, !dbg !2386
  br i1 %cmp92, label %if.end107, label %land.lhs.true, !dbg !2388

land.lhs.true:                                    ; preds = %while.end
  call void @_Z24__sanitizer_cov_trace_pcv(), !dbg !2389
  call void asm sideeffect "", ""(), !dbg !2389
  %idxprom96 = sext i8 %.lcssa to i64, !dbg !2389
  %arrayidx97 = getelementptr inbounds i16, i16* %13, i64 %idxprom96, !dbg !2389
  %32 = load i16, i16* %arrayidx97, align 2, !dbg !2389, !tbaa !1315
  %33 = and i16 %32, 8192, !dbg !2389
  call void @_Z32__sanitizer_cov_trace_const_cmp2tt(i16 0, i16 %33), !dbg !2389
  %tobool100 = icmp ne i16 %33, 0, !dbg !2389
  call void @_Z32__sanitizer_cov_trace_const_cmp1hh(i8 10, i8 %stopchar.0), !dbg !2390
  %cmp103 = icmp eq i8 %stopchar.0, 10, !dbg !2390
  %or.cond = and i1 %cmp103, %tobool100, !dbg !2391
  br i1 %or.cond, label %if.end107, label %if.then105, !dbg !2391

if.then105:                                       ; preds = %land.lhs.true
  call void @_Z24__sanitizer_cov_trace_pcv(), !dbg !2392
  call void asm sideeffect "", ""(), !dbg !2392
  %34 = load %struct._IO_FILE*, %struct._IO_FILE** @stderr, align 8, !dbg !2392, !tbaa !953
  %call106 = call i32 (%struct._IO_FILE*, i8*, ...) @fprintf(%struct._IO_FILE* %34, i8* getelementptr inbounds ([45 x i8], [45 x i8]* @.str.4.122, i64 0, i64 0), i8* nonnull %call1, i32 %inc) #16, !dbg !2394
  br label %while.cond.outer.backedge, !dbg !2395

if.end107:                                        ; preds = %land.lhs.true, %while.end
  call void @_Z24__sanitizer_cov_trace_pcv(), !dbg !2396
  call void asm sideeffect "", ""(), !dbg !2396
  store i8 0, i8* %q.0.lcssa, align 1, !dbg !2396, !tbaa !995
  call void @llvm.dbg.value(metadata i8* %3, metadata !2258, metadata !DIExpression()), !dbg !2354
  call void @llvm.dbg.value(metadata i32 0, metadata !2264, metadata !DIExpression()), !dbg !2397
  %35 = load i8*, i8** %p, align 8, !dbg !2398, !tbaa !953
  call void @llvm.dbg.value(metadata i8* %35, metadata !2257, metadata !DIExpression()), !dbg !2314
  %36 = load i8, i8* %35, align 1, !dbg !2401, !tbaa !995
  call void @_Z32__sanitizer_cov_trace_const_cmp1hh(i8 0, i8 %36), !dbg !2401
  %tobool111231 = icmp eq i8 %36, 0, !dbg !2401
  br i1 %tobool111231, label %for.end143, label %for.body116.preheader, !dbg !2402

for.body116.preheader:                            ; preds = %if.end107
  call void @_Z24__sanitizer_cov_trace_pcv(), !dbg !2403
  call void asm sideeffect "", ""(), !dbg !2403
  br label %for.body116, !dbg !2403

for.body116:                                      ; preds = %for.body116.preheader, %for.inc140
  %37 = phi i8 [ %44, %for.inc140 ], [ %36, %for.body116.preheader ]
  %38 = phi i8* [ %43, %for.inc140 ], [ %35, %for.body116.preheader ]
  %i.0233 = phi i32 [ %inc142, %for.inc140 ], [ 0, %for.body116.preheader ]
  %q.1232 = phi i8* [ %incdec.ptr141, %for.inc140 ], [ %3, %for.body116.preheader ]
  call void @_Z24__sanitizer_cov_trace_pcv(), !dbg !2354
  call void asm sideeffect "", ""(), !dbg !2354
  call void @llvm.dbg.value(metadata i8* %q.1232, metadata !2258, metadata !DIExpression()), !dbg !2354
  call void @llvm.dbg.value(metadata i32 %i.0233, metadata !2264, metadata !DIExpression()), !dbg !2397
  call void @_Z32__sanitizer_cov_trace_const_cmp1hh(i8 92, i8 %37), !dbg !2403
  %cmp118 = icmp eq i8 %37, 92, !dbg !2403
  %incdec.ptr121 = getelementptr inbounds i8, i8* %38, i64 1
  call void @llvm.dbg.value(metadata i8* %incdec.ptr121, metadata !2257, metadata !DIExpression()), !dbg !2314
  store i8* %incdec.ptr121, i8** %p, align 8, !tbaa !953
  br i1 %cmp118, label %if.else122, label %if.then120, !dbg !2406

if.then120:                                       ; preds = %for.body116
  call void @_Z24__sanitizer_cov_trace_pcv(), !dbg !2407
  call void asm sideeffect "", ""(), !dbg !2407
  store i8 %37, i8* %q.1232, align 1, !dbg !2407, !tbaa !995
  %.pre249 = load i8*, i8** %p, align 8, !dbg !2398, !tbaa !953
  br label %for.inc140, !dbg !2409

if.else122:                                       ; preds = %for.body116
  call void @_Z24__sanitizer_cov_trace_pcv(), !dbg !2410
  call void asm sideeffect "", ""(), !dbg !2410
  %39 = load i8, i8* %incdec.ptr121, align 1, !dbg !2410, !tbaa !995
  %conv124 = sext i8 %39 to i32, !dbg !2410
  %40 = zext i32 %conv124 to i64, !dbg !2412
  call void @_Z28__sanitizer_cov_trace_switchmPm(i64 %40, i64* getelementptr inbounds ([9 x i64], [9 x i64]* @__sancov_gen_cov_switch_values.5, i32 0, i32 0)), !dbg !2412
  switch i32 %conv124, label %sw.default136 [
    i32 110, label %sw.bb125
    i32 114, label %sw.bb126
    i32 116, label %sw.bb127
    i32 98, label %sw.bb128
    i32 34, label %sw.bb129
    i32 39, label %sw.bb130
    i32 48, label %sw.bb131
  ], !dbg !2412

sw.bb125:                                         ; preds = %if.else122
  call void @_Z24__sanitizer_cov_trace_pcv(), !dbg !2413
  call void asm sideeffect "", ""(), !dbg !2413
  store i8 10, i8* %q.1232, align 1, !dbg !2413, !tbaa !995
  br label %sw.epilog137, !dbg !2415

sw.bb126:                                         ; preds = %if.else122
  call void @_Z24__sanitizer_cov_trace_pcv(), !dbg !2416
  call void asm sideeffect "", ""(), !dbg !2416
  store i8 13, i8* %q.1232, align 1, !dbg !2416, !tbaa !995
  br label %sw.epilog137, !dbg !2417

sw.bb127:                                         ; preds = %if.else122
  call void @_Z24__sanitizer_cov_trace_pcv(), !dbg !2418
  call void asm sideeffect "", ""(), !dbg !2418
  store i8 9, i8* %q.1232, align 1, !dbg !2418, !tbaa !995
  br label %sw.epilog137, !dbg !2419

sw.bb128:                                         ; preds = %if.else122
  call void @_Z24__sanitizer_cov_trace_pcv(), !dbg !2420
  call void asm sideeffect "", ""(), !dbg !2420
  store i8 8, i8* %q.1232, align 1, !dbg !2420, !tbaa !995
  br label %sw.epilog137, !dbg !2421

sw.bb129:                                         ; preds = %if.else122
  call void @_Z24__sanitizer_cov_trace_pcv(), !dbg !2422
  call void asm sideeffect "", ""(), !dbg !2422
  store i8 34, i8* %q.1232, align 1, !dbg !2422, !tbaa !995
  br label %sw.epilog137, !dbg !2423

sw.bb130:                                         ; preds = %if.else122
  call void @_Z24__sanitizer_cov_trace_pcv(), !dbg !2424
  call void asm sideeffect "", ""(), !dbg !2424
  store i8 39, i8* %q.1232, align 1, !dbg !2424, !tbaa !995
  br label %sw.epilog137, !dbg !2425

sw.bb131:                                         ; preds = %if.else122
  call void @_Z24__sanitizer_cov_trace_pcv(), !dbg !2314
  call void asm sideeffect "", ""(), !dbg !2314
  call void @llvm.dbg.value(metadata i8** %p, metadata !2257, metadata !DIExpression()), !dbg !2314
  %call132 = call i64 @strtol(i8* nonnull %incdec.ptr121, i8** nonnull %p, i32 8) #10, !dbg !2426
  %conv133 = trunc i64 %call132 to i8, !dbg !2426
  store i8 %conv133, i8* %q.1232, align 1, !dbg !2427, !tbaa !995
  %41 = load i8*, i8** %p, align 8, !dbg !2428, !tbaa !953
  call void @llvm.dbg.value(metadata i8* %41, metadata !2257, metadata !DIExpression()), !dbg !2314
  %incdec.ptr134 = getelementptr inbounds i8, i8* %41, i64 -1, !dbg !2428
  call void @llvm.dbg.value(metadata i8* %incdec.ptr134, metadata !2257, metadata !DIExpression()), !dbg !2314
  store i8* %incdec.ptr134, i8** %p, align 8, !dbg !2428, !tbaa !953
  br label %sw.epilog137, !dbg !2429

sw.default136:                                    ; preds = %if.else122
  call void @_Z24__sanitizer_cov_trace_pcv(), !dbg !2430
  call void asm sideeffect "", ""(), !dbg !2430
  store i8 %39, i8* %q.1232, align 1, !dbg !2430, !tbaa !995
  br label %sw.epilog137, !dbg !2431

sw.epilog137:                                     ; preds = %sw.default136, %sw.bb131, %sw.bb130, %sw.bb129, %sw.bb128, %sw.bb127, %sw.bb126, %sw.bb125
  call void @_Z24__sanitizer_cov_trace_pcv(), !dbg !2432
  call void asm sideeffect "", ""(), !dbg !2432
  %42 = load i8*, i8** %p, align 8, !dbg !2432, !tbaa !953
  call void @llvm.dbg.value(metadata i8* %42, metadata !2257, metadata !DIExpression()), !dbg !2314
  %incdec.ptr138 = getelementptr inbounds i8, i8* %42, i64 1, !dbg !2432
  call void @llvm.dbg.value(metadata i8* %incdec.ptr138, metadata !2257, metadata !DIExpression()), !dbg !2314
  store i8* %incdec.ptr138, i8** %p, align 8, !dbg !2432, !tbaa !953
  br label %for.inc140

for.inc140:                                       ; preds = %if.then120, %sw.epilog137
  %43 = phi i8* [ %.pre249, %if.then120 ], [ %incdec.ptr138, %sw.epilog137 ], !dbg !2398
  call void @_Z24__sanitizer_cov_trace_pcv(), !dbg !2433
  call void asm sideeffect "", ""(), !dbg !2433
  %incdec.ptr141 = getelementptr inbounds i8, i8* %q.1232, i64 1, !dbg !2433
  %inc142 = add nuw nsw i32 %i.0233, 1, !dbg !2434
  call void @llvm.dbg.value(metadata i32 %inc142, metadata !2264, metadata !DIExpression()), !dbg !2397
  call void @llvm.dbg.value(metadata i8* %incdec.ptr141, metadata !2258, metadata !DIExpression()), !dbg !2354
  call void @llvm.dbg.value(metadata i8* %43, metadata !2257, metadata !DIExpression()), !dbg !2314
  %44 = load i8, i8* %43, align 1, !dbg !2401, !tbaa !995
  call void @_Z32__sanitizer_cov_trace_const_cmp1hh(i8 0, i8 %44), !dbg !2401
  %tobool111 = icmp ne i8 %44, 0, !dbg !2401
  call void @_Z32__sanitizer_cov_trace_const_cmp4jj(i32 256, i32 %inc142), !dbg !2435
  %cmp113 = icmp ult i32 %inc142, 256, !dbg !2435
  %45 = and i1 %cmp113, %tobool111, !dbg !2436
  br i1 %45, label %for.body116, label %for.end143, !dbg !2402, !llvm.loop !2437

for.end143:                                       ; preds = %for.inc140, %if.end107
  %q.1.lcssa = phi i8* [ %3, %if.end107 ], [ %incdec.ptr141, %for.inc140 ]
  %i.0.lcssa = phi i32 [ 0, %if.end107 ], [ %inc142, %for.inc140 ]
  call void @_Z24__sanitizer_cov_trace_pcv(), !dbg !2439
  call void asm sideeffect "", ""(), !dbg !2439
  store i8 0, i8* %q.1.lcssa, align 1, !dbg !2439, !tbaa !995
  %46 = load i32, i32* @longest_sequence, align 4, !dbg !2440, !tbaa !959
  call void @_Z26__sanitizer_cov_trace_cmp4jj(i32 %i.0.lcssa, i32 %46), !dbg !2442
  %cmp144 = icmp sgt i32 %i.0.lcssa, %46, !dbg !2442
  br i1 %cmp144, label %if.then146, label %if.end147, !dbg !2443

if.then146:                                       ; preds = %for.end143
  call void @_Z24__sanitizer_cov_trace_pcv(), !dbg !2444
  call void asm sideeffect "", ""(), !dbg !2444
  store i32 %i.0.lcssa, i32* @longest_sequence, align 4, !dbg !2444, !tbaa !959
  br label %if.end147, !dbg !2445

if.end147:                                        ; preds = %if.then146, %for.end143
  call void @_Z24__sanitizer_cov_trace_pcv(), !dbg !2446
  call void asm sideeffect "", ""(), !dbg !2446
  call void @llvm.dbg.value(metadata i8*** %0, metadata !2451, metadata !DIExpression()) #10, !dbg !2446
  call void @llvm.dbg.value(metadata i32 %conv32, metadata !2452, metadata !DIExpression()) #10, !dbg !2456
  call void @llvm.dbg.value(metadata i8* %3, metadata !2453, metadata !DIExpression()) #10, !dbg !2457
  %shr.i = lshr i64 %call31, 8, !dbg !2458
  %idx.ext.i = and i64 %shr.i, 16777215, !dbg !2459
  %add.ptr.i = getelementptr inbounds i8**, i8*** %0, i64 %idx.ext.i, !dbg !2459
  call void @llvm.dbg.value(metadata i8*** %add.ptr.i, metadata !2454, metadata !DIExpression()) #10, !dbg !2460
  %47 = load i8**, i8*** %add.ptr.i, align 8, !dbg !2461, !tbaa !953
  %tobool.i = icmp eq i8** %47, null, !dbg !2461
  br i1 %tobool.i, label %if.then.i211, label %map_insert.exit, !dbg !2463

if.then.i211:                                     ; preds = %if.end147
  call void @_Z24__sanitizer_cov_trace_pcv(), !dbg !2464
  call void asm sideeffect "", ""(), !dbg !2464
  %call.i210 = call noalias i8* @calloc(i64 8, i64 256) #10, !dbg !2464
  %48 = bitcast i8*** %add.ptr.i to i8**, !dbg !2466
  store i8* %call.i210, i8** %48, align 8, !dbg !2466, !tbaa !953
  %tobool1.i = icmp eq i8* %call.i210, null, !dbg !2467
  %49 = bitcast i8* %call.i210 to i8**, !dbg !2469
  br i1 %tobool1.i, label %if.then2.i, label %map_insert.exit, !dbg !2469

if.then2.i:                                       ; preds = %if.then.i211
  call void @_Z24__sanitizer_cov_trace_pcv(), !dbg !2470
  call void asm sideeffect "", ""(), !dbg !2470
  %50 = load %struct._IO_FILE*, %struct._IO_FILE** @stderr, align 8, !dbg !2470, !tbaa !953
  %51 = call i64 @fwrite(i8* getelementptr inbounds ([21 x i8], [21 x i8]* @.str.1.119, i64 0, i64 0), i64 20, i64 1, %struct._IO_FILE* %50) #19, !dbg !2472
  call void @exit(i32 1) #17, !dbg !2473
  unreachable, !dbg !2473

map_insert.exit:                                  ; preds = %if.end147, %if.then.i211
  %52 = phi i8** [ %47, %if.end147 ], [ %49, %if.then.i211 ], !dbg !2474
  call void @_Z24__sanitizer_cov_trace_pcv(), !dbg !2475
  call void asm sideeffect "", ""(), !dbg !2475
  %call5.i = call noalias i8* @__strdup(i8* nonnull %3) #10, !dbg !2475
  %and.i212 = and i64 %call31, 255, !dbg !2476
  %arrayidx.i213 = getelementptr inbounds i8*, i8** %52, i64 %and.i212, !dbg !2477
  store i8* %call5.i, i8** %arrayidx.i213, align 8, !dbg !2478, !tbaa !953
  br label %while.cond.outer.backedge, !dbg !2306

while.end149:                                     ; preds = %while.cond.outer.backedge, %while.cond, %if.end13
  call void @_Z24__sanitizer_cov_trace_pcv(), !dbg !2479
  call void asm sideeffect "", ""(), !dbg !2479
  %call150 = call i32 @fclose(%struct._IO_FILE* nonnull %call6), !dbg !2479
  call void @free(i8* %call1) #10, !dbg !2480
  br label %cleanup, !dbg !2481

cleanup:                                          ; preds = %while.end149, %if.then8, %if.then
  %retval.0 = phi i8*** [ %0, %while.end149 ], [ null, %if.then8 ], [ null, %if.then ]
  call void @_Z24__sanitizer_cov_trace_pcv(), !dbg !2482
  call void asm sideeffect "", ""(), !dbg !2482
  call void @llvm.lifetime.end.p0i8(i64 256, i8* nonnull %3) #10, !dbg !2482
  call void @llvm.lifetime.end.p0i8(i64 8, i8* nonnull %2) #10, !dbg !2482
  call void @llvm.lifetime.end.p0i8(i64 1024, i8* nonnull %1) #10, !dbg !2482
  ret i8*** %retval.0, !dbg !2482
}

; Function Attrs: nounwind
declare i32 @fileno(%struct._IO_FILE* nocapture) local_unnamed_addr #6

; Function Attrs: nounwind
declare i32 @isatty(i32) local_unnamed_addr #6

; Function Attrs: nounwind
declare i32 @setvbuf(%struct._IO_FILE* nocapture, i8*, i32, i64) local_unnamed_addr #6

; Function Attrs: nounwind
declare void @perror(i8* nocapture readonly) local_unnamed_addr #6

; Function Attrs: norecurse nounwind uwtable
define void @set_std_func() local_unnamed_addr #11 !dbg !2483 {
entry:
  call void @_Z24__sanitizer_cov_trace_pcv(), !dbg !2484
  call void asm sideeffect "", ""(), !dbg !2484
  store i64 (i8*, i64, i64, %struct._IO_FILE*)* @fread, i64 (i8*, i64, i64, %struct._IO_FILE*)** @catdoc_read, align 8, !dbg !2484, !tbaa !953
  store i32 (%struct._IO_FILE*)* @feof, i32 (%struct._IO_FILE*)** @catdoc_eof, align 8, !dbg !2485, !tbaa !953
  store i32 (%struct._IO_FILE*, i64, i32)* @fseek, i32 (%struct._IO_FILE*, i64, i32)** @catdoc_seek, align 8, !dbg !2486, !tbaa !953
  store i64 (%struct._IO_FILE*)* @ftell, i64 (%struct._IO_FILE*)** @catdoc_tell, align 8, !dbg !2487, !tbaa !953
  ret void, !dbg !2488
}

; Function Attrs: nounwind uwtable
define i32 @analyze_format(%struct._IO_FILE* %f) local_unnamed_addr #4 !dbg !2489 {
entry:
  call void @_Z24__sanitizer_cov_trace_pcv()
  call void asm sideeffect "", ""()
  %buffer = alloca [129 x i8], align 16
  call void @llvm.dbg.value(metadata %struct._IO_FILE* %f, metadata !2493, metadata !DIExpression()), !dbg !2517
  %0 = getelementptr inbounds [129 x i8], [129 x i8]* %buffer, i64 0, i64 0, !dbg !2518
  call void @llvm.lifetime.start.p0i8(i64 129, i8* nonnull %0) #10, !dbg !2518
  call void @llvm.dbg.declare(metadata [129 x i8]* %buffer, metadata !2494, metadata !DIExpression()), !dbg !2519
  call void @llvm.dbg.value(metadata i64 0, metadata !2498, metadata !DIExpression()), !dbg !2520
  call void @llvm.dbg.value(metadata i32 69, metadata !2501, metadata !DIExpression()), !dbg !2521
  %1 = load i32, i32* @signature_check, align 4, !dbg !2522, !tbaa !959
  call void @_Z32__sanitizer_cov_trace_const_cmp4jj(i32 0, i32 %1), !dbg !2522
  %tobool = icmp eq i32 %1, 0, !dbg !2522
  br i1 %tobool, label %if.then, label %if.end3, !dbg !2524

if.then:                                          ; preds = %entry
  call void @_Z24__sanitizer_cov_trace_pcv(), !dbg !2525
  call void asm sideeffect "", ""(), !dbg !2525
  %2 = load i32 (%struct._IO_FILE*, i64*, i64)*, i32 (%struct._IO_FILE*, i64*, i64)** @get_unicode_char, align 8, !dbg !2525, !tbaa !953
  %tobool1 = icmp eq i32 (%struct._IO_FILE*, i64*, i64)* %2, null, !dbg !2525
  br i1 %tobool1, label %if.then2, label %if.end, !dbg !2528

if.then2:                                         ; preds = %if.then
  call void @_Z24__sanitizer_cov_trace_pcv(), !dbg !2529
  call void asm sideeffect "", ""(), !dbg !2529
  store i32 (%struct._IO_FILE*, i64*, i64)* @get_8bit_char, i32 (%struct._IO_FILE*, i64*, i64)** @get_unicode_char, align 8, !dbg !2529, !tbaa !953
  br label %if.end, !dbg !2530

if.end:                                           ; preds = %if.then, %if.then2
  call void @_Z24__sanitizer_cov_trace_pcv(), !dbg !2531
  call void asm sideeffect "", ""(), !dbg !2531
  %call = tail call i32 @process_file(%struct._IO_FILE* %f, i64 9223372036854775807) #10, !dbg !2531
  br label %cleanup, !dbg !2532

if.end3:                                          ; preds = %entry
  call void @_Z24__sanitizer_cov_trace_pcv(), !dbg !2533
  call void asm sideeffect "", ""(), !dbg !2533
  %3 = load i64 (i8*, i64, i64, %struct._IO_FILE*)*, i64 (i8*, i64, i64, %struct._IO_FILE*)** @catdoc_read, align 8, !dbg !2533, !tbaa !953
  %call4 = call i64 %3(i8* nonnull %0, i64 4, i64 1, %struct._IO_FILE* %f) #10, !dbg !2533
  %arrayidx = getelementptr inbounds [129 x i8], [129 x i8]* %buffer, i64 0, i64 4, !dbg !2534
  store i8 0, i8* %arrayidx, align 4, !dbg !2535, !tbaa !995
  %call5 = call i32 @strncmp(i8* nonnull %0, i8* getelementptr inbounds ([3 x i8], [3 x i8]* @write_sign, i64 0, i64 0), i64 2) #18, !dbg !2536
  call void @_Z32__sanitizer_cov_trace_const_cmp4jj(i32 0, i32 %call5), !dbg !2538
  %cmp = icmp eq i32 %call5, 0, !dbg !2538
  br i1 %cmp, label %if.then6, label %if.else, !dbg !2539

if.then6:                                         ; preds = %if.end3
  call void @_Z24__sanitizer_cov_trace_pcv(), !dbg !2540
  call void asm sideeffect "", ""(), !dbg !2540
  %puts = call i32 @puts(i8* getelementptr inbounds ([44 x i8], [44 x i8]* @str.9, i64 0, i64 0)), !dbg !2540
  store i32 (%struct._IO_FILE*, i64*, i64)* @get_8bit_char, i32 (%struct._IO_FILE*, i64*, i64)** @get_unicode_char, align 8, !dbg !2542, !tbaa !953
  %call8 = call i32 @process_file(%struct._IO_FILE* %f, i64 9223372036854775807) #10, !dbg !2543
  br label %cleanup, !dbg !2544

if.else:                                          ; preds = %if.end3
  call void @_Z24__sanitizer_cov_trace_pcv(), !dbg !2545
  call void asm sideeffect "", ""(), !dbg !2545
  %call9 = call i32 @strncmp(i8* nonnull %0, i8* getelementptr inbounds ([6 x i8], [6 x i8]* @rtf_sign, i64 0, i64 0), i64 4) #18, !dbg !2545
  call void @_Z32__sanitizer_cov_trace_const_cmp4jj(i32 0, i32 %call9), !dbg !2547
  %cmp10 = icmp eq i32 %call9, 0, !dbg !2547
  br i1 %cmp10, label %if.then11, label %if.else13, !dbg !2548

if.then11:                                        ; preds = %if.else
  call void @_Z24__sanitizer_cov_trace_pcv(), !dbg !2549
  call void asm sideeffect "", ""(), !dbg !2549
  %call12 = call i32 @parse_rtf(%struct._IO_FILE* %f) #10, !dbg !2549
  br label %cleanup, !dbg !2551

if.else13:                                        ; preds = %if.else
  call void @_Z24__sanitizer_cov_trace_pcv(), !dbg !2552
  call void asm sideeffect "", ""(), !dbg !2552
  %call14 = call i32 @strncmp(i8* nonnull %0, i8* getelementptr inbounds ([5 x i8], [5 x i8]* @zip_sign, i64 0, i64 0), i64 4) #18, !dbg !2552
  call void @_Z32__sanitizer_cov_trace_const_cmp4jj(i32 0, i32 %call14), !dbg !2554
  %cmp15 = icmp eq i32 %call14, 0, !dbg !2554
  br i1 %cmp15, label %if.then16, label %if.else18, !dbg !2555

if.then16:                                        ; preds = %if.else13
  call void @_Z24__sanitizer_cov_trace_pcv(), !dbg !2556
  call void asm sideeffect "", ""(), !dbg !2556
  %4 = load %struct._IO_FILE*, %struct._IO_FILE** @stderr, align 8, !dbg !2556, !tbaa !953
  %5 = call i64 @fwrite(i8* getelementptr inbounds ([88 x i8], [88 x i8]* @.str.1.10, i64 0, i64 0), i64 87, i64 1, %struct._IO_FILE* %4) #16, !dbg !2558
  call void @exit(i32 1) #17, !dbg !2559
  unreachable, !dbg !2559

if.else18:                                        ; preds = %if.else13
  call void @_Z24__sanitizer_cov_trace_pcv(), !dbg !2560
  call void asm sideeffect "", ""(), !dbg !2560
  %call19 = call i32 @strncmp(i8* nonnull %0, i8* getelementptr inbounds ([3 x i8], [3 x i8]* @old_word_sign, i64 0, i64 0), i64 2) #18, !dbg !2560
  call void @_Z32__sanitizer_cov_trace_const_cmp4jj(i32 0, i32 %call19), !dbg !2562
  %cmp20 = icmp eq i32 %call19, 0, !dbg !2562
  br i1 %cmp20, label %if.then21, label %if.end29, !dbg !2563

if.then21:                                        ; preds = %if.else18
  call void @_Z24__sanitizer_cov_trace_pcv(), !dbg !2564
  call void asm sideeffect "", ""(), !dbg !2564
  %call23 = call i64 @fread(i8* nonnull %arrayidx, i64 1, i64 124, %struct._IO_FILE* %f), !dbg !2564
  %call25 = call i32 @parse_word_header(i8* nonnull %0, %struct._IO_FILE* %f, i32 128, i64 0), !dbg !2566
  br label %cleanup, !dbg !2567

if.end29:                                         ; preds = %if.else18
  call void @_Z24__sanitizer_cov_trace_pcv(), !dbg !2568
  call void asm sideeffect "", ""(), !dbg !2568
  %call32 = call i64 @fread(i8* nonnull %arrayidx, i64 1, i64 4, %struct._IO_FILE* %f), !dbg !2568
  %call33 = call i32 @strncmp(i8* nonnull %0, i8* getelementptr inbounds ([9 x i8], [9 x i8]* @ole_sign, i64 0, i64 0), i64 8) #18, !dbg !2569
  call void @_Z32__sanitizer_cov_trace_const_cmp4jj(i32 0, i32 %call33), !dbg !2570
  %cmp34 = icmp eq i32 %call33, 0, !dbg !2570
  br i1 %cmp34, label %if.then35, label %if.else102, !dbg !2571

if.then35:                                        ; preds = %if.end29
  call void @_Z24__sanitizer_cov_trace_pcv(), !dbg !2572
  call void asm sideeffect "", ""(), !dbg !2572
  %call37 = call %struct._IO_FILE* @ole_init(%struct._IO_FILE* %f, i8* nonnull %0, i64 8) #10, !dbg !2572
  call void @llvm.dbg.value(metadata %struct._IO_FILE* %call37, metadata !2499, metadata !DIExpression()), !dbg !2573
  %cmp38 = icmp eq %struct._IO_FILE* %call37, null, !dbg !2574
  br i1 %cmp38, label %if.else99, label %if.then39, !dbg !2575

if.then39:                                        ; preds = %if.then35
  call void @_Z24__sanitizer_cov_trace_pcv(), !dbg !2576
  call void asm sideeffect "", ""(), !dbg !2576
  call void @set_ole_func() #10, !dbg !2576
  call void @llvm.dbg.value(metadata i32 69, metadata !2501, metadata !DIExpression()), !dbg !2521
  %call40140 = call %struct._IO_FILE* @ole_readdir(%struct._IO_FILE* nonnull %call37) #10, !dbg !2577
  call void @llvm.dbg.value(metadata %struct._IO_FILE* %call40140, metadata !2500, metadata !DIExpression()), !dbg !2578
  %cmp41141 = icmp eq %struct._IO_FILE* %call40140, null, !dbg !2579
  br i1 %cmp41141, label %while.end, label %while.body.preheader, !dbg !2580

while.body.preheader:                             ; preds = %if.then39
  call void @_Z24__sanitizer_cov_trace_pcv(), !dbg !2581
  call void asm sideeffect "", ""(), !dbg !2581
  br label %while.body, !dbg !2581

while.body:                                       ; preds = %while.body.preheader, %if.end97
  %call40143 = phi %struct._IO_FILE* [ %call40, %if.end97 ], [ %call40140, %while.body.preheader ]
  %ret_code.0142 = phi i32 [ %ret_code.1, %if.end97 ], [ 69, %while.body.preheader ]
  call void @_Z24__sanitizer_cov_trace_pcv(), !dbg !2521
  call void asm sideeffect "", ""(), !dbg !2521
  call void @llvm.dbg.value(metadata i32 %ret_code.0142, metadata !2501, metadata !DIExpression()), !dbg !2521
  %call42 = call i32 @ole_open(%struct._IO_FILE* nonnull %call40143) #10, !dbg !2581
  call void @llvm.dbg.value(metadata i32 %call42, metadata !2502, metadata !DIExpression()), !dbg !2582
  call void @_Z32__sanitizer_cov_trace_const_cmp4jj(i32 -1, i32 %call42), !dbg !2583
  %cmp43 = icmp sgt i32 %call42, -1, !dbg !2583
  br i1 %cmp43, label %cond.end, label %if.end97, !dbg !2584

cond.end:                                         ; preds = %while.body
  call void @_Z24__sanitizer_cov_trace_pcv(), !dbg !2585
  call void asm sideeffect "", ""(), !dbg !2585
  call void @llvm.dbg.value(metadata i64 12, metadata !2513, metadata !DIExpression()), !dbg !2585
  %name84 = getelementptr inbounds %struct._IO_FILE, %struct._IO_FILE* %call40143, i64 0, i32 1, !dbg !2585
  %arraydecay85 = bitcast i8** %name84 to i8*, !dbg !2585
  %6 = bitcast i8* %arraydecay85 to i64*, !dbg !2585
  call void @_Z28__sanitizer_cov_trace_strcmpPmS_(i64* %6, i64* bitcast ([13 x i8]* @.str.2.11 to i64*)), !dbg !2585
  %call86 = call i32 @strcmp(i8* nonnull %arraydecay85, i8* getelementptr inbounds ([13 x i8], [13 x i8]* @.str.2.11, i64 0, i64 0)) #10, !dbg !2585
  call void @_Z32__sanitizer_cov_trace_const_cmp4jj(i32 0, i32 %call86), !dbg !2586
  %cmp87 = icmp eq i32 %call86, 0, !dbg !2586
  br i1 %cmp87, label %if.then89, label %if.end97, !dbg !2587

if.then89:                                        ; preds = %cond.end
  call void @_Z24__sanitizer_cov_trace_pcv(), !dbg !2588
  call void asm sideeffect "", ""(), !dbg !2588
  %7 = load i64 (i8*, i64, i64, %struct._IO_FILE*)*, i64 (i8*, i64, i64, %struct._IO_FILE*)** @catdoc_read, align 8, !dbg !2588, !tbaa !953
  %call91 = call i64 %7(i8* nonnull %0, i64 1, i64 128, %struct._IO_FILE* nonnull %call40143) #10, !dbg !2588
  call void @llvm.dbg.value(metadata i64 %call91, metadata !2498, metadata !DIExpression()), !dbg !2520
