	.text
	.file	"llvm-link"
	.file	1 "/home/zhangzheng1/zhangzheng1/codes/myUtilities/LLVMPass/llvm-pass-skeleton/collectCMP/catdoc-38a2807/src/catdoc.c"
	.file	2 "/usr/include/libio.h"
	.file	3 "/usr/include/x86_64-linux-gnu/bits/types.h"
	.file	4 "/data2/zhangzheng1/tools/llvm-6.0/usr/local/lib/clang/6.0.0/include/stddef.h"
	.file	5 "/usr/include/stdio.h"
	.file	6 "/home/zhangzheng1/zhangzheng1/codes/myUtilities/LLVMPass/llvm-pass-skeleton/collectCMP/catdoc-38a2807/src/reader.c"
	.file	7 "/usr/include/ctype.h"
	.file	8 "/home/zhangzheng1/zhangzheng1/codes/myUtilities/LLVMPass/llvm-pass-skeleton/collectCMP/catdoc-38a2807/src/writer.c"
	.file	9 "/home/zhangzheng1/zhangzheng1/codes/myUtilities/LLVMPass/llvm-pass-skeleton/collectCMP/catdoc-38a2807/src/analyze.c"
	.file	10 "/home/zhangzheng1/zhangzheng1/codes/myUtilities/LLVMPass/llvm-pass-skeleton/collectCMP/catdoc-38a2807/src/./ole.h"
	.file	11 "/home/zhangzheng1/zhangzheng1/codes/myUtilities/LLVMPass/llvm-pass-skeleton/collectCMP/catdoc-38a2807/src/rtfread.c"
	.file	12 "/home/zhangzheng1/zhangzheng1/codes/myUtilities/LLVMPass/llvm-pass-skeleton/collectCMP/catdoc-38a2807/src/charsets.c"
	.file	13 "/usr/include/stdint.h"
	.file	14 "/usr/include/x86_64-linux-gnu/sys/types.h"
	.file	15 "/home/zhangzheng1/zhangzheng1/codes/myUtilities/LLVMPass/llvm-pass-skeleton/collectCMP/catdoc-38a2807/src/./catdoc.h"
	.file	16 "/home/zhangzheng1/zhangzheng1/codes/myUtilities/LLVMPass/llvm-pass-skeleton/collectCMP/catdoc-38a2807/src/substmap.c"
	.file	17 "/usr/include/glob.h"
	.file	18 "/home/zhangzheng1/zhangzheng1/codes/myUtilities/LLVMPass/llvm-pass-skeleton/collectCMP/catdoc-38a2807/src/confutil.c"
	.file	19 "/usr/include/langinfo.h"
	.file	20 "/home/zhangzheng1/zhangzheng1/codes/myUtilities/LLVMPass/llvm-pass-skeleton/collectCMP/catdoc-38a2807/src/ole.c"
	.globl	_Z24__sanitizer_cov_trace_pcv # -- Begin function _Z24__sanitizer_cov_trace_pcv
	.p2align	4, 0x90
	.type	_Z24__sanitizer_cov_trace_pcv,@function
_Z24__sanitizer_cov_trace_pcv:          # @_Z24__sanitizer_cov_trace_pcv
.Lfunc_begin0:
	.cfi_startproc
# %bb.0:                                # %entry
	pushq	%rbp
	.cfi_def_cfa_offset 16
	.cfi_offset %rbp, -16
	movq	%rsp, %rbp
	.cfi_def_cfa_register %rbp
	subq	$16, %rsp
	movabsq	$.L.str, %rsi
	movq	8(%rbp), %rax
	movq	%rax, -8(%rbp)
	movq	stderr, %rdi
	movq	-8(%rbp), %rdx
	movb	$0, %al
	callq	fprintf
	addq	$16, %rsp
	popq	%rbp
	retq
.Lfunc_end0:
	.size	_Z24__sanitizer_cov_trace_pcv, .Lfunc_end0-_Z24__sanitizer_cov_trace_pcv
	.cfi_endproc
                                        # -- End function
	.globl	_Z28__sanitizer_cov_trace_strcmpPmS_ # -- Begin function _Z28__sanitizer_cov_trace_strcmpPmS_
	.p2align	4, 0x90
	.type	_Z28__sanitizer_cov_trace_strcmpPmS_,@function
_Z28__sanitizer_cov_trace_strcmpPmS_:   # @_Z28__sanitizer_cov_trace_strcmpPmS_
.Lfunc_begin1:
	.cfi_startproc
# %bb.0:                                # %entry
	pushq	%rbp
	.cfi_def_cfa_offset 16
	.cfi_offset %rbp, -16
	movq	%rsp, %rbp
	.cfi_def_cfa_register %rbp
	subq	$16, %rsp
	movabsq	$.L.str.1, %rax
	movq	%rdi, -16(%rbp)
	movq	%rsi, -8(%rbp)
	movq	stderr, %rdi
	movq	-16(%rbp), %rdx
	movq	-8(%rbp), %rcx
	movq	%rax, %rsi
	movb	$0, %al
	callq	fprintf
	addq	$16, %rsp
	popq	%rbp
	retq
.Lfunc_end1:
	.size	_Z28__sanitizer_cov_trace_strcmpPmS_, .Lfunc_end1-_Z28__sanitizer_cov_trace_strcmpPmS_
	.cfi_endproc
                                        # -- End function
	.globl	_Z26__sanitizer_cov_trace_cmp8mm # -- Begin function _Z26__sanitizer_cov_trace_cmp8mm
	.p2align	4, 0x90
	.type	_Z26__sanitizer_cov_trace_cmp8mm,@function
_Z26__sanitizer_cov_trace_cmp8mm:       # @_Z26__sanitizer_cov_trace_cmp8mm
.Lfunc_begin2:
	.cfi_startproc
# %bb.0:                                # %entry
	pushq	%rbp
	.cfi_def_cfa_offset 16
	.cfi_offset %rbp, -16
	movq	%rsp, %rbp
	.cfi_def_cfa_register %rbp
	subq	$64, %rsp
	movabsq	$.L.str.6, %rax
	movabsq	$.L.str.2, %rcx
	movq	%rdi, -24(%rbp)
	movq	%rsi, -16(%rbp)
	movq	8(%rbp), %rdx
	movq	%rdx, -8(%rbp)
	movq	-8(%rbp), %rdx
	movq	-24(%rbp), %rsi
	movq	-16(%rbp), %rdi
	movq	%rcx, -56(%rbp)
	movq	%rdx, -48(%rbp)
	movq	%rsi, -40(%rbp)
	movq	%rdi, -32(%rbp)
	movq	stderr, %rdi
	movq	-56(%rbp), %rdx
	movq	-48(%rbp), %rcx
	movq	-40(%rbp), %r8
	movq	-32(%rbp), %r9
	movq	%rax, %rsi
	movb	$0, %al
	callq	fprintf
	addq	$64, %rsp
	popq	%rbp
	retq
.Lfunc_end2:
	.size	_Z26__sanitizer_cov_trace_cmp8mm, .Lfunc_end2-_Z26__sanitizer_cov_trace_cmp8mm
	.cfi_endproc
                                        # -- End function
	.globl	_Z32__sanitizer_cov_trace_const_cmp8mm # -- Begin function _Z32__sanitizer_cov_trace_const_cmp8mm
	.p2align	4, 0x90
	.type	_Z32__sanitizer_cov_trace_const_cmp8mm,@function
_Z32__sanitizer_cov_trace_const_cmp8mm: # @_Z32__sanitizer_cov_trace_const_cmp8mm
.Lfunc_begin3:
	.cfi_startproc
# %bb.0:                                # %entry
	pushq	%rbp
	.cfi_def_cfa_offset 16
	.cfi_offset %rbp, -16
	movq	%rsp, %rbp
	.cfi_def_cfa_register %rbp
	subq	$64, %rsp
	movabsq	$.L.str.6, %rax
	movabsq	$.L.str.2, %rcx
	movq	%rdi, -24(%rbp)
	movq	%rsi, -16(%rbp)
	movq	8(%rbp), %rdx
	movq	%rdx, -8(%rbp)
	movq	-8(%rbp), %rdx
	movq	-24(%rbp), %rsi
	movq	-16(%rbp), %rdi
	movq	%rcx, -56(%rbp)
	movq	%rdx, -48(%rbp)
	movq	%rsi, -40(%rbp)
	movq	%rdi, -32(%rbp)
	movq	stderr, %rdi
	movq	-56(%rbp), %rdx
	movq	-48(%rbp), %rcx
	movq	-40(%rbp), %r8
	movq	-32(%rbp), %r9
	movq	%rax, %rsi
	movb	$0, %al
	callq	fprintf
	addq	$64, %rsp
	popq	%rbp
	retq
.Lfunc_end3:
	.size	_Z32__sanitizer_cov_trace_const_cmp8mm, .Lfunc_end3-_Z32__sanitizer_cov_trace_const_cmp8mm
	.cfi_endproc
                                        # -- End function
	.globl	_Z26__sanitizer_cov_trace_cmp4jj # -- Begin function _Z26__sanitizer_cov_trace_cmp4jj
	.p2align	4, 0x90
	.type	_Z26__sanitizer_cov_trace_cmp4jj,@function
_Z26__sanitizer_cov_trace_cmp4jj:       # @_Z26__sanitizer_cov_trace_cmp4jj
.Lfunc_begin4:
	.cfi_startproc
# %bb.0:                                # %entry
	pushq	%rbp
	.cfi_def_cfa_offset 16
	.cfi_offset %rbp, -16
	movq	%rsp, %rbp
	.cfi_def_cfa_register %rbp
	subq	$48, %rsp
	movabsq	$.L.str.6, %rax
	movabsq	$.L.str.2, %rcx
	movl	%edi, -8(%rbp)
	movl	%esi, -4(%rbp)
	movq	8(%rbp), %rdx
	movq	%rdx, -24(%rbp)
	movq	-24(%rbp), %rdx
	movl	-8(%rbp), %esi
	movl	-4(%rbp), %edi
	movq	%rcx, -40(%rbp)
	movq	%rdx, -32(%rbp)
	movl	%esi, -16(%rbp)
	movl	%edi, -12(%rbp)
	movq	stderr, %rdi
	movq	-40(%rbp), %rdx
	movq	-32(%rbp), %rcx
	movl	-16(%rbp), %r8d
	movl	-12(%rbp), %r9d
	movq	%rax, %rsi
	movb	$0, %al
	callq	fprintf
	addq	$48, %rsp
	popq	%rbp
	retq
.Lfunc_end4:
	.size	_Z26__sanitizer_cov_trace_cmp4jj, .Lfunc_end4-_Z26__sanitizer_cov_trace_cmp4jj
	.cfi_endproc
                                        # -- End function
	.globl	_Z32__sanitizer_cov_trace_const_cmp4jj # -- Begin function _Z32__sanitizer_cov_trace_const_cmp4jj
	.p2align	4, 0x90
	.type	_Z32__sanitizer_cov_trace_const_cmp4jj,@function
_Z32__sanitizer_cov_trace_const_cmp4jj: # @_Z32__sanitizer_cov_trace_const_cmp4jj
.Lfunc_begin5:
	.cfi_startproc
# %bb.0:                                # %entry
	pushq	%rbp
	.cfi_def_cfa_offset 16
	.cfi_offset %rbp, -16
	movq	%rsp, %rbp
	.cfi_def_cfa_register %rbp
	subq	$48, %rsp
	movabsq	$.L.str.6, %rax
	movabsq	$.L.str.2, %rcx
	movl	%edi, -8(%rbp)
	movl	%esi, -4(%rbp)
	movq	8(%rbp), %rdx
	movq	%rdx, -24(%rbp)
	movq	-24(%rbp), %rdx
	movl	-8(%rbp), %esi
	movl	-4(%rbp), %edi
	movq	%rcx, -40(%rbp)
	movq	%rdx, -32(%rbp)
	movl	%esi, -16(%rbp)
	movl	%edi, -12(%rbp)
	movq	stderr, %rdi
	movq	-40(%rbp), %rdx
	movq	-32(%rbp), %rcx
	movl	-16(%rbp), %r8d
	movl	-12(%rbp), %r9d
	movq	%rax, %rsi
	movb	$0, %al
	callq	fprintf
	addq	$48, %rsp
	popq	%rbp
	retq
.Lfunc_end5:
	.size	_Z32__sanitizer_cov_trace_const_cmp4jj, .Lfunc_end5-_Z32__sanitizer_cov_trace_const_cmp4jj
	.cfi_endproc
                                        # -- End function
	.globl	_Z26__sanitizer_cov_trace_cmp2tt # -- Begin function _Z26__sanitizer_cov_trace_cmp2tt
	.p2align	4, 0x90
	.type	_Z26__sanitizer_cov_trace_cmp2tt,@function
_Z26__sanitizer_cov_trace_cmp2tt:       # @_Z26__sanitizer_cov_trace_cmp2tt
.Lfunc_begin6:
	.cfi_startproc
# %bb.0:                                # %entry
	pushq	%rbp
	.cfi_def_cfa_offset 16
	.cfi_offset %rbp, -16
	movq	%rsp, %rbp
	.cfi_def_cfa_register %rbp
	subq	$32, %rsp
	movabsq	$.L.str.6, %rax
	movabsq	$.L.str.2, %rcx
	movw	%di, -4(%rbp)
	movw	%si, -2(%rbp)
	movq	8(%rbp), %rdx
	movq	%rdx, -16(%rbp)
	movq	-16(%rbp), %rdx
	movw	-4(%rbp), %si
	movw	-2(%rbp), %di
	movq	%rcx, -32(%rbp)
	movq	%rdx, -24(%rbp)
	movw	%si, -8(%rbp)
	movw	%di, -6(%rbp)
	movq	stderr, %rdi
	movq	-32(%rbp), %rdx
	movq	-24(%rbp), %rcx
	movzwl	-8(%rbp), %r8d
	movzwl	-6(%rbp), %r9d
	movq	%rax, %rsi
	movb	$0, %al
	callq	fprintf
	addq	$32, %rsp
	popq	%rbp
	retq
.Lfunc_end6:
	.size	_Z26__sanitizer_cov_trace_cmp2tt, .Lfunc_end6-_Z26__sanitizer_cov_trace_cmp2tt
	.cfi_endproc
                                        # -- End function
	.globl	_Z32__sanitizer_cov_trace_const_cmp2tt # -- Begin function _Z32__sanitizer_cov_trace_const_cmp2tt
	.p2align	4, 0x90
	.type	_Z32__sanitizer_cov_trace_const_cmp2tt,@function
_Z32__sanitizer_cov_trace_const_cmp2tt: # @_Z32__sanitizer_cov_trace_const_cmp2tt
.Lfunc_begin7:
	.cfi_startproc
# %bb.0:                                # %entry
	pushq	%rbp
	.cfi_def_cfa_offset 16
	.cfi_offset %rbp, -16
	movq	%rsp, %rbp
	.cfi_def_cfa_register %rbp
	subq	$32, %rsp
	movabsq	$.L.str.6, %rax
	movabsq	$.L.str.2, %rcx
	movw	%di, -4(%rbp)
	movw	%si, -2(%rbp)
	movq	8(%rbp), %rdx
	movq	%rdx, -16(%rbp)
	movq	-16(%rbp), %rdx
	movw	-4(%rbp), %si
	movw	-2(%rbp), %di
	movq	%rcx, -32(%rbp)
	movq	%rdx, -24(%rbp)
	movw	%si, -8(%rbp)
	movw	%di, -6(%rbp)
	movq	stderr, %rdi
	movq	-32(%rbp), %rdx
	movq	-24(%rbp), %rcx
	movzwl	-8(%rbp), %r8d
	movzwl	-6(%rbp), %r9d
	movq	%rax, %rsi
	movb	$0, %al
	callq	fprintf
	addq	$32, %rsp
	popq	%rbp
	retq
.Lfunc_end7:
	.size	_Z32__sanitizer_cov_trace_const_cmp2tt, .Lfunc_end7-_Z32__sanitizer_cov_trace_const_cmp2tt
	.cfi_endproc
                                        # -- End function
	.globl	_Z26__sanitizer_cov_trace_cmp1hh # -- Begin function _Z26__sanitizer_cov_trace_cmp1hh
	.p2align	4, 0x90
	.type	_Z26__sanitizer_cov_trace_cmp1hh,@function
_Z26__sanitizer_cov_trace_cmp1hh:       # @_Z26__sanitizer_cov_trace_cmp1hh
.Lfunc_begin8:
	.cfi_startproc
# %bb.0:                                # %entry
	pushq	%rbp
	.cfi_def_cfa_offset 16
	.cfi_offset %rbp, -16
	movq	%rsp, %rbp
	.cfi_def_cfa_register %rbp
	subq	$32, %rsp
	movabsq	$.L.str.6, %r10
	movabsq	$.L.str.2, %r8
	movb	%dil, -2(%rbp)
	movb	%sil, -1(%rbp)
	movq	8(%rbp), %rdx
	movq	%rdx, -16(%rbp)
	movq	-16(%rbp), %rdx
	movb	-2(%rbp), %al
	movb	-1(%rbp), %cl
	movq	%r8, -32(%rbp)
	movq	%rdx, -24(%rbp)
	movb	%al, -4(%rbp)
	movb	%cl, -3(%rbp)
	movq	stderr, %rdi
	movq	-32(%rbp), %rdx
	movq	-24(%rbp), %rcx
	movzbl	-4(%rbp), %r8d
	movzbl	-3(%rbp), %r9d
	movq	%r10, %rsi
	movb	$0, %al
	callq	fprintf
	addq	$32, %rsp
	popq	%rbp
	retq
.Lfunc_end8:
	.size	_Z26__sanitizer_cov_trace_cmp1hh, .Lfunc_end8-_Z26__sanitizer_cov_trace_cmp1hh
	.cfi_endproc
                                        # -- End function
	.globl	_Z32__sanitizer_cov_trace_const_cmp1hh # -- Begin function _Z32__sanitizer_cov_trace_const_cmp1hh
	.p2align	4, 0x90
	.type	_Z32__sanitizer_cov_trace_const_cmp1hh,@function
_Z32__sanitizer_cov_trace_const_cmp1hh: # @_Z32__sanitizer_cov_trace_const_cmp1hh
.Lfunc_begin9:
	.cfi_startproc
# %bb.0:                                # %entry
	pushq	%rbp
	.cfi_def_cfa_offset 16
	.cfi_offset %rbp, -16
	movq	%rsp, %rbp
	.cfi_def_cfa_register %rbp
	subq	$32, %rsp
	movabsq	$.L.str.6, %r10
	movabsq	$.L.str.2, %r8
	movb	%dil, -2(%rbp)
	movb	%sil, -1(%rbp)
	movq	8(%rbp), %rdx
	movq	%rdx, -16(%rbp)
	movq	-16(%rbp), %rdx
	movb	-2(%rbp), %al
	movb	-1(%rbp), %cl
	movq	%r8, -32(%rbp)
	movq	%rdx, -24(%rbp)
	movb	%al, -4(%rbp)
	movb	%cl, -3(%rbp)
	movq	stderr, %rdi
	movq	-32(%rbp), %rdx
	movq	-24(%rbp), %rcx
	movzbl	-4(%rbp), %r8d
	movzbl	-3(%rbp), %r9d
	movq	%r10, %rsi
	movb	$0, %al
	callq	fprintf
	addq	$32, %rsp
	popq	%rbp
	retq
.Lfunc_end9:
	.size	_Z32__sanitizer_cov_trace_const_cmp1hh, .Lfunc_end9-_Z32__sanitizer_cov_trace_const_cmp1hh
	.cfi_endproc
                                        # -- End function
	.globl	_Z28__sanitizer_cov_trace_switchmPm # -- Begin function _Z28__sanitizer_cov_trace_switchmPm
	.p2align	4, 0x90
	.type	_Z28__sanitizer_cov_trace_switchmPm,@function
_Z28__sanitizer_cov_trace_switchmPm:    # @_Z28__sanitizer_cov_trace_switchmPm
.Lfunc_begin10:
	.cfi_startproc
# %bb.0:                                # %entry
	pushq	%rbp
	.cfi_def_cfa_offset 16
	.cfi_offset %rbp, -16
	movq	%rsp, %rbp
	.cfi_def_cfa_register %rbp
	subq	$144, %rsp
	movq	%rdi, -144(%rbp)
	movq	%rsi, -40(%rbp)
	movq	-40(%rbp), %rax
	movq	(%rax), %rax
	movq	%rax, -64(%rbp)
	movq	-40(%rbp), %rax
	movq	8(%rax), %rax
	movq	%rax, -56(%rbp)
	movq	-40(%rbp), %rax
	addq	$16, %rax
	movq	%rax, -32(%rbp)
	movq	8(%rbp), %rax
	movq	%rax, -24(%rbp)
	movq	$0, -136(%rbp)
	movq	$0, -8(%rbp)
.LBB10_1:                               # %for.cond
                                        # =>This Inner Loop Header: Depth=1
	movq	-8(%rbp), %rax
	cmpq	-64(%rbp), %rax
	jae	.LBB10_10
# %bb.2:                                # %for.body
                                        #   in Loop: Header=BB10_1 Depth=1
	cmpq	$16, -56(%rbp)
	jne	.LBB10_4
# %bb.3:                                # %if.then
                                        #   in Loop: Header=BB10_1 Depth=1
	movabsq	$.L.str.6, %rsi
	movabsq	$.L.str.3, %rax
	movq	-24(%rbp), %rcx
	addq	-8(%rbp), %rcx
	movq	-32(%rbp), %rdx
	movq	-8(%rbp), %rdi
	movq	(%rdx,%rdi,8), %rdx
	movq	%rax, -80(%rbp)
	movq	%rcx, -72(%rbp)
	movw	%dx, -12(%rbp)
	movw	$0, -10(%rbp)
	movq	stderr, %rdi
	movq	-80(%rbp), %rdx
	movq	-72(%rbp), %rcx
	movzwl	-12(%rbp), %r8d
	movzwl	-10(%rbp), %r9d
	movb	$0, %al
	callq	fprintf
	jmp	.LBB10_8
.LBB10_4:                               # %if.else
                                        #   in Loop: Header=BB10_1 Depth=1
	cmpq	$32, -56(%rbp)
	jne	.LBB10_6
# %bb.5:                                # %if.then5
                                        #   in Loop: Header=BB10_1 Depth=1
	movabsq	$.L.str.6, %rsi
	movabsq	$.L.str.4, %rax
	movq	-24(%rbp), %rcx
	addq	-8(%rbp), %rcx
	movq	-32(%rbp), %rdx
	movq	-8(%rbp), %rdi
	movq	(%rdx,%rdi,8), %rdx
	movq	%rax, -96(%rbp)
	movq	%rcx, -88(%rbp)
	movl	%edx, -48(%rbp)
	movl	$0, -44(%rbp)
	movq	stderr, %rdi
	movq	-96(%rbp), %rdx
	movq	-88(%rbp), %rcx
	movl	-48(%rbp), %r8d
	movl	-44(%rbp), %r9d
	movb	$0, %al
	callq	fprintf
	jmp	.LBB10_7
.LBB10_6:                               # %if.else9
                                        #   in Loop: Header=BB10_1 Depth=1
	movabsq	$.L.str.6, %rsi
	movabsq	$.L.str.5, %rax
	movq	-24(%rbp), %rcx
	addq	-8(%rbp), %rcx
	movq	-32(%rbp), %rdx
	movq	-8(%rbp), %rdi
	movq	(%rdx,%rdi,8), %rdx
	movq	%rax, -128(%rbp)
	movq	%rcx, -120(%rbp)
	movq	%rdx, -112(%rbp)
	movq	$0, -104(%rbp)
	movq	stderr, %rdi
	movq	-128(%rbp), %rdx
	movq	-120(%rbp), %rcx
	movq	-112(%rbp), %r8
	movq	-104(%rbp), %r9
	movb	$0, %al
	callq	fprintf
.LBB10_7:                               # %if.end
                                        #   in Loop: Header=BB10_1 Depth=1
	jmp	.LBB10_8
.LBB10_8:                               # %if.end12
                                        #   in Loop: Header=BB10_1 Depth=1
	jmp	.LBB10_9
.LBB10_9:                               # %for.inc
                                        #   in Loop: Header=BB10_1 Depth=1
	movq	-8(%rbp), %rax
	addq	$1, %rax
	movq	%rax, -8(%rbp)
	jmp	.LBB10_1
.LBB10_10:                              # %for.end
	addq	$144, %rsp
	popq	%rbp
	retq
.Lfunc_end10:
	.size	_Z28__sanitizer_cov_trace_switchmPm, .Lfunc_end10-_Z28__sanitizer_cov_trace_switchmPm
	.cfi_endproc
                                        # -- End function
	.globl	main                    # -- Begin function main
	.p2align	4, 0x90
	.type	main,@function
main:                                   # @main
.Lfunc_begin11:
	.loc	1 38 0                  # catdoc.c:38:0
	.cfi_startproc
# %bb.0:                                # %entry
	pushq	%rbp
	.cfi_def_cfa_offset 16
	pushq	%r15
	.cfi_def_cfa_offset 24
	pushq	%r14
	.cfi_def_cfa_offset 32
	pushq	%r13
	.cfi_def_cfa_offset 40
	pushq	%r12
	.cfi_def_cfa_offset 48
	pushq	%rbx
	.cfi_def_cfa_offset 56
	subq	$24, %rsp
	.cfi_def_cfa_offset 80
	.cfi_offset %rbx, -56
	.cfi_offset %r12, -48
	.cfi_offset %r13, -40
	.cfi_offset %r14, -32
	.cfi_offset %r15, -24
	.cfi_offset %rbp, -16
	#DEBUG_VALUE: main:argc <- %edi
	#DEBUG_VALUE: main:argv <- %rsi
	movq	%rsi, %r14
	movl	%edi, %r13d
	callq	_Z24__sanitizer_cov_trace_pcv
.Ltmp0:
	#APP
	#NO_APP
.Ltmp1:
	#DEBUG_VALUE: main:stdin_processed <- 0
	#DEBUG_VALUE: main:argv <- %r14
	#DEBUG_VALUE: main:argc <- %r13d
	.loc	1 48 2 prologue_end     # catdoc.c:48:2
	movl	$.L.str.7, %edi
	callq	read_config_file
.Ltmp2:
	#DEBUG_VALUE: __len <- 10
	.loc	1 50 21                 # catdoc.c:50:21
	movl	$10, %edi
	callq	malloc
	movq	%rax, %rbx
.Ltmp3:
	#DEBUG_VALUE: __retval <- %rbx
	.loc	1 50 21 is_stmt 0       # catdoc.c:50:21
	testq	%rbx, %rbx
.Ltmp4:
	.loc	1 50 21                 # catdoc.c:50:21
	je	.LBB11_2
.Ltmp5:
# %bb.1:                                # %if.then
	#DEBUG_VALUE: __retval <- %rbx
	#DEBUG_VALUE: main:argc <- %r13d
	#DEBUG_VALUE: main:argv <- %r14
	.loc	1 50 21                 # catdoc.c:50:21
	callq	_Z24__sanitizer_cov_trace_pcv
	#APP
	#NO_APP
	movabsq	$8242554220258091822, %rax # imm = 0x72636F647461632E
	movq	%rax, (%rbx)
	movw	$99, 8(%rbx)
.Ltmp6:
.LBB11_2:                               # %cond.end8
	#DEBUG_VALUE: __retval <- %rbx
	#DEBUG_VALUE: main:argc <- %r13d
	#DEBUG_VALUE: main:argv <- %r14
	.loc	1 50 21                 # catdoc.c:50:21
	callq	_Z24__sanitizer_cov_trace_pcv
	#APP
	#NO_APP
.Ltmp7:
	.loc	1 50 36                 # catdoc.c:50:36
	movl	$.L.str.2.9, %edi
	callq	getenv
	.loc	1 50 11                 # catdoc.c:50:11
	movq	%rbx, %rdi
	movq	%rax, %rsi
	callq	find_file
	movq	%rax, %rbx
.Ltmp8:
	#DEBUG_VALUE: main:tempname <- %rbx
	.loc	1 51 6 is_stmt 1        # catdoc.c:51:6
	testq	%rbx, %rbx
.Ltmp9:
	.loc	1 51 6 is_stmt 0        # catdoc.c:51:6
	je	.LBB11_4
.Ltmp10:
# %bb.3:                                # %if.then12
	#DEBUG_VALUE: main:tempname <- %rbx
	#DEBUG_VALUE: main:argc <- %r13d
	#DEBUG_VALUE: main:argv <- %r14
	.loc	1 52 3 is_stmt 1        # catdoc.c:52:3
	callq	_Z24__sanitizer_cov_trace_pcv
	#APP
	#NO_APP
	movq	%rbx, %rdi
	callq	read_config_file
	.loc	1 53 3                  # catdoc.c:53:3
	movq	%rbx, %rdi
	callq	free
.Ltmp11:
.LBB11_4:                               # %if.end13
	#DEBUG_VALUE: main:tempname <- %rbx
	#DEBUG_VALUE: main:argc <- %r13d
	#DEBUG_VALUE: main:argv <- %r14
	.loc	1 57 2                  # catdoc.c:57:2
	callq	_Z24__sanitizer_cov_trace_pcv
	#APP
	#NO_APP
	callq	get_locale_charset
	leaq	16(%rsp), %r15
	jmp	.LBB11_5
.Ltmp12:
	.p2align	4, 0x90
.LBB11_25:                              # %while.cond.backedge
                                        #   in Loop: Header=BB11_5 Depth=1
	#DEBUG_VALUE: main:argc <- %r13d
	#DEBUG_VALUE: main:argv <- %r14
	.loc	1 59 12                 # catdoc.c:59:12
	callq	_Z24__sanitizer_cov_trace_pcv
	#APP
	#NO_APP
.Ltmp13:
.LBB11_5:                               # %while.cond
                                        # =>This Inner Loop Header: Depth=1
	#DEBUG_VALUE: main:tempname <- %rbx
	#DEBUG_VALUE: main:argc <- %r13d
	#DEBUG_VALUE: main:argv <- %r14
	callq	_Z24__sanitizer_cov_trace_pcv
	#APP
	#NO_APP
	movl	$.L.str.3.10, %edx
	movl	%r13d, %edi
	movq	%r14, %rsi
	callq	getopt
	movl	%eax, %ebx
.Ltmp14:
	#DEBUG_VALUE: main:c <- %ebx
	.loc	1 59 2 is_stmt 0        # catdoc.c:59:2
	movl	%ebx, %edi
	movl	$__sancov_gen_cov_switch_values, %esi
	callq	_Z28__sanitizer_cov_trace_switchmPm
	addl	$1, %ebx
.Ltmp15:
	cmpl	$121, %ebx
	ja	.LBB11_27
.Ltmp16:
# %bb.6:                                # %while.cond
                                        #   in Loop: Header=BB11_5 Depth=1
	#DEBUG_VALUE: main:argc <- %r13d
	#DEBUG_VALUE: main:argv <- %r14
	.loc	1 0 2                   # catdoc.c:0:2
	jmpq	*.LJTI11_0(,%rbx,8)
.Ltmp17:
.LBB11_17:                              # %sw.bb67
                                        #   in Loop: Header=BB11_5 Depth=1
	#DEBUG_VALUE: main:argc <- %r13d
	#DEBUG_VALUE: main:argv <- %r14
	.loc	1 81 22 is_stmt 1       # catdoc.c:81:22
	callq	_Z24__sanitizer_cov_trace_pcv
	#APP
	#NO_APP
	movq	$get_8bit_char, get_unicode_char(%rip)
	jmp	.LBB11_25
.Ltmp18:
.LBB11_24:                              # %sw.bb79
                                        #   in Loop: Header=BB11_5 Depth=1
	#DEBUG_VALUE: main:argc <- %r13d
	#DEBUG_VALUE: main:argv <- %r14
	.loc	1 100 29                # catdoc.c:100:29
	callq	_Z24__sanitizer_cov_trace_pcv
	#APP
	#NO_APP
	movl	$1, unknown_as_hex(%rip)
	jmp	.LBB11_25
.Ltmp19:
.LBB11_9:                               # %sw.bb20
                                        #   in Loop: Header=BB11_5 Depth=1
	#DEBUG_VALUE: main:argc <- %r13d
	#DEBUG_VALUE: main:argv <- %r14
	.loc	1 69 17                 # catdoc.c:69:17
	callq	_Z24__sanitizer_cov_trace_pcv
	#APP
	#NO_APP
	movq	optarg(%rip), %rdi
	callq	__strdup
	.loc	1 69 16 is_stmt 0       # catdoc.c:69:16
	movq	%rax, format_name(%rip)
	jmp	.LBB11_25
.Ltmp20:
.LBB11_8:                               # %sw.bb18
                                        #   in Loop: Header=BB11_5 Depth=1
	#DEBUG_VALUE: main:argc <- %r13d
	#DEBUG_VALUE: main:argv <- %r14
	.loc	1 66 32 is_stmt 1       # catdoc.c:66:32
	callq	_Z24__sanitizer_cov_trace_pcv
	#APP
	#NO_APP
	movq	optarg(%rip), %rsi
	.loc	1 66 5 is_stmt 0        # catdoc.c:66:5
	movl	$dest_csname, %edi
	callq	check_charset
	jmp	.LBB11_25
.Ltmp21:
.LBB11_10:                              # %cond.false29
                                        #   in Loop: Header=BB11_5 Depth=1
	#DEBUG_VALUE: main:argc <- %r13d
	#DEBUG_VALUE: main:argv <- %r14
	.loc	1 72 17 is_stmt 1       # catdoc.c:72:17
	callq	_Z24__sanitizer_cov_trace_pcv
	#APP
	#NO_APP
.Ltmp22:
	#DEBUG_VALUE: __len <- 4
	movl	$4, %edi
	callq	malloc
	movq	%rax, %rbx
.Ltmp23:
	#DEBUG_VALUE: __retval <- %rbx
	.loc	1 72 17 is_stmt 0       # catdoc.c:72:17
	testq	%rbx, %rbx
.Ltmp24:
	.loc	1 72 17                 # catdoc.c:72:17
	je	.LBB11_12
.Ltmp25:
# %bb.11:                               # %if.then35
                                        #   in Loop: Header=BB11_5 Depth=1
	#DEBUG_VALUE: __retval <- %rbx
	#DEBUG_VALUE: main:argc <- %r13d
	#DEBUG_VALUE: main:argv <- %r14
	.loc	1 72 17                 # catdoc.c:72:17
	callq	_Z24__sanitizer_cov_trace_pcv
	#APP
	#NO_APP
	movl	$7890292, (%rbx)        # imm = 0x786574
.Ltmp26:
.LBB11_12:                              # %cond.end42
                                        #   in Loop: Header=BB11_5 Depth=1
	#DEBUG_VALUE: __retval <- %rbx
	#DEBUG_VALUE: main:argc <- %r13d
	#DEBUG_VALUE: main:argv <- %r14
	.loc	1 72 17                 # catdoc.c:72:17
	callq	_Z24__sanitizer_cov_trace_pcv
	#APP
	#NO_APP
.Ltmp27:
	.loc	1 72 16                 # catdoc.c:72:16
	movq	%rbx, format_name(%rip)
	jmp	.LBB11_25
.Ltmp28:
.LBB11_18:                              # %sw.bb68
                                        #   in Loop: Header=BB11_5 Depth=1
	#DEBUG_VALUE: main:argc <- %r13d
	#DEBUG_VALUE: main:argv <- %r14
	.loc	1 84 12 is_stmt 1       # catdoc.c:84:12
	callq	_Z24__sanitizer_cov_trace_pcv
	#APP
	#NO_APP
	movl	$1, verbose(%rip)
	jmp	.LBB11_25
.Ltmp29:
.LBB11_13:                              # %cond.false51
                                        #   in Loop: Header=BB11_5 Depth=1
	#DEBUG_VALUE: main:argc <- %r13d
	#DEBUG_VALUE: main:argv <- %r14
	.loc	1 75 17                 # catdoc.c:75:17
	callq	_Z24__sanitizer_cov_trace_pcv
	#APP
	#NO_APP
.Ltmp30:
	#DEBUG_VALUE: __len <- 6
	movl	$6, %edi
	callq	malloc
	movq	%rax, %rbx
.Ltmp31:
	#DEBUG_VALUE: __retval <- %rbx
	.loc	1 75 17 is_stmt 0       # catdoc.c:75:17
	testq	%rbx, %rbx
.Ltmp32:
	.loc	1 75 17                 # catdoc.c:75:17
	je	.LBB11_15
.Ltmp33:
# %bb.14:                               # %if.then57
                                        #   in Loop: Header=BB11_5 Depth=1
	#DEBUG_VALUE: __retval <- %rbx
	#DEBUG_VALUE: main:argc <- %r13d
	#DEBUG_VALUE: main:argv <- %r14
	.loc	1 75 17                 # catdoc.c:75:17
	callq	_Z24__sanitizer_cov_trace_pcv
	#APP
	#NO_APP
	movw	$105, 4(%rbx)
	movl	$1768125281, (%rbx)     # imm = 0x69637361
.Ltmp34:
.LBB11_15:                              # %cond.end64
                                        #   in Loop: Header=BB11_5 Depth=1
	#DEBUG_VALUE: __retval <- %rbx
	#DEBUG_VALUE: main:argc <- %r13d
	#DEBUG_VALUE: main:argv <- %r14
	.loc	1 75 17                 # catdoc.c:75:17
	callq	_Z24__sanitizer_cov_trace_pcv
	#APP
	#NO_APP
.Ltmp35:
	.loc	1 75 16                 # catdoc.c:75:16
	movq	%rbx, format_name(%rip)
	jmp	.LBB11_25
.Ltmp36:
.LBB11_23:                              # %sw.bb78
                                        #   in Loop: Header=BB11_5 Depth=1
	#DEBUG_VALUE: main:argc <- %r13d
	#DEBUG_VALUE: main:argv <- %r14
	.loc	1 99 30 is_stmt 1       # catdoc.c:99:30
	callq	_Z24__sanitizer_cov_trace_pcv
	#APP
	#NO_APP
	movl	$0, signature_check(%rip)
	jmp	.LBB11_25
.Ltmp37:
.LBB11_20:                              # %sw.bb70
                                        #   in Loop: Header=BB11_5 Depth=1
	#DEBUG_VALUE: main:argc <- %r13d
	#DEBUG_VALUE: main:argv <- %r14
	.loc	1 90 9                  # catdoc.c:90:9
	callq	_Z24__sanitizer_cov_trace_pcv
	#APP
	#NO_APP
	.loc	1 91 35                 # catdoc.c:91:35
	movq	optarg(%rip), %rdi
.Ltmp38:
	#DEBUG_VALUE: endptr <- [DW_OP_plus_uconst 16] [%rsp+0]
	.loc	1 91 28 is_stmt 0       # catdoc.c:91:28
	xorl	%edx, %edx
	movq	%r15, %rsi
	callq	strtol
	.loc	1 91 21                 # catdoc.c:91:21
	movl	%eax, wrap_margin(%rip)
.Ltmp39:
	.loc	1 92 14 is_stmt 1       # catdoc.c:92:14
	movq	16(%rsp), %rax
.Ltmp40:
	#DEBUG_VALUE: endptr <- %rax
	.loc	1 92 13 is_stmt 0       # catdoc.c:92:13
	movzbl	(%rax), %ebx
	xorl	%edi, %edi
	movl	%ebx, %esi
	callq	_Z32__sanitizer_cov_trace_const_cmp1hh
.Ltmp41:
	testl	%ebx, %ebx
.Ltmp42:
	.loc	1 92 13                 # catdoc.c:92:13
	jne	.LBB11_70
.Ltmp43:
# %bb.21:                               # %if.end76
                                        #   in Loop: Header=BB11_5 Depth=1
	#DEBUG_VALUE: main:argc <- %r13d
	#DEBUG_VALUE: main:argv <- %r14
	.loc	1 97 8 is_stmt 1        # catdoc.c:97:8
	callq	_Z24__sanitizer_cov_trace_pcv
	#APP
	#NO_APP
	jmp	.LBB11_25
.Ltmp44:
.LBB11_7:                               # %sw.bb
                                        #   in Loop: Header=BB11_5 Depth=1
	#DEBUG_VALUE: main:argc <- %r13d
	#DEBUG_VALUE: main:argv <- %r14
	.loc	1 62 34                 # catdoc.c:62:34
	callq	_Z24__sanitizer_cov_trace_pcv
	#APP
	#NO_APP
	movq	optarg(%rip), %rsi
	.loc	1 62 5 is_stmt 0        # catdoc.c:62:5
	movl	$source_csname, %edi
	callq	check_charset
	.loc	1 63 20 is_stmt 1       # catdoc.c:63:20
	movl	$1, forced_charset(%rip)
	jmp	.LBB11_25
.Ltmp45:
.LBB11_16:                              # %sw.bb66
                                        #   in Loop: Header=BB11_5 Depth=1
	#DEBUG_VALUE: main:argc <- %r13d
	#DEBUG_VALUE: main:argv <- %r14
	.loc	1 78 22                 # catdoc.c:78:22
	callq	_Z24__sanitizer_cov_trace_pcv
	#APP
	#NO_APP
	movq	$get_word8_char, get_unicode_char(%rip)
	jmp	.LBB11_25
.Ltmp46:
.LBB11_19:                              # %sw.bb69
                                        #   in Loop: Header=BB11_5 Depth=1
	#DEBUG_VALUE: main:argc <- %r13d
	#DEBUG_VALUE: main:argv <- %r14
	.loc	1 87 16                 # catdoc.c:87:16
	callq	_Z24__sanitizer_cov_trace_pcv
	#APP
	#NO_APP
	movl	$0, wrap_margin(%rip)
	jmp	.LBB11_25
.Ltmp47:
.LBB11_28:                              # %while.end
	#DEBUG_VALUE: main:argc <- %r13d
	#DEBUG_VALUE: main:argv <- %r14
	.loc	1 108 15                # catdoc.c:108:15
	callq	_Z24__sanitizer_cov_trace_pcv
	#APP
	#NO_APP
	movl	$262144, %edi           # imm = 0x40000
	callq	malloc
	.loc	1 108 14 is_stmt 0      # catdoc.c:108:14
	movq	%rax, input_buffer(%rip)
.Ltmp48:
	.loc	1 109 7 is_stmt 1       # catdoc.c:109:7
	testq	%rax, %rax
.Ltmp49:
	.loc	1 109 6 is_stmt 0       # catdoc.c:109:6
	je	.LBB11_29
.Ltmp50:
.LBB11_30:                              # %if.end86
	#DEBUG_VALUE: main:argc <- %r13d
	#DEBUG_VALUE: main:argv <- %r14
	.loc	1 112 32 is_stmt 1      # catdoc.c:112:32
	callq	_Z24__sanitizer_cov_trace_pcv
	#APP
	#NO_APP
	movq	source_csname(%rip), %rdi
	.loc	1 112 19 is_stmt 0      # catdoc.c:112:19
	callq	read_charset
	.loc	1 112 17                # catdoc.c:112:17
	movq	%rax, source_charset(%rip)
.Ltmp51:
	.loc	1 113 7 is_stmt 1       # catdoc.c:113:7
	testq	%rax, %rax
.Ltmp52:
	.loc	1 113 6 is_stmt 0       # catdoc.c:113:6
	je	.LBB11_71
.Ltmp53:
# %bb.31:                               # %cond.end135
	#DEBUG_VALUE: main:argc <- %r13d
	#DEBUG_VALUE: main:argv <- %r14
	.loc	1 114 6 is_stmt 1       # catdoc.c:114:6
	callq	_Z24__sanitizer_cov_trace_pcv
	#APP
	#NO_APP
.Ltmp54:
	#DEBUG_VALUE: __s2_len <- 5
	movq	dest_csname(%rip), %rbx
	movl	$.L.str.10, %esi
	movq	%rbx, %rdi
	callq	_Z28__sanitizer_cov_trace_strcmpPmS_
	movl	$.L.str.10, %esi
	movq	%rbx, %rdi
	callq	strcmp
	movl	%eax, %ebp
.Ltmp55:
	.loc	1 114 6 is_stmt 0       # catdoc.c:114:6
	xorl	%edi, %edi
	movl	%ebp, %esi
	callq	_Z32__sanitizer_cov_trace_const_cmp4jj
	testl	%ebp, %ebp
	je	.LBB11_34
.Ltmp56:
# %bb.32:                               # %if.then141
	#DEBUG_VALUE: main:argc <- %r13d
	#DEBUG_VALUE: main:argv <- %r14
	.loc	1 115 17 is_stmt 1      # catdoc.c:115:17
	callq	_Z24__sanitizer_cov_trace_pcv
	#APP
	#NO_APP
	movq	%rbx, %rdi
	callq	read_charset
	movq	%rax, %rbx
.Ltmp57:
	#DEBUG_VALUE: main:tmp_charset <- %rbx
	.loc	1 116 8                 # catdoc.c:116:8
	testq	%rbx, %rbx
.Ltmp58:
	.loc	1 116 7 is_stmt 0       # catdoc.c:116:7
	je	.LBB11_72
.Ltmp59:
# %bb.33:                               # %if.end145
	#DEBUG_VALUE: main:tmp_charset <- %rbx
	#DEBUG_VALUE: main:argc <- %r13d
	#DEBUG_VALUE: main:argv <- %r14
	.loc	1 117 19 is_stmt 1      # catdoc.c:117:19
	callq	_Z24__sanitizer_cov_trace_pcv
	#APP
	#NO_APP
	movq	%rbx, %rdi
	callq	make_reverse_map
	.loc	1 117 17 is_stmt 0      # catdoc.c:117:17
	movq	%rax, target_charset(%rip)
	.loc	1 118 3 is_stmt 1       # catdoc.c:118:3
	movq	%rbx, %rdi
	callq	free
	jmp	.LBB11_35
.Ltmp60:
.LBB11_34:                              # %if.else
	#DEBUG_VALUE: main:argc <- %r13d
	#DEBUG_VALUE: main:argv <- %r14
	.loc	1 120 18                # catdoc.c:120:18
	callq	_Z24__sanitizer_cov_trace_pcv
	#APP
	#NO_APP
	movq	$0, target_charset(%rip)
.Ltmp61:
.LBB11_35:                              # %if.end147
	#DEBUG_VALUE: main:argc <- %r13d
	#DEBUG_VALUE: main:argv <- %r14
	.loc	1 122 34                # catdoc.c:122:34
	callq	_Z24__sanitizer_cov_trace_pcv
	#APP
	#NO_APP
	movq	format_name(%rip), %rdi
	.loc	1 122 27 is_stmt 0      # catdoc.c:122:27
	movl	$.L.str.11, %esi
	callq	stradd
	.loc	1 122 13                # catdoc.c:122:13
	movq	%rax, %rdi
	callq	read_substmap
	.loc	1 122 12                # catdoc.c:122:12
	movq	%rax, spec_chars(%rip)
.Ltmp62:
	.loc	1 123 7 is_stmt 1       # catdoc.c:123:7
	testq	%rax, %rax
.Ltmp63:
	.loc	1 123 6 is_stmt 0       # catdoc.c:123:6
	je	.LBB11_36
.Ltmp64:
# %bb.38:                               # %if.end153
	#DEBUG_VALUE: main:argc <- %r13d
	#DEBUG_VALUE: main:argv <- %r14
	.loc	1 128 36 is_stmt 1      # catdoc.c:128:36
	callq	_Z24__sanitizer_cov_trace_pcv
	#APP
	#NO_APP
	movq	format_name(%rip), %rdi
	.loc	1 128 29 is_stmt 0      # catdoc.c:128:29
	movl	$.L.str.13, %esi
	callq	stradd
	.loc	1 128 15                # catdoc.c:128:15
	movq	%rax, %rdi
	callq	read_substmap
	.loc	1 128 14                # catdoc.c:128:14
	movq	%rax, replacements(%rip)
.Ltmp65:
	.loc	1 129 7 is_stmt 1       # catdoc.c:129:7
	testq	%rax, %rax
.Ltmp66:
	.loc	1 129 6 is_stmt 0       # catdoc.c:129:6
	je	.LBB11_39
.Ltmp67:
# %bb.40:                               # %if.end159
	#DEBUG_VALUE: main:argc <- %r13d
	#DEBUG_VALUE: main:argv <- %r14
	.loc	1 135 20 is_stmt 1      # catdoc.c:135:20
	callq	_Z24__sanitizer_cov_trace_pcv
	#APP
	#NO_APP
	.loc	1 135 19 is_stmt 0      # catdoc.c:135:19
	movl	$512, %ebx              # imm = 0x200
	subl	longest_sequence(%rip), %ebx
	.loc	1 135 38                # catdoc.c:135:38
	movl	wrap_margin(%rip), %ebp
	.loc	1 135 36                # catdoc.c:135:36
	movl	%ebx, %edi
	movl	%ebp, %esi
	callq	_Z26__sanitizer_cov_trace_cmp4jj
	cmpl	%ebp, %ebx
.Ltmp68:
	.loc	1 135 6                 # catdoc.c:135:6
	jle	.LBB11_41
.Ltmp69:
# %bb.43:                               # %if.end165
	#DEBUG_VALUE: main:argc <- %r13d
	#DEBUG_VALUE: main:argv <- %r14
	.loc	1 139 21 is_stmt 1      # catdoc.c:139:21
	callq	_Z24__sanitizer_cov_trace_pcv
	#APP
	#NO_APP
	movq	stdout(%rip), %rdi
	.loc	1 139 14 is_stmt 0      # catdoc.c:139:14
	callq	fileno
	.loc	1 139 7                 # catdoc.c:139:7
	movl	%eax, %edi
	callq	isatty
	movl	%eax, %ebx
	xorl	%edi, %edi
	movl	%ebx, %esi
	callq	_Z32__sanitizer_cov_trace_const_cmp4jj
	testl	%ebx, %ebx
.Ltmp70:
	.loc	1 139 6                 # catdoc.c:139:6
	jne	.LBB11_48
.Ltmp71:
# %bb.44:                               # %if.then169
	#DEBUG_VALUE: main:argc <- %r13d
	#DEBUG_VALUE: main:argv <- %r14
	.loc	1 140 17 is_stmt 1      # catdoc.c:140:17
	callq	_Z24__sanitizer_cov_trace_pcv
	#APP
	#NO_APP
	movl	$262144, %edi           # imm = 0x40000
	callq	malloc
	movq	%rax, %rbx
	.loc	1 140 16 is_stmt 0      # catdoc.c:140:16
	movq	%rbx, output_buffer(%rip)
.Ltmp72:
	.loc	1 141 7 is_stmt 1       # catdoc.c:141:7
	testq	%rbx, %rbx
.Ltmp73:
	.loc	1 141 7 is_stmt 0       # catdoc.c:141:7
	je	.LBB11_47
.Ltmp74:
# %bb.45:                               # %if.then172
	#DEBUG_VALUE: main:argc <- %r13d
	#DEBUG_VALUE: main:argv <- %r14
	.loc	1 142 17 is_stmt 1      # catdoc.c:142:17
	callq	_Z24__sanitizer_cov_trace_pcv
	#APP
	#NO_APP
	movq	stdout(%rip), %rdi
	.loc	1 142 9 is_stmt 0       # catdoc.c:142:9
	xorl	%edx, %edx
	movl	$262144, %ecx           # imm = 0x40000
	movq	%rbx, %rsi
	callq	setvbuf
	movl	%eax, %ebx
	xorl	%edi, %edi
	movl	%ebx, %esi
	callq	_Z32__sanitizer_cov_trace_const_cmp4jj
	testl	%ebx, %ebx
.Ltmp75:
	.loc	1 142 9                 # catdoc.c:142:9
	jne	.LBB11_46
.Ltmp76:
.LBB11_48:                              # %if.end180
	#DEBUG_VALUE: main:argc <- %r13d
	#DEBUG_VALUE: main:argv <- %r14
	.loc	1 149 2 is_stmt 1       # catdoc.c:149:2
	callq	_Z24__sanitizer_cov_trace_pcv
	#APP
	#NO_APP
	callq	set_std_func
.Ltmp77:
	.loc	1 150 6                 # catdoc.c:150:6
	movl	optind(%rip), %ebx
.Ltmp78:
	#DEBUG_VALUE: main:i <- %ebx
	.loc	1 150 13 is_stmt 0      # catdoc.c:150:13
	movl	%ebx, %edi
	movl	%r13d, %esi
	callq	_Z26__sanitizer_cov_trace_cmp4jj
	cmpl	%r13d, %ebx
.Ltmp79:
	.loc	1 150 6                 # catdoc.c:150:6
	jne	.LBB11_53
.Ltmp80:
# %bb.49:                               # %if.then183
	#DEBUG_VALUE: main:i <- %ebx
	#DEBUG_VALUE: main:argc <- %r13d
	#DEBUG_VALUE: main:argv <- %r14
	.loc	1 151 21 is_stmt 1      # catdoc.c:151:21
	callq	_Z24__sanitizer_cov_trace_pcv
	#APP
	#NO_APP
	movq	stdin(%rip), %rdi
	.loc	1 151 14 is_stmt 0      # catdoc.c:151:14
	callq	fileno
	.loc	1 151 7                 # catdoc.c:151:7
	movl	%eax, %edi
	callq	isatty
	movl	%eax, %ebx
.Ltmp81:
	xorl	%edi, %edi
	movl	%ebx, %esi
	callq	_Z32__sanitizer_cov_trace_const_cmp4jj
	testl	%ebx, %ebx
.Ltmp82:
	.loc	1 151 7                 # catdoc.c:151:7
	jne	.LBB11_73
.Ltmp83:
# %bb.50:                               # %if.end188
	#DEBUG_VALUE: main:argc <- %r13d
	#DEBUG_VALUE: main:argv <- %r14
	.loc	1 155 7 is_stmt 1       # catdoc.c:155:7
	callq	_Z24__sanitizer_cov_trace_pcv
	#APP
	#NO_APP
	movq	input_buffer(%rip), %rbx
	testq	%rbx, %rbx
.Ltmp84:
	.loc	1 155 7 is_stmt 0       # catdoc.c:155:7
	je	.LBB11_52
.Ltmp85:
# %bb.51:                               # %if.then190
	#DEBUG_VALUE: main:argc <- %r13d
	#DEBUG_VALUE: main:argv <- %r14
	.loc	1 155 29                # catdoc.c:155:29
	callq	_Z24__sanitizer_cov_trace_pcv
	#APP
	#NO_APP
	movq	stdin(%rip), %rdi
	.loc	1 155 21                # catdoc.c:155:21
	xorl	%edx, %edx
	movl	$262144, %ecx           # imm = 0x40000
	movq	%rbx, %rsi
	callq	setvbuf
.Ltmp86:
.LBB11_52:                              # %if.end192
	#DEBUG_VALUE: main:argc <- %r13d
	#DEBUG_VALUE: main:argv <- %r14
	.loc	1 156 25 is_stmt 1      # catdoc.c:156:25
	callq	_Z24__sanitizer_cov_trace_pcv
	#APP
	#NO_APP
	movq	stdin(%rip), %rdi
	.loc	1 156 10 is_stmt 0      # catdoc.c:156:10
	callq	analyze_format
	movl	%eax, %r12d
	jmp	.LBB11_69
.Ltmp87:
.LBB11_53:                              # %if.end194
	#DEBUG_VALUE: main:i <- %ebx
	#DEBUG_VALUE: main:argc <- %r13d
	#DEBUG_VALUE: main:argv <- %r14
	.loc	1 40 6 is_stmt 1        # catdoc.c:40:6
	callq	_Z24__sanitizer_cov_trace_pcv
	#APP
	#NO_APP
.Ltmp88:
	#DEBUG_VALUE: main:c <- 0
	#DEBUG_VALUE: main:stdin_processed <- 0
	.loc	1 159 17                # catdoc.c:159:17
	movl	%ebx, %edi
	movl	%r13d, %esi
	callq	_Z26__sanitizer_cov_trace_cmp4jj
	xorl	%r12d, %r12d
	cmpl	%r13d, %ebx
.Ltmp89:
	.loc	1 159 2 is_stmt 0       # catdoc.c:159:2
	jge	.LBB11_69
.Ltmp90:
# %bb.54:                               # %cond.true203.lr.ph
	#DEBUG_VALUE: main:i <- %ebx
	#DEBUG_VALUE: main:argc <- %r13d
	#DEBUG_VALUE: main:argv <- %r14
	.loc	1 0 2                   # catdoc.c:0:2
	movslq	%ebx, %r15
	.loc	1 159 2                 # catdoc.c:159:2
	callq	_Z24__sanitizer_cov_trace_pcv
	#APP
	#NO_APP
	movslq	%r13d, %r13
.Ltmp91:
	.loc	1 0 2                   # catdoc.c:0:2
	xorl	%r12d, %r12d
	movl	$0, 12(%rsp)            # 4-byte Folded Spill
	jmp	.LBB11_55
.Ltmp92:
.LBB11_57:                              # %if.then253
                                        #   in Loop: Header=BB11_55 Depth=1
	#DEBUG_VALUE: main:i <- %r15
	#DEBUG_VALUE: main:argv <- %r14
	.loc	1 161 8 is_stmt 1       # catdoc.c:161:8
	callq	_Z24__sanitizer_cov_trace_pcv
	#APP
	#NO_APP
.Ltmp93:
	#DEBUG_VALUE: main:stdin_processed <- [DW_OP_plus_uconst 12] [%rsp+0]
	xorl	%edi, %edi
	movl	12(%rsp), %ebx          # 4-byte Reload
.Ltmp94:
	#DEBUG_VALUE: main:stdin_processed <- %ebx
	movl	%ebx, %esi
	callq	_Z32__sanitizer_cov_trace_const_cmp4jj
	testl	%ebx, %ebx
.Ltmp95:
	.loc	1 161 8 is_stmt 0       # catdoc.c:161:8
	jne	.LBB11_58
.Ltmp96:
# %bb.59:                               # %if.end257
                                        #   in Loop: Header=BB11_55 Depth=1
	#DEBUG_VALUE: main:i <- %r15
	#DEBUG_VALUE: main:stdin_processed <- %ebx
	#DEBUG_VALUE: main:argv <- %r14
	.loc	1 165 8 is_stmt 1       # catdoc.c:165:8
	callq	_Z24__sanitizer_cov_trace_pcv
	#APP
	#NO_APP
	movq	input_buffer(%rip), %rbp
	testq	%rbp, %rbp
.Ltmp97:
	.loc	1 165 8 is_stmt 0       # catdoc.c:165:8
	je	.LBB11_61
.Ltmp98:
# %bb.60:                               # %if.then259
                                        #   in Loop: Header=BB11_55 Depth=1
	#DEBUG_VALUE: main:i <- %r15
	#DEBUG_VALUE: main:stdin_processed <- %ebx
	#DEBUG_VALUE: main:argv <- %r14
	.loc	1 165 30                # catdoc.c:165:30
	callq	_Z24__sanitizer_cov_trace_pcv
	#APP
	#NO_APP
	movq	stdin(%rip), %rdi
	.loc	1 165 22                # catdoc.c:165:22
	xorl	%edx, %edx
	movl	$262144, %ecx           # imm = 0x40000
	movq	%rbp, %rsi
	callq	setvbuf
.Ltmp99:
.LBB11_61:                              # %if.end261
                                        #   in Loop: Header=BB11_55 Depth=1
	#DEBUG_VALUE: main:i <- %r15
	#DEBUG_VALUE: main:stdin_processed <- %ebx
	#DEBUG_VALUE: main:argv <- %r14
	.loc	1 166 19 is_stmt 1      # catdoc.c:166:19
	callq	_Z24__sanitizer_cov_trace_pcv
	#APP
	#NO_APP
	movq	stdin(%rip), %rdi
	.loc	1 166 4 is_stmt 0       # catdoc.c:166:4
	callq	analyze_format
.Ltmp100:
	#DEBUG_VALUE: main:stdin_processed <- 1
	.loc	1 0 4                   # catdoc.c:0:4
	movl	$1, 12(%rsp)            # 4-byte Folded Spill
	jmp	.LBB11_68
.Ltmp101:
.LBB11_63:                              # %if.then268
                                        #   in Loop: Header=BB11_55 Depth=1
	#DEBUG_VALUE: main:f <- %rbp
	#DEBUG_VALUE: main:i <- %r15
	#DEBUG_VALUE: main:argv <- %r14
	.loc	1 40 6 is_stmt 1        # catdoc.c:40:6
	callq	_Z24__sanitizer_cov_trace_pcv
	#APP
	#NO_APP
.Ltmp102:
	#DEBUG_VALUE: main:c <- 1
	.loc	1 172 5                 # catdoc.c:172:5
	movl	$.L.str.21, %edi
	callq	perror
	movl	$1, %r12d
	jmp	.LBB11_68
.Ltmp103:
.LBB11_66:                              # %if.then274
                                        #   in Loop: Header=BB11_55 Depth=1
	#DEBUG_VALUE: main:f <- %rbp
	#DEBUG_VALUE: main:i <- %r15
	#DEBUG_VALUE: main:argv <- %r14
	.loc	1 177 13                # catdoc.c:177:13
	callq	_Z24__sanitizer_cov_trace_pcv
	#APP
	#NO_APP
	movq	(%r14,%r15,8), %rdi
	.loc	1 177 6 is_stmt 0       # catdoc.c:177:6
	callq	perror
	jmp	.LBB11_67
.Ltmp104:
	.p2align	4, 0x90
.LBB11_55:                              # %cond.true203
                                        # =>This Inner Loop Header: Depth=1
	#DEBUG_VALUE: main:i <- %ebx
	#DEBUG_VALUE: main:argv <- %r14
	#DEBUG_VALUE: main:i <- %r15
	.loc	1 160 8 is_stmt 1       # catdoc.c:160:8
	callq	_Z24__sanitizer_cov_trace_pcv
.Ltmp105:
	#DEBUG_VALUE: __s2_len <- 1
	#APP
	#NO_APP
.Ltmp106:
	.loc	1 160 8 is_stmt 0       # catdoc.c:160:8
	movq	(%r14,%r15,8), %rbp
.Ltmp107:
	#DEBUG_VALUE: __s2 <- %rbp
	.loc	1 160 8                 # catdoc.c:160:8
	movzbl	(%rbp), %ebx
	movl	$45, %edi
	movl	%ebx, %esi
	callq	_Z32__sanitizer_cov_trace_const_cmp1hh
	cmpl	$45, %ebx
	jne	.LBB11_62
.Ltmp108:
# %bb.56:                               # %if.end243
                                        #   in Loop: Header=BB11_55 Depth=1
	#DEBUG_VALUE: __s2 <- %rbp
	#DEBUG_VALUE: main:i <- %r15
	#DEBUG_VALUE: main:argv <- %r14
	.loc	1 160 8                 # catdoc.c:160:8
	callq	_Z24__sanitizer_cov_trace_pcv
	#APP
	#NO_APP
.Ltmp109:
	.loc	1 160 8                 # catdoc.c:160:8
	movzbl	1(%rbp), %ebx
	xorl	%edi, %edi
	movl	%ebx, %esi
	callq	_Z32__sanitizer_cov_trace_const_cmp1hh
	testl	%ebx, %ebx
.Ltmp110:
	.loc	1 160 7                 # catdoc.c:160:7
	je	.LBB11_57
.Ltmp111:
.LBB11_62:                              # %if.else263
                                        #   in Loop: Header=BB11_55 Depth=1
	#DEBUG_VALUE: main:i <- %r15
	#DEBUG_VALUE: main:argv <- %r14
	.loc	1 169 6 is_stmt 1       # catdoc.c:169:6
	callq	_Z24__sanitizer_cov_trace_pcv
	#APP
	#NO_APP
	movl	$.L.str.20, %esi
	movq	%rbp, %rdi
	callq	fopen
	movq	%rax, %rbp
.Ltmp112:
	#DEBUG_VALUE: main:f <- %rbp
	.loc	1 170 9                 # catdoc.c:170:9
	testq	%rbp, %rbp
.Ltmp113:
	.loc	1 170 8 is_stmt 0       # catdoc.c:170:8
	je	.LBB11_63
.Ltmp114:
# %bb.64:                               # %if.end269
                                        #   in Loop: Header=BB11_55 Depth=1
	#DEBUG_VALUE: main:f <- %rbp
	#DEBUG_VALUE: main:i <- %r15
	#DEBUG_VALUE: main:argv <- %r14
	.loc	1 175 8 is_stmt 1       # catdoc.c:175:8
	callq	_Z24__sanitizer_cov_trace_pcv
	#APP
	#NO_APP
	movq	input_buffer(%rip), %rbx
	testq	%rbx, %rbx
.Ltmp115:
	.loc	1 175 8 is_stmt 0       # catdoc.c:175:8
	je	.LBB11_67
.Ltmp116:
# %bb.65:                               # %if.then271
                                        #   in Loop: Header=BB11_55 Depth=1
	#DEBUG_VALUE: main:f <- %rbp
	#DEBUG_VALUE: main:i <- %r15
	#DEBUG_VALUE: main:argv <- %r14
	.loc	1 176 9 is_stmt 1       # catdoc.c:176:9
	callq	_Z24__sanitizer_cov_trace_pcv
	#APP
	#NO_APP
	xorl	%edx, %edx
	movl	$262144, %ecx           # imm = 0x40000
	movq	%rbp, %rdi
	movq	%rbx, %rsi
	callq	setvbuf
	movl	%eax, %ebx
	xorl	%edi, %edi
	movl	%ebx, %esi
	callq	_Z32__sanitizer_cov_trace_const_cmp4jj
	testl	%ebx, %ebx
.Ltmp117:
	.loc	1 176 9 is_stmt 0       # catdoc.c:176:9
	jne	.LBB11_66
.Ltmp118:
.LBB11_67:                              # %if.end278
                                        #   in Loop: Header=BB11_55 Depth=1
	#DEBUG_VALUE: main:f <- %rbp
	#DEBUG_VALUE: main:i <- %r15
	#DEBUG_VALUE: main:argv <- %r14
	.loc	1 180 6 is_stmt 1       # catdoc.c:180:6
	callq	_Z24__sanitizer_cov_trace_pcv
	#APP
	#NO_APP
	movq	%rbp, %rdi
	callq	analyze_format
	movl	%eax, %r12d
.Ltmp119:
	#DEBUG_VALUE: main:c <- %r12d
	.loc	1 181 4                 # catdoc.c:181:4
	movq	%rbp, %rdi
	callq	fclose
.Ltmp120:
.LBB11_68:                              # %for.inc
                                        #   in Loop: Header=BB11_55 Depth=1
	#DEBUG_VALUE: main:i <- %r15
	#DEBUG_VALUE: main:argv <- %r14
	.loc	1 159 24                # catdoc.c:159:24
	callq	_Z24__sanitizer_cov_trace_pcv
	#APP
	#NO_APP
	addq	$1, %r15
.Ltmp121:
	.loc	1 159 17 is_stmt 0      # catdoc.c:159:17
	movq	%r15, %rdi
	movq	%r13, %rsi
	callq	_Z26__sanitizer_cov_trace_cmp8mm
	cmpq	%r13, %r15
.Ltmp122:
	.loc	1 159 2                 # catdoc.c:159:2
	jl	.LBB11_55
.Ltmp123:
.LBB11_69:                              # %cleanup
	#DEBUG_VALUE: main:argv <- %r14
	.loc	1 185 1 is_stmt 1       # catdoc.c:185:1
	callq	_Z24__sanitizer_cov_trace_pcv
	#APP
	#NO_APP
	movl	%r12d, %eax
	addq	$24, %rsp
	popq	%rbx
	popq	%r12
	popq	%r13
	popq	%r14
.Ltmp124:
	popq	%r15
	popq	%rbp
	retq
.LBB11_29:                              # %if.then84
.Ltmp125:
	#DEBUG_VALUE: main:argc <- %r13d
	#DEBUG_VALUE: main:argv <- %r14
	.loc	1 110 11                # catdoc.c:110:11
	callq	_Z24__sanitizer_cov_trace_pcv
	#APP
	#NO_APP
	movq	stderr(%rip), %rcx
	.loc	1 110 3 is_stmt 0       # catdoc.c:110:3
	movl	$.L.str.9, %edi
	movl	$27, %esi
	movl	$1, %edx
	callq	fwrite
	jmp	.LBB11_30
.Ltmp126:
.LBB11_47:                              # %if.else177
	#DEBUG_VALUE: main:argc <- %r13d
	#DEBUG_VALUE: main:argv <- %r14
	.loc	1 146 12 is_stmt 1      # catdoc.c:146:12
	callq	_Z24__sanitizer_cov_trace_pcv
	#APP
	#NO_APP
	movq	stderr(%rip), %rcx
	.loc	1 146 4 is_stmt 0       # catdoc.c:146:4
	movl	$.L.str.17, %edi
	movl	$28, %esi
	movl	$1, %edx
	callq	fwrite
	jmp	.LBB11_48
.Ltmp127:
.LBB11_46:                              # %if.then175
	#DEBUG_VALUE: main:argc <- %r13d
	#DEBUG_VALUE: main:argv <- %r14
	.loc	1 143 5 is_stmt 1       # catdoc.c:143:5
	callq	_Z24__sanitizer_cov_trace_pcv
	#APP
	#NO_APP
	movl	$.L.str.16, %edi
	callq	perror
	jmp	.LBB11_48
.Ltmp128:
.LBB11_27:                              # %sw.default
	#DEBUG_VALUE: main:argc <- %r13d
	#DEBUG_VALUE: main:argv <- %r14
	.loc	1 104 8                 # catdoc.c:104:8
	callq	_Z24__sanitizer_cov_trace_pcv
	#APP
	#NO_APP
	callq	help
	.loc	1 105 8                 # catdoc.c:105:8
	movl	$1, %edi
	callq	exit
.Ltmp129:
.LBB11_26:                              # %sw.bb80
	#DEBUG_VALUE: main:argc <- %r13d
	#DEBUG_VALUE: main:argv <- %r14
	.loc	1 101 14                # catdoc.c:101:14
	callq	_Z24__sanitizer_cov_trace_pcv
	#APP
	#NO_APP
	movl	$.L.str.7.13, %edi
	movl	$.L.str.8, %esi
	xorl	%eax, %eax
	callq	printf
	.loc	1 102 8                 # catdoc.c:102:8
	xorl	%edi, %edi
	callq	exit
.Ltmp130:
.LBB11_22:                              # %sw.bb77
	#DEBUG_VALUE: main:argc <- %r13d
	#DEBUG_VALUE: main:argv <- %r14
	.loc	1 98 14                 # catdoc.c:98:14
	callq	_Z24__sanitizer_cov_trace_pcv
	#APP
	#NO_APP
	callq	list_charsets
	.loc	1 98 31 is_stmt 0       # catdoc.c:98:31
	xorl	%edi, %edi
	callq	exit
.Ltmp131:
.LBB11_70:                              # %if.then74
	#DEBUG_VALUE: main:argc <- %r13d
	#DEBUG_VALUE: main:argv <- %r14
	.loc	1 93 18 is_stmt 1       # catdoc.c:93:18
	callq	_Z24__sanitizer_cov_trace_pcv
	#APP
	#NO_APP
	movq	stderr(%rip), %rdi
	.loc	1 93 60 is_stmt 0       # catdoc.c:93:60
	movq	optarg(%rip), %rdx
	.loc	1 93 10                 # catdoc.c:93:10
	movl	$.L.str.6.12, %esi
	xorl	%eax, %eax
	callq	fprintf
	.loc	1 94 10 is_stmt 1       # catdoc.c:94:10
	movl	$1, %edi
	callq	exit
.Ltmp132:
.LBB11_58:                              # %if.then255
	#DEBUG_VALUE: main:i <- %r15
	#DEBUG_VALUE: main:stdin_processed <- %ebx
	#DEBUG_VALUE: main:argv <- %r14
	.loc	1 162 13                # catdoc.c:162:13
	callq	_Z24__sanitizer_cov_trace_pcv
	#APP
	#NO_APP
	movq	stderr(%rip), %rcx
	.loc	1 162 5 is_stmt 0       # catdoc.c:162:5
	movl	$.L.str.19, %edi
	movl	$27, %esi
	jmp	.LBB11_42
.Ltmp133:
.LBB11_71:                              # %if.then89
	#DEBUG_VALUE: main:argc <- %r13d
	#DEBUG_VALUE: main:argv <- %r14
	.loc	1 113 23 is_stmt 1      # catdoc.c:113:23
	callq	_Z24__sanitizer_cov_trace_pcv
	#APP
	#NO_APP
	movl	$1, %edi
	callq	exit
.Ltmp134:
.LBB11_36:                              # %if.then151
	#DEBUG_VALUE: main:argc <- %r13d
	#DEBUG_VALUE: main:argv <- %r14
	.loc	1 124 11                # catdoc.c:124:11
	callq	_Z24__sanitizer_cov_trace_pcv
	#APP
	#NO_APP
	movq	stderr(%rip), %rdi
	.loc	1 124 56 is_stmt 0      # catdoc.c:124:56
	movq	format_name(%rip), %rdx
	.loc	1 124 3                 # catdoc.c:124:3
	movl	$.L.str.12, %esi
	movl	$.L.str.11, %ecx
	jmp	.LBB11_37
.Ltmp135:
.LBB11_39:                              # %if.then157
	#DEBUG_VALUE: main:argc <- %r13d
	#DEBUG_VALUE: main:argv <- %r14
	.loc	1 130 11 is_stmt 1      # catdoc.c:130:11
	callq	_Z24__sanitizer_cov_trace_pcv
	#APP
	#NO_APP
	movq	stderr(%rip), %rdi
	.loc	1 130 55 is_stmt 0      # catdoc.c:130:55
	movq	format_name(%rip), %rdx
	.loc	1 130 3                 # catdoc.c:130:3
	movl	$.L.str.14, %esi
	movl	$.L.str.13, %ecx
.Ltmp136:
.LBB11_37:                              # %if.then151
	#DEBUG_VALUE: main:argc <- %r13d
	#DEBUG_VALUE: main:argv <- %r14
	.loc	1 0 3                   # catdoc.c:0:3
	xorl	%eax, %eax
	callq	fprintf
	movl	$1, %edi
	callq	exit
.Ltmp137:
.LBB11_41:                              # %if.then163
	#DEBUG_VALUE: main:argc <- %r13d
	#DEBUG_VALUE: main:argv <- %r14
	.loc	1 136 11 is_stmt 1      # catdoc.c:136:11
	callq	_Z24__sanitizer_cov_trace_pcv
	#APP
	#NO_APP
	movq	stderr(%rip), %rcx
	.loc	1 136 3 is_stmt 0       # catdoc.c:136:3
	movl	$.L.str.15, %edi
	movl	$41, %esi
.Ltmp138:
.LBB11_42:                              # %if.then163
	#DEBUG_VALUE: main:argv <- %r14
	.loc	1 0 3                   # catdoc.c:0:3
	movl	$1, %edx
	callq	fwrite
	movl	$1, %edi
	callq	exit
.Ltmp139:
.LBB11_72:                              # %if.then144
	#DEBUG_VALUE: main:tmp_charset <- %rbx
	#DEBUG_VALUE: main:argc <- %r13d
	#DEBUG_VALUE: main:argv <- %r14
	.loc	1 116 21 is_stmt 1      # catdoc.c:116:21
	callq	_Z24__sanitizer_cov_trace_pcv
	#APP
	#NO_APP
	movl	$1, %edi
	callq	exit
.Ltmp140:
.LBB11_73:                              # %if.then187
	#DEBUG_VALUE: main:argc <- %r13d
	#DEBUG_VALUE: main:argv <- %r14
	.loc	1 152 4                 # catdoc.c:152:4
	callq	_Z24__sanitizer_cov_trace_pcv
	#APP
	#NO_APP
	callq	help
	.loc	1 153 4                 # catdoc.c:153:4
	xorl	%edi, %edi
	callq	exit
.Ltmp141:
.Lfunc_end11:
	.size	main, .Lfunc_end11-main
	.cfi_endproc
	.section	.rodata,"a",@progbits
	.p2align	3
.LJTI11_0:
	.quad	.LBB11_28
	.quad	.LBB11_27
	.quad	.LBB11_27
	.quad	.LBB11_27
	.quad	.LBB11_27
	.quad	.LBB11_27
	.quad	.LBB11_27
	.quad	.LBB11_27
	.quad	.LBB11_27
	.quad	.LBB11_27
	.quad	.LBB11_27
	.quad	.LBB11_27
	.quad	.LBB11_27
	.quad	.LBB11_27
	.quad	.LBB11_27
	.quad	.LBB11_27
	.quad	.LBB11_27
	.quad	.LBB11_27
	.quad	.LBB11_27
	.quad	.LBB11_27
	.quad	.LBB11_27
	.quad	.LBB11_27
	.quad	.LBB11_27
	.quad	.LBB11_27
	.quad	.LBB11_27
	.quad	.LBB11_27
	.quad	.LBB11_27
	.quad	.LBB11_27
	.quad	.LBB11_27
	.quad	.LBB11_27
	.quad	.LBB11_27
	.quad	.LBB11_27
	.quad	.LBB11_27
	.quad	.LBB11_27
	.quad	.LBB11_27
	.quad	.LBB11_27
	.quad	.LBB11_27
	.quad	.LBB11_27
	.quad	.LBB11_27
	.quad	.LBB11_27
	.quad	.LBB11_27
	.quad	.LBB11_27
	.quad	.LBB11_27
	.quad	.LBB11_27
	.quad	.LBB11_27
	.quad	.LBB11_27
	.quad	.LBB11_27
	.quad	.LBB11_27
	.quad	.LBB11_27
	.quad	.LBB11_27
	.quad	.LBB11_27
	.quad	.LBB11_27
	.quad	.LBB11_27
	.quad	.LBB11_27
	.quad	.LBB11_27
	.quad	.LBB11_27
	.quad	.LBB11_27
	.quad	.LBB11_17
	.quad	.LBB11_27
	.quad	.LBB11_27
	.quad	.LBB11_27
	.quad	.LBB11_27
	.quad	.LBB11_27
	.quad	.LBB11_27
	.quad	.LBB11_27
	.quad	.LBB11_27
	.quad	.LBB11_27
	.quad	.LBB11_27
	.quad	.LBB11_27
	.quad	.LBB11_27
	.quad	.LBB11_27
	.quad	.LBB11_27
	.quad	.LBB11_27
	.quad	.LBB11_27
	.quad	.LBB11_27
	.quad	.LBB11_27
	.quad	.LBB11_27
	.quad	.LBB11_27
	.quad	.LBB11_27
	.quad	.LBB11_27
	.quad	.LBB11_27
	.quad	.LBB11_27
	.quad	.LBB11_27
	.quad	.LBB11_27
	.quad	.LBB11_27
	.quad	.LBB11_27
	.quad	.LBB11_27
	.quad	.LBB11_26
	.quad	.LBB11_27
	.quad	.LBB11_27
	.quad	.LBB11_27
	.quad	.LBB11_27
	.quad	.LBB11_27
	.quad	.LBB11_27
	.quad	.LBB11_27
	.quad	.LBB11_27
	.quad	.LBB11_27
	.quad	.LBB11_27
	.quad	.LBB11_13
	.quad	.LBB11_23
	.quad	.LBB11_27
	.quad	.LBB11_8
	.quad	.LBB11_27
	.quad	.LBB11_9
	.quad	.LBB11_27
	.quad	.LBB11_27
	.quad	.LBB11_27
	.quad	.LBB11_27
	.quad	.LBB11_27
	.quad	.LBB11_22
	.quad	.LBB11_20
	.quad	.LBB11_27
	.quad	.LBB11_27
	.quad	.LBB11_27
	.quad	.LBB11_27
	.quad	.LBB11_27
	.quad	.LBB11_7
	.quad	.LBB11_10
	.quad	.LBB11_16
	.quad	.LBB11_18
	.quad	.LBB11_19
	.quad	.LBB11_24
                                        # -- End function
	.text
	.globl	read_config_file        # -- Begin function read_config_file
	.p2align	4, 0x90
	.type	read_config_file,@function
read_config_file:                       # @read_config_file
.Lfunc_begin12:
	.loc	18 28 0                 # confutil.c:28:0
	.cfi_startproc
# %bb.0:                                # %entry
	pushq	%rbp
	.cfi_def_cfa_offset 16
	pushq	%r15
	.cfi_def_cfa_offset 24
	pushq	%r14
	.cfi_def_cfa_offset 32
	pushq	%r13
	.cfi_def_cfa_offset 40
	pushq	%r12
	.cfi_def_cfa_offset 48
	pushq	%rbx
	.cfi_def_cfa_offset 56
	subq	$1064, %rsp             # imm = 0x428
	.cfi_def_cfa_offset 1120
	.cfi_offset %rbx, -56
	.cfi_offset %r12, -48
	.cfi_offset %r13, -40
	.cfi_offset %r14, -32
	.cfi_offset %r15, -24
	.cfi_offset %rbp, -16
	#DEBUG_VALUE: read_config_file:filename <- %rdi
	movq	%rdi, %rbx
	callq	_Z24__sanitizer_cov_trace_pcv
.Ltmp142:
	#APP
	#NO_APP
.Ltmp143:
	#DEBUG_VALUE: read_config_file:filename <- %rbx
	.loc	18 29 10 prologue_end   # confutil.c:29:10
	movl	$.L.str.1.145, %esi
	movq	%rbx, %rdi
	callq	fopen
	movq	%rax, %r14
.Ltmp144:
	#DEBUG_VALUE: read_config_file:lineno <- 0
	#DEBUG_VALUE: read_config_file:f <- %r14
	.loc	18 32 7                 # confutil.c:32:7
	testq	%r14, %r14
.Ltmp145:
	.loc	18 32 6 is_stmt 0       # confutil.c:32:6
	je	.LBB12_12
.Ltmp146:
# %bb.1:                                # %if.end
	#DEBUG_VALUE: read_config_file:f <- %r14
	#DEBUG_VALUE: read_config_file:filename <- %rbx
	.loc	18 0 6                  # confutil.c:0:6
	movq	%rbx, (%rsp)            # 8-byte Spill
.Ltmp147:
	#DEBUG_VALUE: read_config_file:filename <- [%rsp+0]
	.loc	18 31 6 is_stmt 1       # confutil.c:31:6
	callq	_Z24__sanitizer_cov_trace_pcv
	#APP
	#NO_APP
	#DEBUG_VALUE: read_config_file:lineno <- 0
	.loc	18 33 10                # confutil.c:33:10
	movq	%r14, %rdi
	callq	feof
	movl	%eax, %ebx
	.loc	18 33 9 is_stmt 0       # confutil.c:33:9
	xorl	%r15d, %r15d
	xorl	%edi, %edi
	movl	%ebx, %esi
	callq	_Z32__sanitizer_cov_trace_const_cmp4jj
	testl	%ebx, %ebx
	.loc	18 33 2                 # confutil.c:33:2
	jne	.LBB12_11
.Ltmp148:
# %bb.2:                                # %while.body.preheader
	#DEBUG_VALUE: read_config_file:filename <- [%rsp+0]
	#DEBUG_VALUE: read_config_file:f <- %r14
	.loc	18 34 3 is_stmt 1       # confutil.c:34:3
	callq	_Z24__sanitizer_cov_trace_pcv
	#APP
	#NO_APP
	leaq	32(%rsp), %rbp
	movq	%r14, 24(%rsp)          # 8-byte Spill
.Ltmp149:
	.p2align	4, 0x90
.LBB12_3:                               # %while.body
                                        # =>This Loop Header: Depth=1
                                        #     Child Loop BB12_8 Depth 2
                                        #     Child Loop BB12_16 Depth 2
                                        #     Child Loop BB12_24 Depth 2
                                        #     Child Loop BB12_31 Depth 2
                                        #     Child Loop BB12_35 Depth 2
	#DEBUG_VALUE: read_config_file:filename <- [%rsp+0]
	#DEBUG_VALUE: read_config_file:f <- %r14
	.loc	18 31 6                 # confutil.c:31:6
	callq	_Z24__sanitizer_cov_trace_pcv
	#APP
	#NO_APP
.Ltmp150:
	.loc	18 34 3                 # confutil.c:34:3
	movl	$1024, %esi             # imm = 0x400
	movq	%rbp, %rdi
	movq	%r14, %rdx
	callq	fgets
.Ltmp151:
	.loc	18 35 7                 # confutil.c:35:7
	movq	%r14, %rdi
	callq	feof
	movl	%eax, %ebx
	xorl	%edi, %edi
	movl	%ebx, %esi
	callq	_Z32__sanitizer_cov_trace_const_cmp4jj
	testl	%ebx, %ebx
.Ltmp152:
	.loc	18 35 7 is_stmt 0       # confutil.c:35:7
	jne	.LBB12_11
.Ltmp153:
# %bb.4:                                # %if.end7
                                        #   in Loop: Header=BB12_3 Depth=1
	#DEBUG_VALUE: read_config_file:filename <- [%rsp+0]
	#DEBUG_VALUE: read_config_file:f <- %r14
	#DEBUG_VALUE: read_config_file:lineno <- %r15d
	.loc	18 36 9 is_stmt 1       # confutil.c:36:9
	callq	_Z24__sanitizer_cov_trace_pcv
	#APP
	#NO_APP
.Ltmp154:
	.loc	18 37 10                # confutil.c:37:10
	movl	$35, %esi
	movq	%rbp, %rdi
	callq	strchr
	movq	%rax, %rbx
.Ltmp155:
	#DEBUG_VALUE: read_config_file:c <- %rbx
	.loc	18 37 9 is_stmt 0       # confutil.c:37:9
	testq	%rbx, %rbx
.Ltmp156:
	.loc	18 37 7                 # confutil.c:37:7
	je	.LBB12_6
.Ltmp157:
# %bb.5:                                # %if.then11
                                        #   in Loop: Header=BB12_3 Depth=1
	#DEBUG_VALUE: read_config_file:filename <- [%rsp+0]
	#DEBUG_VALUE: read_config_file:c <- %rbx
	#DEBUG_VALUE: read_config_file:lineno <- %r15d
	#DEBUG_VALUE: read_config_file:f <- %r14
	.loc	18 37 31                # confutil.c:37:31
	callq	_Z24__sanitizer_cov_trace_pcv
	#APP
	#NO_APP
	movb	$0, (%rbx)
.Ltmp158:
.LBB12_6:                               # %if.end12
                                        #   in Loop: Header=BB12_3 Depth=1
	#DEBUG_VALUE: read_config_file:filename <- [%rsp+0]
	#DEBUG_VALUE: read_config_file:c <- %rbx
	#DEBUG_VALUE: read_config_file:lineno <- %r15d
	#DEBUG_VALUE: read_config_file:f <- %r14
	.loc	18 0 31                 # confutil.c:0:31
	movl	%r15d, %ebp
	addl	$1, %ebp
.Ltmp159:
	#DEBUG_VALUE: read_config_file:lineno <- %ebp
	.loc	18 30 8 is_stmt 1       # confutil.c:30:8
	callq	_Z24__sanitizer_cov_trace_pcv
	#APP
	#NO_APP
.Ltmp160:
	.loc	18 39 10                # confutil.c:39:10
	movzbl	32(%rsp), %r15d
	xorl	%edi, %edi
	movl	%r15d, %esi
	callq	_Z32__sanitizer_cov_trace_const_cmp1hh
	testl	%r15d, %r15d
	.loc	18 39 15 is_stmt 0      # confutil.c:39:15
	je	.LBB12_10
.Ltmp161:
# %bb.7:                                # %land.rhs.lr.ph
                                        #   in Loop: Header=BB12_3 Depth=1
	#DEBUG_VALUE: read_config_file:filename <- [%rsp+0]
	#DEBUG_VALUE: read_config_file:lineno <- %ebp
	#DEBUG_VALUE: read_config_file:c <- %rbx
	#DEBUG_VALUE: read_config_file:f <- %r14
	.loc	18 39 17                # confutil.c:39:17
	callq	_Z24__sanitizer_cov_trace_pcv
	#APP
	#NO_APP
	callq	__ctype_b_loc
	movq	%rax, 8(%rsp)           # 8-byte Spill
	movq	(%rax), %rax
	movq	%rax, 16(%rsp)          # 8-byte Spill
	leaq	34(%rsp), %r14
.Ltmp162:
	.loc	18 0 17                 # confutil.c:0:17
	leaq	32(%rsp), %r12
.Ltmp163:
	.p2align	4, 0x90
.LBB12_8:                               # %land.rhs
                                        #   Parent Loop BB12_3 Depth=1
                                        # =>  This Inner Loop Header: Depth=2
	#DEBUG_VALUE: read_config_file:filename <- [%rsp+0]
	#DEBUG_VALUE: read_config_file:lineno <- %ebp
	#DEBUG_VALUE: read_config_file:c <- %rbx
	.loc	18 30 8 is_stmt 1       # confutil.c:30:8
	callq	_Z24__sanitizer_cov_trace_pcv
	#APP
	#NO_APP
.Ltmp164:
	.loc	18 39 17                # confutil.c:39:17
	movsbq	%r15b, %rax
	movq	16(%rsp), %rcx          # 8-byte Reload
	movzwl	(%rcx,%rax,2), %ebx
.Ltmp165:
	movl	%ebx, %r13d
	andl	$8192, %r13d            # imm = 0x2000
	.loc	18 39 15 is_stmt 0      # confutil.c:39:15
	xorl	%edi, %edi
	movl	%r13d, %esi
	callq	_Z32__sanitizer_cov_trace_const_cmp2tt
	testw	%r13w, %r13w
	.loc	18 39 3                 # confutil.c:39:3
	je	.LBB12_13
.Ltmp166:
# %bb.9:                                # %while.body20
                                        #   in Loop: Header=BB12_8 Depth=2
	#DEBUG_VALUE: read_config_file:filename <- [%rsp+0]
	#DEBUG_VALUE: read_config_file:lineno <- %ebp
	#DEBUG_VALUE: read_config_file:name <- %r12
	.loc	18 39 37                # confutil.c:39:37
	callq	_Z24__sanitizer_cov_trace_pcv
	#APP
	#NO_APP
	.loc	18 39 10                # confutil.c:39:10
	movzbl	1(%r12), %r15d
	.loc	18 39 37                # confutil.c:39:37
	addq	$1, %r12
.Ltmp167:
	.loc	18 39 10                # confutil.c:39:10
	xorl	%edi, %edi
	movl	%r15d, %esi
	callq	_Z32__sanitizer_cov_trace_const_cmp1hh
	.loc	18 39 15                # confutil.c:39:15
	addq	$1, %r14
	.loc	18 39 10                # confutil.c:39:10
	testl	%r15d, %r15d
	.loc	18 39 15                # confutil.c:39:15
	jne	.LBB12_8
	jmp	.LBB12_10
.Ltmp168:
	.p2align	4, 0x90
.LBB12_13:                              # %land.rhs26.lr.ph
                                        #   in Loop: Header=BB12_3 Depth=1
	#DEBUG_VALUE: read_config_file:filename <- [%rsp+0]
	#DEBUG_VALUE: read_config_file:lineno <- %ebp
	.loc	18 0 15                 # confutil.c:0:15
	movl	%ebp, %r13d
	.loc	18 30 14 is_stmt 1      # confutil.c:30:14
	callq	_Z24__sanitizer_cov_trace_pcv
	#APP
	#NO_APP
.Ltmp169:
	.loc	18 41 28                # confutil.c:41:28
	andl	$8, %ebx
	xorl	%edi, %edi
	movl	%ebx, %esi
	callq	_Z32__sanitizer_cov_trace_const_cmp2tt
	.loc	18 41 51 is_stmt 0      # confutil.c:41:51
	movzbl	%r15b, %esi
	movl	$95, %edi
	callq	_Z32__sanitizer_cov_trace_const_cmp1hh
	cmpb	$95, %r15b
	.loc	18 41 43                # confutil.c:41:43
	je	.LBB12_15
.Ltmp170:
# %bb.14:                               # %land.rhs26.lr.ph
                                        #   in Loop: Header=BB12_3 Depth=1
	#DEBUG_VALUE: read_config_file:filename <- [%rsp+0]
	#DEBUG_VALUE: read_config_file:lineno <- %ebp
	.loc	18 0 43                 # confutil.c:0:43
	movq	%r12, %rbp
.Ltmp171:
	.loc	18 41 43                # confutil.c:41:43
	testw	%bx, %bx
	je	.LBB12_20
.Ltmp172:
.LBB12_15:                              # %for.inc.preheader
                                        #   in Loop: Header=BB12_3 Depth=1
	#DEBUG_VALUE: read_config_file:filename <- [%rsp+0]
	.loc	18 41 64                # confutil.c:41:64
	callq	_Z24__sanitizer_cov_trace_pcv
	#APP
	#NO_APP
.Ltmp173:
	.p2align	4, 0x90
.LBB12_16:                              # %for.inc
                                        #   Parent Loop BB12_3 Depth=1
                                        # =>  This Inner Loop Header: Depth=2
	#DEBUG_VALUE: read_config_file:filename <- [%rsp+0]
	.loc	18 30 14 is_stmt 1      # confutil.c:30:14
	callq	_Z24__sanitizer_cov_trace_pcv
	#APP
	#NO_APP
.Ltmp174:
	.loc	18 41 19                # confutil.c:41:19
	movzbl	-1(%r14), %r15d
	xorl	%edi, %edi
	movl	%r15d, %esi
	callq	_Z32__sanitizer_cov_trace_const_cmp1hh
	testl	%r15d, %r15d
	.loc	18 41 25 is_stmt 0      # confutil.c:41:25
	je	.LBB12_66
.Ltmp175:
# %bb.17:                               # %for.inc.land.rhs26_crit_edge
                                        #   in Loop: Header=BB12_16 Depth=2
	#DEBUG_VALUE: read_config_file:filename <- [%rsp+0]
	.loc	18 0 25                 # confutil.c:0:25
	movsbq	%r15b, %rbx
	callq	_Z24__sanitizer_cov_trace_pcv
	#APP
	#NO_APP
	.loc	18 41 28                # confutil.c:41:28
	movq	16(%rsp), %rax          # 8-byte Reload
	movzwl	(%rax,%rbx,2), %ebx
	andl	$8, %ebx
	xorl	%edi, %edi
	movl	%ebx, %esi
	callq	_Z32__sanitizer_cov_trace_const_cmp2tt
	.loc	18 41 51                # confutil.c:41:51
	movzbl	%r15b, %ebp
	movl	$95, %edi
	movl	%ebp, %esi
	callq	_Z32__sanitizer_cov_trace_const_cmp1hh
	.loc	18 41 43                # confutil.c:41:43
	addq	$1, %r14
	.loc	18 41 51                # confutil.c:41:51
	cmpb	$95, %bpl
	.loc	18 41 43                # confutil.c:41:43
	je	.LBB12_16
.Ltmp176:
# %bb.18:                               # %for.inc.land.rhs26_crit_edge
                                        #   in Loop: Header=BB12_16 Depth=2
	#DEBUG_VALUE: read_config_file:filename <- [%rsp+0]
	testw	%bx, %bx
	jne	.LBB12_16
.Ltmp177:
# %bb.19:                               # %for.end.loopexit
                                        #   in Loop: Header=BB12_3 Depth=1
	#DEBUG_VALUE: read_config_file:filename <- [%rsp+0]
	.loc	18 42 13 is_stmt 1      # confutil.c:42:13
	addq	$-2, %r14
	movq	%r14, %rbp
.Ltmp178:
.LBB12_20:                              # %for.end
                                        #   in Loop: Header=BB12_3 Depth=1
	#DEBUG_VALUE: read_config_file:filename <- [%rsp+0]
	callq	_Z24__sanitizer_cov_trace_pcv
	#APP
	#NO_APP
	movzbl	%r15b, %ebx
	movl	$61, %edi
	movl	%ebx, %esi
	callq	_Z32__sanitizer_cov_trace_const_cmp1hh
.Ltmp179:
	#DEBUG_VALUE: read_config_file:value <- %r14
	#DEBUG_VALUE: read_config_file:c <- %r14
	.loc	18 0 13 is_stmt 0       # confutil.c:0:13
	movb	$0, (%rbp)
	leaq	1(%rbp), %r14
.Ltmp180:
	#DEBUG_VALUE: read_config_file:value <- %r14
	#DEBUG_VALUE: read_config_file:c <- %r14
	.loc	18 42 13                # confutil.c:42:13
	cmpb	$61, %bl
.Ltmp181:
	.loc	18 42 7                 # confutil.c:42:7
	jne	.LBB12_21
.Ltmp182:
# %bb.33:                               # %if.end81
                                        #   in Loop: Header=BB12_3 Depth=1
	#DEBUG_VALUE: read_config_file:filename <- [%rsp+0]
	#DEBUG_VALUE: read_config_file:c <- %r14
	#DEBUG_VALUE: read_config_file:value <- %r14
	.loc	18 54 16 is_stmt 1      # confutil.c:54:16
	callq	_Z24__sanitizer_cov_trace_pcv
	#APP
	#NO_APP
	movzbl	(%r14), %ebx
	xorl	%edi, %edi
	movl	%ebx, %esi
	callq	_Z32__sanitizer_cov_trace_const_cmp1hh
	testl	%ebx, %ebx
	jne	.LBB12_34
	jmp	.LBB12_38
.Ltmp183:
.LBB12_66:                              # %for.end.thread
                                        #   in Loop: Header=BB12_3 Depth=1
	#DEBUG_VALUE: read_config_file:filename <- [%rsp+0]
	.loc	18 0 16 is_stmt 0       # confutil.c:0:16
	callq	_Z24__sanitizer_cov_trace_pcv
	#APP
	#NO_APP
	movb	$0, -1(%r14)
.Ltmp184:
.LBB12_21:                              # %if.else
                                        #   in Loop: Header=BB12_3 Depth=1
	#DEBUG_VALUE: read_config_file:filename <- [%rsp+0]
	#DEBUG_VALUE: read_config_file:value <- %r14
	.loc	18 30 14 is_stmt 1      # confutil.c:30:14
	callq	_Z24__sanitizer_cov_trace_pcv
	#APP
	#NO_APP
.Ltmp185:
	.loc	18 46 10                # confutil.c:46:10
	movzbl	(%r14), %ebx
	xorl	%edi, %edi
	movl	%ebx, %esi
	callq	_Z32__sanitizer_cov_trace_const_cmp1hh
	testl	%ebx, %ebx
	.loc	18 46 16 is_stmt 0      # confutil.c:46:16
	je	.LBB12_26
.Ltmp186:
# %bb.22:                               # %land.end55.lr.ph
                                        #   in Loop: Header=BB12_3 Depth=1
	#DEBUG_VALUE: read_config_file:filename <- [%rsp+0]
	#DEBUG_VALUE: read_config_file:value <- %r14
	.loc	18 0 16                 # confutil.c:0:16
	callq	_Z24__sanitizer_cov_trace_pcv
	#APP
	#NO_APP
	movq	8(%rsp), %rax           # 8-byte Reload
	movq	(%rax), %r15
	.loc	18 46 16                # confutil.c:46:16
	addq	$1, %r14
.Ltmp187:
	.p2align	4, 0x90
.LBB12_24:                              # %land.end55
                                        #   Parent Loop BB12_3 Depth=1
                                        # =>  This Inner Loop Header: Depth=2
	#DEBUG_VALUE: read_config_file:filename <- [%rsp+0]
	.loc	18 30 14 is_stmt 1      # confutil.c:30:14
	callq	_Z24__sanitizer_cov_trace_pcv
	#APP
	#NO_APP
.Ltmp188:
	.loc	18 46 18                # confutil.c:46:18
	movsbq	%bl, %rax
	movzwl	(%r15,%rax,2), %ebp
	.loc	18 46 16 is_stmt 0      # confutil.c:46:16
	andl	$8192, %ebp             # imm = 0x2000
	xorl	%edi, %edi
	movl	%ebp, %esi
	callq	_Z32__sanitizer_cov_trace_const_cmp2tt
	testw	%bp, %bp
	.loc	18 46 4                 # confutil.c:46:4
	je	.LBB12_25
.Ltmp189:
# %bb.23:                               # %while.cond44
                                        #   in Loop: Header=BB12_24 Depth=2
	#DEBUG_VALUE: read_config_file:filename <- [%rsp+0]
	.loc	18 30 14 is_stmt 1      # confutil.c:30:14
	callq	_Z24__sanitizer_cov_trace_pcv
	#APP
	#NO_APP
.Ltmp190:
	.loc	18 46 10                # confutil.c:46:10
	movzbl	(%r14), %ebx
	xorl	%edi, %edi
	movl	%ebx, %esi
	callq	_Z32__sanitizer_cov_trace_const_cmp1hh
	.loc	18 46 16 is_stmt 0      # confutil.c:46:16
	addq	$1, %r14
	.loc	18 46 10                # confutil.c:46:10
	testl	%ebx, %ebx
	jne	.LBB12_24
	jmp	.LBB12_26
.Ltmp191:
.LBB12_25:                              # %while.end58
                                        #   in Loop: Header=BB12_3 Depth=1
	#DEBUG_VALUE: read_config_file:filename <- [%rsp+0]
	.loc	18 47 17 is_stmt 1      # confutil.c:47:17
	callq	_Z24__sanitizer_cov_trace_pcv
	#APP
	#NO_APP
	movzbl	%bl, %esi
	movl	$61, %edi
	callq	_Z32__sanitizer_cov_trace_const_cmp1hh
	cmpb	$61, %bl
.Ltmp192:
	.loc	18 47 8 is_stmt 0       # confutil.c:47:8
	jne	.LBB12_26
.Ltmp193:
# %bb.29:                               # %if.end65
                                        #   in Loop: Header=BB12_3 Depth=1
	#DEBUG_VALUE: read_config_file:filename <- [%rsp+0]
	.loc	18 30 14 is_stmt 1      # confutil.c:30:14
	callq	_Z24__sanitizer_cov_trace_pcv
	#APP
	#NO_APP
.Ltmp194:
	.loc	18 52 10                # confutil.c:52:10
	movzbl	(%r14), %ebx
	xorl	%edi, %edi
	movl	%ebx, %esi
	callq	_Z32__sanitizer_cov_trace_const_cmp1hh
	testl	%ebx, %ebx
	.loc	18 52 16 is_stmt 0      # confutil.c:52:16
	je	.LBB12_38
.Ltmp195:
# %bb.30:                               # %land.rhs69.preheader
                                        #   in Loop: Header=BB12_3 Depth=1
	#DEBUG_VALUE: read_config_file:filename <- [%rsp+0]
	.loc	18 52 18                # confutil.c:52:18
	callq	_Z24__sanitizer_cov_trace_pcv
	#APP
	#NO_APP
.Ltmp196:
	.p2align	4, 0x90
.LBB12_31:                              # %land.rhs69
                                        #   Parent Loop BB12_3 Depth=1
                                        # =>  This Inner Loop Header: Depth=2
	#DEBUG_VALUE: read_config_file:filename <- [%rsp+0]
	.loc	18 30 14 is_stmt 1      # confutil.c:30:14
	callq	_Z24__sanitizer_cov_trace_pcv
	#APP
	#NO_APP
.Ltmp197:
	.loc	18 52 18                # confutil.c:52:18
	movsbq	%bl, %rax
	movzwl	(%r15,%rax,2), %ebp
	.loc	18 52 16 is_stmt 0      # confutil.c:52:16
	andl	$8192, %ebp             # imm = 0x2000
	xorl	%edi, %edi
	movl	%ebp, %esi
	callq	_Z32__sanitizer_cov_trace_const_cmp2tt
	testw	%bp, %bp
	.loc	18 52 4                 # confutil.c:52:4
	je	.LBB12_34
.Ltmp198:
# %bb.32:                               # %while.body78
                                        #   in Loop: Header=BB12_31 Depth=2
	#DEBUG_VALUE: read_config_file:filename <- [%rsp+0]
	#DEBUG_VALUE: read_config_file:value <- %r14
	.loc	18 52 40                # confutil.c:52:40
	callq	_Z24__sanitizer_cov_trace_pcv
	#APP
	#NO_APP
	.loc	18 52 10                # confutil.c:52:10
	movzbl	1(%r14), %ebx
	.loc	18 52 40                # confutil.c:52:40
	addq	$1, %r14
.Ltmp199:
	.loc	18 52 10                # confutil.c:52:10
	xorl	%edi, %edi
	movl	%ebx, %esi
	callq	_Z32__sanitizer_cov_trace_const_cmp1hh
	testl	%ebx, %ebx
	.loc	18 52 16                # confutil.c:52:16
	jne	.LBB12_31
	jmp	.LBB12_38
.Ltmp200:
	.p2align	4, 0x90
.LBB12_34:                              # %land.rhs85.lr.ph
                                        #   in Loop: Header=BB12_3 Depth=1
	#DEBUG_VALUE: read_config_file:filename <- [%rsp+0]
	.loc	18 0 16                 # confutil.c:0:16
	callq	_Z24__sanitizer_cov_trace_pcv
	#APP
	#NO_APP
	movq	8(%rsp), %rax           # 8-byte Reload
	movq	(%rax), %r15
	movq	%r14, %rbp
.Ltmp201:
	.p2align	4, 0x90
.LBB12_35:                              # %land.rhs85
                                        #   Parent Loop BB12_3 Depth=1
                                        # =>  This Inner Loop Header: Depth=2
	#DEBUG_VALUE: read_config_file:filename <- [%rsp+0]
	.loc	18 30 32 is_stmt 1      # confutil.c:30:32
	callq	_Z24__sanitizer_cov_trace_pcv
	#APP
	#NO_APP
.Ltmp202:
	.loc	18 54 21                # confutil.c:54:21
	movsbq	%bl, %rax
	movzwl	(%r15,%rax,2), %ebx
	.loc	18 54 20 is_stmt 0      # confutil.c:54:20
	andl	$8192, %ebx             # imm = 0x2000
	xorl	%edi, %edi
	movl	%ebx, %esi
	callq	_Z32__sanitizer_cov_trace_const_cmp2tt
	testw	%bx, %bx
.Ltmp203:
	.loc	18 54 3                 # confutil.c:54:3
	jne	.LBB12_37
.Ltmp204:
# %bb.36:                               # %for.inc96
                                        #   in Loop: Header=BB12_35 Depth=2
	#DEBUG_VALUE: read_config_file:filename <- [%rsp+0]
	#DEBUG_VALUE: read_config_file:c <- %rbp
	.loc	18 54 34                # confutil.c:54:34
	callq	_Z24__sanitizer_cov_trace_pcv
	#APP
	#NO_APP
	.loc	18 54 16                # confutil.c:54:16
	movzbl	1(%rbp), %ebx
	.loc	18 54 34                # confutil.c:54:34
	addq	$1, %rbp
.Ltmp205:
	.loc	18 54 16                # confutil.c:54:16
	xorl	%edi, %edi
	movl	%ebx, %esi
	callq	_Z32__sanitizer_cov_trace_const_cmp1hh
	testl	%ebx, %ebx
	.loc	18 54 18                # confutil.c:54:18
	jne	.LBB12_35
.Ltmp206:
.LBB12_37:                              # %for.end98
                                        #   in Loop: Header=BB12_3 Depth=1
	#DEBUG_VALUE: read_config_file:filename <- [%rsp+0]
	.loc	18 55 12 is_stmt 1      # confutil.c:55:12
	callq	_Z24__sanitizer_cov_trace_pcv
	#APP
	#NO_APP
	cmpq	%rbp, %r14
.Ltmp207:
	.loc	18 55 7 is_stmt 0       # confutil.c:55:7
	je	.LBB12_38
.Ltmp208:
# %bb.39:                               # %if.end103
                                        #   in Loop: Header=BB12_3 Depth=1
	#DEBUG_VALUE: read_config_file:filename <- [%rsp+0]
	.loc	18 60 5 is_stmt 1       # confutil.c:60:5
	callq	_Z24__sanitizer_cov_trace_pcv
	#APP
	#NO_APP
	movb	$0, (%rbp)
.Ltmp209:
	#DEBUG_VALUE: __s2_len <- 14
	.loc	18 61 8                 # confutil.c:61:8
	movl	$.L.str.3.147, %esi
	movq	%r12, %rdi
	callq	_Z28__sanitizer_cov_trace_strcmpPmS_
	movl	$.L.str.3.147, %esi
	movq	%r12, %rdi
	callq	strcmp
	movl	%eax, %ebx
.Ltmp210:
	.loc	18 61 8 is_stmt 0       # confutil.c:61:8
	xorl	%edi, %edi
	movl	%ebx, %esi
	callq	_Z32__sanitizer_cov_trace_const_cmp4jj
	testl	%ebx, %ebx
.Ltmp211:
	.loc	18 61 7                 # confutil.c:61:7
	je	.LBB12_40
.Ltmp212:
# %bb.41:                               # %cond.end199
                                        #   in Loop: Header=BB12_3 Depth=1
	#DEBUG_VALUE: read_config_file:filename <- [%rsp+0]
	.loc	18 63 15 is_stmt 1      # confutil.c:63:15
	callq	_Z24__sanitizer_cov_trace_pcv
	#APP
	#NO_APP
.Ltmp213:
	#DEBUG_VALUE: __s2_len <- 14
	movl	$.L.str.4.148, %esi
	movq	%r12, %rdi
	callq	_Z28__sanitizer_cov_trace_strcmpPmS_
	movl	$.L.str.4.148, %esi
	movq	%r12, %rdi
	callq	strcmp
	movl	%eax, %ebx
.Ltmp214:
	.loc	18 63 15 is_stmt 0      # confutil.c:63:15
	xorl	%edi, %edi
	movl	%ebx, %esi
	callq	_Z32__sanitizer_cov_trace_const_cmp4jj
	testl	%ebx, %ebx
	movl	%r13d, %ebp
.Ltmp215:
	.loc	18 63 14                # confutil.c:63:14
	je	.LBB12_42
.Ltmp216:
# %bb.43:                               # %cond.end255
                                        #   in Loop: Header=BB12_3 Depth=1
	#DEBUG_VALUE: read_config_file:filename <- [%rsp+0]
	.loc	18 65 15 is_stmt 1      # confutil.c:65:15
	callq	_Z24__sanitizer_cov_trace_pcv
	#APP
	#NO_APP
.Ltmp217:
	#DEBUG_VALUE: __s2_len <- 6
	movl	$.L.str.5.149, %esi
	movq	%r12, %rdi
	callq	_Z28__sanitizer_cov_trace_strcmpPmS_
	movl	$.L.str.5.149, %esi
	movq	%r12, %rdi
	callq	strcmp
	movl	%eax, %ebx
.Ltmp218:
	.loc	18 65 15 is_stmt 0      # confutil.c:65:15
	xorl	%edi, %edi
	movl	%ebx, %esi
	callq	_Z32__sanitizer_cov_trace_const_cmp4jj
	testl	%ebx, %ebx
.Ltmp219:
	.loc	18 65 14                # confutil.c:65:14
	je	.LBB12_44
.Ltmp220:
# %bb.45:                               # %cond.end311
                                        #   in Loop: Header=BB12_3 Depth=1
	#DEBUG_VALUE: read_config_file:filename <- [%rsp+0]
	.loc	18 67 15 is_stmt 1      # confutil.c:67:15
	callq	_Z24__sanitizer_cov_trace_pcv
	#APP
	#NO_APP
.Ltmp221:
	#DEBUG_VALUE: __s2_len <- 12
	movl	$.L.str.6.150, %esi
	movq	%r12, %rdi
	callq	_Z28__sanitizer_cov_trace_strcmpPmS_
	movl	$.L.str.6.150, %esi
	movq	%r12, %rdi
	callq	strcmp
	movl	%eax, %ebx
.Ltmp222:
	.loc	18 67 15 is_stmt 0      # confutil.c:67:15
	xorl	%edi, %edi
	movl	%ebx, %esi
	callq	_Z32__sanitizer_cov_trace_const_cmp4jj
	testl	%ebx, %ebx
.Ltmp223:
	.loc	18 67 14                # confutil.c:67:14
	je	.LBB12_46
.Ltmp224:
# %bb.47:                               # %cond.end367
                                        #   in Loop: Header=BB12_3 Depth=1
	#DEBUG_VALUE: read_config_file:filename <- [%rsp+0]
	.loc	18 69 15 is_stmt 1      # confutil.c:69:15
	callq	_Z24__sanitizer_cov_trace_pcv
	#APP
	#NO_APP
.Ltmp225:
	#DEBUG_VALUE: __s2_len <- 8
	movl	$.L.str.7.151, %esi
	movq	%r12, %rdi
	callq	_Z28__sanitizer_cov_trace_strcmpPmS_
	movl	$.L.str.7.151, %esi
	movq	%r12, %rdi
	callq	strcmp
	movl	%eax, %ebx
.Ltmp226:
	.loc	18 69 15 is_stmt 0      # confutil.c:69:15
	xorl	%edi, %edi
	movl	%ebx, %esi
	callq	_Z32__sanitizer_cov_trace_const_cmp4jj
	testl	%ebx, %ebx
.Ltmp227:
	.loc	18 69 14                # confutil.c:69:14
	je	.LBB12_48
.Ltmp228:
# %bb.49:                               # %cond.end423
                                        #   in Loop: Header=BB12_3 Depth=1
	#DEBUG_VALUE: read_config_file:filename <- [%rsp+0]
	.loc	18 71 15 is_stmt 1      # confutil.c:71:15
	callq	_Z24__sanitizer_cov_trace_pcv
	#APP
	#NO_APP
.Ltmp229:
	#DEBUG_VALUE: __s2_len <- 12
	movl	$.L.str.8.152, %esi
	movq	%r12, %rdi
	callq	_Z28__sanitizer_cov_trace_strcmpPmS_
	movl	$.L.str.8.152, %esi
	movq	%r12, %rdi
	callq	strcmp
	movl	%eax, %ebx
.Ltmp230:
	.loc	18 71 15 is_stmt 0      # confutil.c:71:15
	xorl	%edi, %edi
	movl	%ebx, %esi
	callq	_Z32__sanitizer_cov_trace_const_cmp4jj
	testl	%ebx, %ebx
.Ltmp231:
	.loc	18 71 14                # confutil.c:71:14
	je	.LBB12_50
.Ltmp232:
# %bb.59:                               # %cond.end508
                                        #   in Loop: Header=BB12_3 Depth=1
	#DEBUG_VALUE: read_config_file:filename <- [%rsp+0]
	.loc	18 75 15 is_stmt 1      # confutil.c:75:15
	callq	_Z24__sanitizer_cov_trace_pcv
	#APP
	#NO_APP
.Ltmp233:
	#DEBUG_VALUE: __s2_len <- 10
	movl	$.L.str.9.153, %esi
	movq	%r12, %rdi
	callq	_Z28__sanitizer_cov_trace_strcmpPmS_
	movl	$.L.str.9.153, %esi
	movq	%r12, %rdi
	callq	strcmp
	movl	%eax, %ebx
.Ltmp234:
	.loc	18 75 15 is_stmt 0      # confutil.c:75:15
	xorl	%edi, %edi
	movl	%ebx, %esi
	callq	_Z32__sanitizer_cov_trace_const_cmp4jj
	testl	%ebx, %ebx
.Ltmp235:
	.loc	18 75 14                # confutil.c:75:14
	jne	.LBB12_65
.Ltmp236:
# %bb.60:                               # %if.then511
                                        #   in Loop: Header=BB12_3 Depth=1
	#DEBUG_VALUE: read_config_file:filename <- [%rsp+0]
	.loc	18 76 8 is_stmt 1       # confutil.c:76:8
	callq	_Z24__sanitizer_cov_trace_pcv
	#APP
	#NO_APP
	callq	__ctype_tolower_loc
	movq	(%rax), %rax
	movsbq	(%r14), %rcx
.Ltmp237:
	.loc	18 76 8 is_stmt 0       # confutil.c:76:8
	movl	(%rax,%rcx,4), %ebx
	movl	$__sancov_gen_cov_switch_values.1, %esi
	movq	%rbx, %rdi
	callq	_Z28__sanitizer_cov_trace_switchmPm
	cmpq	$121, %rbx
	je	.LBB12_63
.Ltmp238:
# %bb.61:                               # %if.then511
                                        #   in Loop: Header=BB12_3 Depth=1
	#DEBUG_VALUE: read_config_file:filename <- [%rsp+0]
	#DEBUG_VALUE: __res <- %ebx
	cmpl	$110, %ebx
	jne	.LBB12_64
.Ltmp239:
# %bb.62:                               # %if.then520
                                        #   in Loop: Header=BB12_3 Depth=1
	#DEBUG_VALUE: read_config_file:filename <- [%rsp+0]
	.loc	18 0 8                  # confutil.c:0:8
	callq	_Z24__sanitizer_cov_trace_pcv
	#APP
	#NO_APP
	movb	$1, runtime_locale_check(%rip)
	jmp	.LBB12_10
.Ltmp240:
.LBB12_40:                              # %if.then146
                                        #   in Loop: Header=BB12_3 Depth=1
	#DEBUG_VALUE: read_config_file:filename <- [%rsp+0]
	.loc	18 62 18 is_stmt 1      # confutil.c:62:18
	callq	_Z24__sanitizer_cov_trace_pcv
	#APP
	#NO_APP
	movq	%r14, %rdi
	callq	__strdup
	.loc	18 62 17 is_stmt 0      # confutil.c:62:17
	movq	%rax, source_csname(%rip)
	movl	%r13d, %ebp
	jmp	.LBB12_10
.Ltmp241:
.LBB12_42:                              # %if.then202
                                        #   in Loop: Header=BB12_3 Depth=1
	#DEBUG_VALUE: read_config_file:filename <- [%rsp+0]
	.loc	18 64 16 is_stmt 1      # confutil.c:64:16
	callq	_Z24__sanitizer_cov_trace_pcv
	#APP
	#NO_APP
	movq	%r14, %rdi
	callq	__strdup
	.loc	18 64 15 is_stmt 0      # confutil.c:64:15
	movq	%rax, dest_csname(%rip)
	jmp	.LBB12_10
.Ltmp242:
.LBB12_44:                              # %if.then258
                                        #   in Loop: Header=BB12_3 Depth=1
	#DEBUG_VALUE: read_config_file:filename <- [%rsp+0]
	.loc	18 66 16 is_stmt 1      # confutil.c:66:16
	callq	_Z24__sanitizer_cov_trace_pcv
	#APP
	#NO_APP
	movq	%r14, %rdi
	callq	__strdup
	.loc	18 66 15 is_stmt 0      # confutil.c:66:15
	movq	%rax, format_name(%rip)
	jmp	.LBB12_10
.Ltmp243:
.LBB12_46:                              # %if.then314
                                        #   in Loop: Header=BB12_3 Depth=1
	#DEBUG_VALUE: read_config_file:filename <- [%rsp+0]
	.loc	18 68 17 is_stmt 1      # confutil.c:68:17
	callq	_Z24__sanitizer_cov_trace_pcv
	#APP
	#NO_APP
	movq	%r14, %rdi
	callq	__strdup
	.loc	18 68 16 is_stmt 0      # confutil.c:68:16
	movq	%rax, charset_path(%rip)
	jmp	.LBB12_10
.Ltmp244:
.LBB12_48:                              # %if.then370
                                        #   in Loop: Header=BB12_3 Depth=1
	#DEBUG_VALUE: read_config_file:filename <- [%rsp+0]
	.loc	18 70 15 is_stmt 1      # confutil.c:70:15
	callq	_Z24__sanitizer_cov_trace_pcv
	#APP
	#NO_APP
	movq	%r14, %rdi
	callq	__strdup
	.loc	18 70 13 is_stmt 0      # confutil.c:70:13
	movq	%rax, map_path(%rip)
	jmp	.LBB12_10
.Ltmp245:
.LBB12_50:                              # %if.then426
                                        #   in Loop: Header=BB12_3 Depth=1
	#DEBUG_VALUE: read_config_file:filename <- [%rsp+0]
	.loc	18 72 8 is_stmt 1       # confutil.c:72:8
	callq	_Z24__sanitizer_cov_trace_pcv
	#APP
	#NO_APP
	.loc	18 72 14 is_stmt 0      # confutil.c:72:14
	movzbl	(%r14), %ebx
	movl	$34, %edi
	movl	%ebx, %esi
	callq	_Z32__sanitizer_cov_trace_const_cmp1hh
	cmpl	$34, %ebx
	.loc	18 72 20                # confutil.c:72:20
	jne	.LBB12_54
.Ltmp246:
# %bb.51:                               # %land.lhs.true430
                                        #   in Loop: Header=BB12_3 Depth=1
	#DEBUG_VALUE: read_config_file:filename <- [%rsp+0]
	.loc	18 72 23                # confutil.c:72:23
	callq	_Z24__sanitizer_cov_trace_pcv
	#APP
	#NO_APP
	movzbl	1(%r14), %ebx
	xorl	%edi, %edi
	movl	%ebx, %esi
	callq	_Z32__sanitizer_cov_trace_const_cmp1hh
	testl	%ebx, %ebx
	.loc	18 72 32                # confutil.c:72:32
	je	.LBB12_52
.Ltmp247:
# %bb.53:                               # %land.lhs.true434
                                        #   in Loop: Header=BB12_3 Depth=1
	#DEBUG_VALUE: read_config_file:filename <- [%rsp+0]
	.loc	18 0 32                 # confutil.c:0:32
	leaq	1(%r14), %rbp
	.loc	18 72 35                # confutil.c:72:35
	callq	_Z24__sanitizer_cov_trace_pcv
	#APP
	#NO_APP
	.loc	18 72 43                # confutil.c:72:43
	movzbl	2(%r14), %ebx
	movl	$34, %edi
	movl	%ebx, %esi
	callq	_Z32__sanitizer_cov_trace_const_cmp1hh
	cmpl	$34, %ebx
.Ltmp248:
	.loc	18 72 8                 # confutil.c:72:8
	cmoveq	%rbp, %r14
.Ltmp249:
	.loc	18 73 8 is_stmt 1       # confutil.c:73:8
	movb	(%r14), %bl
.Ltmp250:
.LBB12_54:                              # %if.end441
                                        #   in Loop: Header=BB12_3 Depth=1
	#DEBUG_VALUE: read_config_file:filename <- [%rsp+0]
	.loc	18 30 14                # confutil.c:30:14
	callq	_Z24__sanitizer_cov_trace_pcv
	#APP
	#NO_APP
.Ltmp251:
	.loc	18 73 14                # confutil.c:73:14
	movzbl	%bl, %ebp
	movl	$39, %edi
	movl	%ebp, %esi
	callq	_Z32__sanitizer_cov_trace_const_cmp1hh
	cmpb	$39, %bpl
	movl	%r13d, %ebp
	.loc	18 73 21 is_stmt 0      # confutil.c:73:21
	jne	.LBB12_58
.Ltmp252:
# %bb.55:                               # %land.lhs.true445
                                        #   in Loop: Header=BB12_3 Depth=1
	#DEBUG_VALUE: read_config_file:filename <- [%rsp+0]
	#DEBUG_VALUE: read_config_file:value <- %r14
	.loc	18 73 24                # confutil.c:73:24
	callq	_Z24__sanitizer_cov_trace_pcv
	#APP
	#NO_APP
	movzbl	1(%r14), %ebx
	xorl	%edi, %edi
	movl	%ebx, %esi
	callq	_Z32__sanitizer_cov_trace_const_cmp1hh
	testl	%ebx, %ebx
	.loc	18 73 33                # confutil.c:73:33
	je	.LBB12_56
.Ltmp253:
# %bb.57:                               # %land.lhs.true449
                                        #   in Loop: Header=BB12_3 Depth=1
	#DEBUG_VALUE: read_config_file:filename <- [%rsp+0]
	#DEBUG_VALUE: read_config_file:value <- %r14
	.loc	18 0 33                 # confutil.c:0:33
	leaq	1(%r14), %rbp
	.loc	18 73 36                # confutil.c:73:36
	callq	_Z24__sanitizer_cov_trace_pcv
	#APP
	#NO_APP
	.loc	18 73 44                # confutil.c:73:44
	movzbl	2(%r14), %ebx
	movl	$39, %edi
	movl	%ebx, %esi
	callq	_Z32__sanitizer_cov_trace_const_cmp1hh
	cmpl	$39, %ebx
.Ltmp254:
	.loc	18 73 8                 # confutil.c:73:8
	cmovneq	%r14, %rbp
	.loc	18 74 18 is_stmt 1      # confutil.c:74:18
	movb	(%rbp), %bl
	movl	%r13d, %ebp
	jmp	.LBB12_58
.Ltmp255:
.LBB12_63:                              # %if.then531
                                        #   in Loop: Header=BB12_3 Depth=1
	#DEBUG_VALUE: read_config_file:filename <- [%rsp+0]
	.loc	18 0 18 is_stmt 0       # confutil.c:0:18
	callq	_Z24__sanitizer_cov_trace_pcv
	#APP
	#NO_APP
	movb	$0, runtime_locale_check(%rip)
	jmp	.LBB12_10
.Ltmp256:
.LBB12_52:                              #   in Loop: Header=BB12_3 Depth=1
	#DEBUG_VALUE: read_config_file:filename <- [%rsp+0]
	movb	$34, %bl
	jmp	.LBB12_58
.Ltmp257:
.LBB12_56:                              #   in Loop: Header=BB12_3 Depth=1
	#DEBUG_VALUE: read_config_file:filename <- [%rsp+0]
	#DEBUG_VALUE: read_config_file:value <- %r14
	movb	$39, %bl
.Ltmp258:
.LBB12_58:                              # %if.end456
                                        #   in Loop: Header=BB12_3 Depth=1
	#DEBUG_VALUE: read_config_file:filename <- [%rsp+0]
	.loc	18 74 16                # confutil.c:74:16
	callq	_Z24__sanitizer_cov_trace_pcv
	#APP
	#NO_APP
	movb	%bl, bad_char(%rip)
.Ltmp259:
	.p2align	4, 0x90
.LBB12_10:                              # %while.cond.backedge
                                        #   in Loop: Header=BB12_3 Depth=1
	#DEBUG_VALUE: read_config_file:filename <- [%rsp+0]
	.loc	18 0 16                 # confutil.c:0:16
	movl	%ebp, %r15d
	.loc	18 31 6 is_stmt 1       # confutil.c:31:6
	callq	_Z24__sanitizer_cov_trace_pcv
	#APP
	#NO_APP
	movq	24(%rsp), %r14          # 8-byte Reload
	.loc	18 33 10                # confutil.c:33:10
	movq	%r14, %rdi
	callq	feof
	movl	%eax, %ebx
	.loc	18 33 9 is_stmt 0       # confutil.c:33:9
	xorl	%edi, %edi
	movl	%ebx, %esi
	callq	_Z32__sanitizer_cov_trace_const_cmp4jj
	testl	%ebx, %ebx
	leaq	32(%rsp), %rbp
	.loc	18 33 2                 # confutil.c:33:2
	je	.LBB12_3
.Ltmp260:
.LBB12_11:                              # %while.end545
	#DEBUG_VALUE: read_config_file:filename <- [%rsp+0]
	.loc	18 92 2 is_stmt 1       # confutil.c:92:2
	callq	_Z24__sanitizer_cov_trace_pcv
	#APP
	#NO_APP
	movq	%r14, %rdi
	callq	fclose
.Ltmp261:
.LBB12_12:                              # %cleanup
	.loc	18 93 1                 # confutil.c:93:1
	callq	_Z24__sanitizer_cov_trace_pcv
	#APP
	#NO_APP
	addq	$1064, %rsp             # imm = 0x428
	popq	%rbx
	popq	%r12
	popq	%r13
	popq	%r14
	popq	%r15
	popq	%rbp
	retq
.LBB12_38:                              # %if.then101
.Ltmp262:
	#DEBUG_VALUE: read_config_file:filename <- [%rsp+0]
	.loc	18 56 12                # confutil.c:56:12
	callq	_Z24__sanitizer_cov_trace_pcv
	#APP
	#NO_APP
	jmp	.LBB12_27
.Ltmp263:
.LBB12_26:                              # %if.then63
	#DEBUG_VALUE: read_config_file:filename <- [%rsp+0]
	.loc	18 48 13                # confutil.c:48:13
	callq	_Z24__sanitizer_cov_trace_pcv
	#APP
	#NO_APP
.Ltmp264:
.LBB12_27:                              # %if.then63
	#DEBUG_VALUE: read_config_file:filename <- [%rsp+0]
	.loc	18 0 13 is_stmt 0       # confutil.c:0:13
	movq	stderr(%rip), %rdi
	movl	$.L.str.2.146, %esi
	xorl	%eax, %eax
	movq	(%rsp), %rdx            # 8-byte Reload
	movl	%r13d, %ecx
.Ltmp265:
.LBB12_28:                              # %if.then63
	#DEBUG_VALUE: read_config_file:filename <- [%rsp+0]
	callq	fprintf
	movl	$1, %edi
	callq	exit
.Ltmp266:
.LBB12_65:                              # %if.else536
	#DEBUG_VALUE: read_config_file:filename <- [%rsp+0]
	.loc	18 87 12 is_stmt 1      # confutil.c:87:12
	callq	_Z24__sanitizer_cov_trace_pcv
	#APP
	#NO_APP
	movq	stderr(%rip), %rdi
	.loc	18 87 4 is_stmt 0       # confutil.c:87:4
	movl	$.L.str.11.155, %esi
	xorl	%eax, %eax
	movq	(%rsp), %rdx            # 8-byte Reload
	movl	%ebp, %ecx
	movq	%r12, %r8
	movq	%r14, %r9
	callq	fprintf
	.loc	18 89 4 is_stmt 1       # confutil.c:89:4
	movl	$1, %edi
	callq	exit
.Ltmp267:
.LBB12_64:                              # %if.else532
	#DEBUG_VALUE: read_config_file:filename <- [%rsp+0]
	.loc	18 81 13                # confutil.c:81:13
	callq	_Z24__sanitizer_cov_trace_pcv
	#APP
	#NO_APP
	movq	stderr(%rip), %rdi
	.loc	18 81 5 is_stmt 0       # confutil.c:81:5
	movl	$.L.str.10.154, %esi
	xorl	%eax, %eax
	movq	(%rsp), %rdx            # 8-byte Reload
	movl	%ebp, %ecx
	jmp	.LBB12_28
.Ltmp268:
.Lfunc_end12:
	.size	read_config_file, .Lfunc_end12-read_config_file
	.cfi_endproc
                                        # -- End function
	.globl	find_file               # -- Begin function find_file
	.p2align	4, 0x90
	.type	find_file,@function
find_file:                              # @find_file
.Lfunc_begin13:
	.file	21 "/home/zhangzheng1/zhangzheng1/codes/myUtilities/LLVMPass/llvm-pass-skeleton/collectCMP/catdoc-38a2807/src/fileutil.c"
	.loc	21 70 0 is_stmt 1       # fileutil.c:70:0
	.cfi_startproc
# %bb.0:                                # %entry
	pushq	%rbp
	.cfi_def_cfa_offset 16
	pushq	%r15
	.cfi_def_cfa_offset 24
	pushq	%r14
	.cfi_def_cfa_offset 32
	pushq	%r13
	.cfi_def_cfa_offset 40
	pushq	%r12
	.cfi_def_cfa_offset 48
	pushq	%rbx
	.cfi_def_cfa_offset 56
	subq	$1048, %rsp             # imm = 0x418
	.cfi_def_cfa_offset 1104
	.cfi_offset %rbx, -56
	.cfi_offset %r12, -48
	.cfi_offset %r13, -40
	.cfi_offset %r14, -32
	.cfi_offset %r15, -24
	.cfi_offset %rbp, -16
	#DEBUG_VALUE: find_file:name <- %rdi
	#DEBUG_VALUE: find_file:path <- %rsi
.Ltmp269:
	#DEBUG_VALUE: find_file:p <- %rsi
	movq	%rsi, %rbx
	movq	%rdi, %r14
	callq	_Z24__sanitizer_cov_trace_pcv
.Ltmp270:
	#APP
	#NO_APP
.Ltmp271:
	#DEBUG_VALUE: find_file:dir_sep <- 47
	#DEBUG_VALUE: find_file:p <- %rbx
	#DEBUG_VALUE: find_file:path <- %rbx
	#DEBUG_VALUE: find_file:name <- %r14
	.loc	21 73 7 prologue_end    # fileutil.c:73:7
	movw	$47, 14(%rsp)
.Ltmp272:
	.loc	21 74 2                 # fileutil.c:74:2
	testq	%rbx, %rbx
	je	.LBB13_10
.Ltmp273:
# %bb.1:                                # %for.body.preheader
	#DEBUG_VALUE: find_file:name <- %r14
	#DEBUG_VALUE: find_file:path <- %rbx
	#DEBUG_VALUE: find_file:p <- %rbx
	.loc	21 75 5                 # fileutil.c:75:5
	callq	_Z24__sanitizer_cov_trace_pcv
	#APP
	#NO_APP
	leaq	16(%rsp), %r12
	leaq	14(%rsp), %r15
	jmp	.LBB13_3
.Ltmp274:
	.p2align	4, 0x90
.LBB13_2:                               # %for.cond.backedge
                                        #   in Loop: Header=BB13_3 Depth=1
	#DEBUG_VALUE: find_file:q <- %r13
	#DEBUG_VALUE: find_file:name <- %r14
	.loc	21 74 23                # fileutil.c:74:23
	callq	_Z24__sanitizer_cov_trace_pcv
	#APP
	#NO_APP
	addq	$1, %r13
.Ltmp275:
	#DEBUG_VALUE: find_file:p <- %r13
	.loc	21 0 23 is_stmt 0       # fileutil.c:0:23
	movq	%r13, %rbx
.Ltmp276:
	#DEBUG_VALUE: find_file:p <- %rbx
.LBB13_3:                               # %for.body
                                        # =>This Inner Loop Header: Depth=1
	#DEBUG_VALUE: find_file:name <- %r14
	#DEBUG_VALUE: find_file:path <- %rbx
	#DEBUG_VALUE: find_file:p <- %rbx
	.loc	21 70 15 is_stmt 1      # fileutil.c:70:15
	callq	_Z24__sanitizer_cov_trace_pcv
	#APP
	#NO_APP
	#DEBUG_VALUE: find_file:p <- %rbx
.Ltmp277:
	.loc	21 75 5                 # fileutil.c:75:5
	movl	$58, %esi
	movq	%rbx, %rdi
	callq	strchr
	movq	%rax, %r13
.Ltmp278:
	#DEBUG_VALUE: find_file:q <- %r13
	.loc	21 76 7                 # fileutil.c:76:7
	testq	%r13, %r13
.Ltmp279:
	.loc	21 76 7 is_stmt 0       # fileutil.c:76:7
	je	.LBB13_5
.Ltmp280:
# %bb.4:                                # %if.then
                                        #   in Loop: Header=BB13_3 Depth=1
	#DEBUG_VALUE: find_file:q <- %r13
	#DEBUG_VALUE: find_file:name <- %r14
	#DEBUG_VALUE: find_file:path <- %rbx
	#DEBUG_VALUE: find_file:p <- %rbx
	.loc	21 77 9 is_stmt 1       # fileutil.c:77:9
	callq	_Z24__sanitizer_cov_trace_pcv
	#APP
	#NO_APP
	movq	%r12, %rdi
	movq	%rbx, %rsi
	movq	%r13, %rdx
	callq	prepare_path_buf
	movl	%eax, %ebx
.Ltmp281:
	xorl	%edi, %edi
	movl	%ebx, %esi
	callq	_Z32__sanitizer_cov_trace_const_cmp4jj
	testl	%ebx, %ebx
	jne	.LBB13_6
	jmp	.LBB13_2
.Ltmp282:
	.p2align	4, 0x90
.LBB13_5:                               # %if.else
                                        #   in Loop: Header=BB13_3 Depth=1
	#DEBUG_VALUE: find_file:q <- %r13
	#DEBUG_VALUE: find_file:name <- %r14
	#DEBUG_VALUE: find_file:path <- %rbx
	#DEBUG_VALUE: find_file:p <- %rbx
	.loc	21 79 39                # fileutil.c:79:39
	callq	_Z24__sanitizer_cov_trace_pcv
	#APP
	#NO_APP
	movq	%rbx, %rdi
	callq	strlen
	.loc	21 79 38 is_stmt 0      # fileutil.c:79:38
	leaq	(%rax,%rbx), %rdx
	.loc	21 79 9                 # fileutil.c:79:9
	movq	%r12, %rdi
	movq	%rbx, %rsi
	callq	prepare_path_buf
	movl	%eax, %ebx
.Ltmp283:
	xorl	%edi, %edi
	movl	%ebx, %esi
	callq	_Z32__sanitizer_cov_trace_const_cmp4jj
	testl	%ebx, %ebx
.Ltmp284:
	.loc	21 79 8                 # fileutil.c:79:8
	je	.LBB13_10
.Ltmp285:
.LBB13_6:                               # %if.end11
                                        #   in Loop: Header=BB13_3 Depth=1
	#DEBUG_VALUE: find_file:q <- %r13
	#DEBUG_VALUE: find_file:name <- %r14
	.loc	21 81 3 is_stmt 1       # fileutil.c:81:3
	callq	_Z24__sanitizer_cov_trace_pcv
	#APP
	#NO_APP
	movq	%r12, %rdi
	movq	%r15, %rsi
	callq	strcat
.Ltmp286:
	.loc	21 82 7                 # fileutil.c:82:7
	movq	%r12, %rdi
	callq	strlen
	movq	%rax, %rbx
	.loc	21 82 24 is_stmt 0      # fileutil.c:82:24
	movq	%r14, %rdi
	callq	strlen
	movq	%rax, %rbp
	.loc	21 82 23                # fileutil.c:82:23
	addq	%rbx, %rbp
	.loc	21 82 36                # fileutil.c:82:36
	movl	$1023, %edi             # imm = 0x3FF
	movq	%rbp, %rsi
	callq	_Z32__sanitizer_cov_trace_const_cmp8mm
	cmpq	$1023, %rbp             # imm = 0x3FF
.Ltmp287:
	.loc	21 82 7                 # fileutil.c:82:7
	ja	.LBB13_9
.Ltmp288:
# %bb.7:                                # %if.end19
                                        #   in Loop: Header=BB13_3 Depth=1
	#DEBUG_VALUE: find_file:q <- %r13
	#DEBUG_VALUE: find_file:name <- %r14
	.loc	21 84 3 is_stmt 1       # fileutil.c:84:3
	callq	_Z24__sanitizer_cov_trace_pcv
	#APP
	#NO_APP
	movq	%r12, %rdi
	movq	%r14, %rsi
	callq	strcat
.Ltmp289:
	.loc	21 85 7                 # fileutil.c:85:7
	xorl	%esi, %esi
	movq	%r12, %rdi
	callq	access
	movl	%eax, %ebx
	.loc	21 85 25 is_stmt 0      # fileutil.c:85:25
	xorl	%edi, %edi
	movl	%ebx, %esi
	callq	_Z32__sanitizer_cov_trace_const_cmp4jj
	testl	%ebx, %ebx
.Ltmp290:
	.loc	21 85 7                 # fileutil.c:85:7
	je	.LBB13_8
.Ltmp291:
.LBB13_9:                               # %for.inc
                                        #   in Loop: Header=BB13_3 Depth=1
	#DEBUG_VALUE: find_file:q <- %r13
	#DEBUG_VALUE: find_file:name <- %r14
	.loc	21 0 7                  # fileutil.c:0:7
	callq	_Z24__sanitizer_cov_trace_pcv
	#APP
	#NO_APP
.Ltmp292:
	.loc	21 76 7 is_stmt 1       # fileutil.c:76:7
	testq	%r13, %r13
	jne	.LBB13_2
.Ltmp293:
.LBB13_10:                              # %for.end
	#DEBUG_VALUE: find_file:name <- %r14
	.loc	21 91 2                 # fileutil.c:91:2
	callq	_Z24__sanitizer_cov_trace_pcv
	#APP
	#NO_APP
	movq	%r14, %rdi
	callq	free
	xorl	%ebx, %ebx
.Ltmp294:
.LBB13_11:                              # %cleanup
	#DEBUG_VALUE: find_file:name <- %r14
	.loc	21 93 1                 # fileutil.c:93:1
	callq	_Z24__sanitizer_cov_trace_pcv
	#APP
	#NO_APP
	movq	%rbx, %rax
	addq	$1048, %rsp             # imm = 0x418
	popq	%rbx
	popq	%r12
	popq	%r13
	popq	%r14
.Ltmp295:
	popq	%r15
	popq	%rbp
	retq
.LBB13_8:                               # %if.then25
.Ltmp296:
	#DEBUG_VALUE: find_file:q <- %r13
	#DEBUG_VALUE: find_file:name <- %r14
	.loc	21 86 4                 # fileutil.c:86:4
	callq	_Z24__sanitizer_cov_trace_pcv
	#APP
	#NO_APP
	movq	%r14, %rdi
	callq	free
	leaq	16(%rsp), %rdi
	.loc	21 87 11                # fileutil.c:87:11
	callq	__strdup
	movq	%rax, %rbx
	jmp	.LBB13_11
.Ltmp297:
.Lfunc_end13:
	.size	find_file, .Lfunc_end13-find_file
	.cfi_endproc
                                        # -- End function
	.globl	get_locale_charset      # -- Begin function get_locale_charset
	.p2align	4, 0x90
	.type	get_locale_charset,@function
get_locale_charset:                     # @get_locale_charset
.Lfunc_begin14:
	.loc	18 100 0                # confutil.c:100:0
	.cfi_startproc
# %bb.0:                                # %entry
	pushq	%rbp
	.cfi_def_cfa_offset 16
	pushq	%r15
	.cfi_def_cfa_offset 24
	pushq	%r14
	.cfi_def_cfa_offset 32
	pushq	%rbx
	.cfi_def_cfa_offset 40
	pushq	%rax
	.cfi_def_cfa_offset 48
	.cfi_offset %rbx, -40
	.cfi_offset %r14, -32
	.cfi_offset %r15, -24
	.cfi_offset %rbp, -16
	callq	_Z24__sanitizer_cov_trace_pcv
	#APP
	#NO_APP
	movb	runtime_locale_check(%rip), %al
.Ltmp298:
	.loc	18 102 6 prologue_end   # confutil.c:102:6
	testb	%al, %al
	jne	.LBB14_27
# %bb.1:                                # %if.end
.Ltmp299:
	.loc	18 104 7                # confutil.c:104:7
	callq	_Z24__sanitizer_cov_trace_pcv
	#APP
	#NO_APP
	xorl	%edi, %edi
	movl	$.L.str.12.158, %esi
	callq	setlocale
	testq	%rax, %rax
.Ltmp300:
	.loc	18 104 6 is_stmt 0      # confutil.c:104:6
	je	.LBB14_27
# %bb.2:                                # %if.end3
	.loc	18 106 12 is_stmt 1     # confutil.c:106:12
	callq	_Z24__sanitizer_cov_trace_pcv
	#APP
	#NO_APP
	movl	$14, %edi
	callq	nl_langinfo
	movq	%rax, %rbx
.Ltmp301:
	#DEBUG_VALUE: get_locale_charset:codeset <- %rbx
	.loc	18 107 7                # confutil.c:107:7
	movl	$.L.str.13.159, %esi
	movl	$3, %edx
	movq	%rbx, %rdi
	callq	strncmp
	movl	%eax, %ebp
	xorl	%edi, %edi
	movl	%ebp, %esi
	callq	_Z32__sanitizer_cov_trace_const_cmp4jj
	testl	%ebp, %ebp
	.loc	18 107 31 is_stmt 0     # confutil.c:107:31
	je	.LBB14_4
.Ltmp302:
# %bb.3:                                # %cond.false101
	#DEBUG_VALUE: get_locale_charset:codeset <- %rbx
	.loc	18 107 34               # confutil.c:107:34
	callq	_Z24__sanitizer_cov_trace_pcv
	#APP
	#NO_APP
	movl	$.L.str.14.160, %esi
	movl	$3, %edx
	movq	%rbx, %rdi
	callq	strncmp
	movl	%eax, %ebp
	xorl	%edi, %edi
	movl	%ebp, %esi
	callq	_Z32__sanitizer_cov_trace_const_cmp4jj
	testl	%ebp, %ebp
.Ltmp303:
	.loc	18 107 6                # confutil.c:107:6
	je	.LBB14_4
.Ltmp304:
# %bb.9:                                # %cond.end225
	#DEBUG_VALUE: get_locale_charset:codeset <- %rbx
	.loc	18 118 14 is_stmt 1     # confutil.c:118:14
	callq	_Z24__sanitizer_cov_trace_pcv
.Ltmp305:
	#DEBUG_VALUE: __s2_len <- 14
	#APP
	#NO_APP
	movl	$.L.str.17.163, %esi
	movq	%rbx, %rdi
	callq	_Z28__sanitizer_cov_trace_strcmpPmS_
	movl	$.L.str.17.163, %esi
	movq	%rbx, %rdi
	callq	strcmp
	movl	%eax, %ebp
.Ltmp306:
	.loc	18 118 14 is_stmt 0     # confutil.c:118:14
	xorl	%edi, %edi
	movl	%ebp, %esi
	callq	_Z32__sanitizer_cov_trace_const_cmp4jj
	testl	%ebp, %ebp
.Ltmp307:
	.loc	18 118 13               # confutil.c:118:13
	je	.LBB14_10
.Ltmp308:
# %bb.11:                               # %cond.false285
	#DEBUG_VALUE: get_locale_charset:codeset <- %rbx
	.loc	18 120 14 is_stmt 1     # confutil.c:120:14
	callq	_Z24__sanitizer_cov_trace_pcv
	#APP
	#NO_APP
	movl	$.L.str.18.164, %esi
	movl	$4, %edx
	movq	%rbx, %rdi
	callq	strncmp
	movl	%eax, %ebp
	xorl	%edi, %edi
	movl	%ebp, %esi
	callq	_Z32__sanitizer_cov_trace_const_cmp4jj
	testl	%ebp, %ebp
	.loc	18 120 39 is_stmt 0     # confutil.c:120:39
	je	.LBB14_13
.Ltmp309:
# %bb.12:                               # %cond.false343
	#DEBUG_VALUE: get_locale_charset:codeset <- %rbx
	.loc	18 120 42               # confutil.c:120:42
	callq	_Z24__sanitizer_cov_trace_pcv
	#APP
	#NO_APP
	movl	$.L.str.19.165, %esi
	movl	$4, %edx
	movq	%rbx, %rdi
	callq	strncmp
	movl	%eax, %ebp
	xorl	%edi, %edi
	movl	%ebp, %esi
	callq	_Z32__sanitizer_cov_trace_const_cmp4jj
	testl	%ebp, %ebp
.Ltmp310:
	.loc	18 120 13               # confutil.c:120:13
	je	.LBB14_13
.Ltmp311:
# %bb.17:                               # %cond.false420
	#DEBUG_VALUE: get_locale_charset:codeset <- %rbx
	.loc	18 132 14 is_stmt 1     # confutil.c:132:14
	callq	_Z24__sanitizer_cov_trace_pcv
	#APP
	#NO_APP
	movl	$.L.str.21.167, %esi
	movl	$3, %edx
	movq	%rbx, %rdi
	callq	strncmp
	movl	%eax, %ebp
	xorl	%edi, %edi
	movl	%ebp, %esi
	callq	_Z32__sanitizer_cov_trace_const_cmp4jj
	testl	%ebp, %ebp
.Ltmp312:
	.loc	18 132 13 is_stmt 0     # confutil.c:132:13
	je	.LBB14_18
.Ltmp313:
# %bb.21:                               # %if.else443
	#DEBUG_VALUE: get_locale_charset:codeset <- %rbx
	.loc	18 144 21 is_stmt 1     # confutil.c:144:21
	callq	_Z24__sanitizer_cov_trace_pcv
	#APP
	#NO_APP
	movq	%rbx, %rdi
	callq	__strdup
	movq	%rax, %r14
.Ltmp314:
	#DEBUG_VALUE: i <- %r14
	#DEBUG_VALUE: newstr <- %r14
	.loc	18 145 3                # confutil.c:145:3
	movzbl	(%r14), %ebp
	xorl	%edi, %edi
	movl	%ebp, %esi
	callq	_Z32__sanitizer_cov_trace_const_cmp1hh
	testl	%ebp, %ebp
	je	.LBB14_24
.Ltmp315:
# %bb.22:                               # %for.body.lr.ph
	#DEBUG_VALUE: newstr <- %r14
	#DEBUG_VALUE: i <- %r14
	#DEBUG_VALUE: get_locale_charset:codeset <- %rbx
	.loc	18 146 7                # confutil.c:146:7
	callq	_Z24__sanitizer_cov_trace_pcv
	#APP
	#NO_APP
	callq	__ctype_tolower_loc
	movq	%rax, %r15
.Ltmp316:
	.loc	18 145 3                # confutil.c:145:3
	movq	%r14, %rbx
.Ltmp317:
	addq	$1, %rbx
.Ltmp318:
	.p2align	4, 0x90
.LBB14_23:                              # %for.body
                                        # =>This Inner Loop Header: Depth=1
	#DEBUG_VALUE: newstr <- %r14
	#DEBUG_VALUE: i <- %r14
	.loc	18 144 9                # confutil.c:144:9
	callq	_Z24__sanitizer_cov_trace_pcv
	#APP
	#NO_APP
.Ltmp319:
	.loc	18 146 7                # confutil.c:146:7
	movq	(%r15), %rax
	movsbq	%bpl, %rcx
	movzbl	(%rax,%rcx,4), %eax
.Ltmp320:
	.loc	18 146 6 is_stmt 0      # confutil.c:146:6
	movb	%al, -1(%rbx)
.Ltmp321:
	.loc	18 145 3 is_stmt 1      # confutil.c:145:3
	movzbl	(%rbx), %ebp
	xorl	%edi, %edi
	movl	%ebp, %esi
	callq	_Z32__sanitizer_cov_trace_const_cmp1hh
	addq	$1, %rbx
	testl	%ebp, %ebp
	jne	.LBB14_23
.Ltmp322:
.LBB14_24:                              # %for.end
	#DEBUG_VALUE: newstr <- %r14
	#DEBUG_VALUE: i <- %r14
	.loc	18 148 7                # confutil.c:148:7
	callq	_Z24__sanitizer_cov_trace_pcv
	#APP
	#NO_APP
	movl	$dest_csname, %edi
	movq	%r14, %rsi
	callq	check_charset
	movl	%eax, %ebx
	xorl	%edi, %edi
	movl	%ebx, %esi
	callq	_Z32__sanitizer_cov_trace_const_cmp4jj
	testl	%ebx, %ebx
.Ltmp323:
	.loc	18 148 7 is_stmt 0      # confutil.c:148:7
	je	.LBB14_27
.Ltmp324:
# %bb.25:                               # %if.then455
	#DEBUG_VALUE: newstr <- %r14
	#DEBUG_VALUE: i <- %r14
	.loc	18 149 21 is_stmt 1     # confutil.c:149:21
	callq	_Z24__sanitizer_cov_trace_pcv
	#APP
	#NO_APP
	jmp	.LBB14_26
.Ltmp325:
.LBB14_4:                               # %if.then104
	#DEBUG_VALUE: get_locale_charset:codeset <- %rbx
	.loc	18 108 10               # confutil.c:108:10
	callq	_Z24__sanitizer_cov_trace_pcv
	#APP
	#NO_APP
	leaq	3(%rbx), %r14
.Ltmp326:
	#DEBUG_VALUE: get_locale_charset:codeset <- %r14
	.loc	18 109 15               # confutil.c:109:15
	movzbl	3(%rbx), %ebp
	movl	$45, %edi
	movl	%ebp, %esi
	callq	_Z32__sanitizer_cov_trace_const_cmp1hh
	.loc	18 109 29 is_stmt 0     # confutil.c:109:29
	addq	$4, %rbx
	.loc	18 109 15               # confutil.c:109:15
	cmpl	$45, %ebp
.Ltmp327:
	.loc	18 109 7                # confutil.c:109:7
	cmovneq	%r14, %rbx
.Ltmp328:
	#DEBUG_VALUE: get_locale_charset:codeset <- %rbx
	.loc	18 110 8 is_stmt 1      # confutil.c:110:8
	movl	$.L.str.15.161, %esi
	movl	$3, %edx
	movq	%rbx, %rdi
	callq	strncmp
	movl	%eax, %ebp
	xorl	%edi, %edi
	movl	%ebp, %esi
	callq	_Z32__sanitizer_cov_trace_const_cmp4jj
	testl	%ebp, %ebp
.Ltmp329:
	.loc	18 110 7 is_stmt 0      # confutil.c:110:7
	je	.LBB14_5
.Ltmp330:
# %bb.7:                                # %if.else
	#DEBUG_VALUE: get_locale_charset:codeset <- %rbx
	.loc	18 114 8 is_stmt 1      # confutil.c:114:8
	callq	_Z24__sanitizer_cov_trace_pcv
	#APP
	#NO_APP
	movl	$dest_csname, %edi
	movq	%rbx, %rsi
	callq	check_charset
	movl	%eax, %ebx
.Ltmp331:
	xorl	%edi, %edi
	movl	%ebx, %esi
	callq	_Z32__sanitizer_cov_trace_const_cmp4jj
	testl	%ebx, %ebx
.Ltmp332:
	.loc	18 114 8 is_stmt 0      # confutil.c:114:8
	je	.LBB14_27
# %bb.8:                                # %if.then171
.Ltmp333:
	.loc	18 115 22 is_stmt 1     # confutil.c:115:22
	callq	_Z24__sanitizer_cov_trace_pcv
	#APP
	#NO_APP
.Ltmp334:
.LBB14_26:                              # %cleanup
	.loc	18 0 22 is_stmt 0       # confutil.c:0:22
	movq	dest_csname(%rip), %rax
	movq	%rax, locale_charset(%rip)
	jmp	.LBB14_27
.LBB14_5:                               # %if.then167
.Ltmp335:
	#DEBUG_VALUE: get_locale_charset:codeset <- %rbx
	.loc	18 112 4 is_stmt 1      # confutil.c:112:4
	callq	_Z24__sanitizer_cov_trace_pcv
	#APP
	#NO_APP
	jmp	.LBB14_6
.Ltmp336:
.LBB14_13:                              # %if.then346
	#DEBUG_VALUE: get_locale_charset:codeset <- %rbx
	.loc	18 122 7                # confutil.c:122:7
	callq	_Z24__sanitizer_cov_trace_pcv
	#APP
	#NO_APP
	.loc	18 122 15 is_stmt 0     # confutil.c:122:15
	movzbl	(%rbx), %r14d
	movl	$45, %edi
	movl	%r14d, %esi
	callq	_Z32__sanitizer_cov_trace_const_cmp1hh
.Ltmp337:
	.loc	18 123 11 is_stmt 1     # confutil.c:123:11
	leaq	1(%rbx), %rbp
.Ltmp338:
	.loc	18 122 15               # confutil.c:122:15
	cmpl	$45, %r14d
.Ltmp339:
	.loc	18 122 7 is_stmt 0      # confutil.c:122:7
	cmovneq	%rbx, %rbp
.Ltmp340:
	#DEBUG_VALUE: get_locale_charset:codeset <- %rbp
	.loc	18 125 19 is_stmt 1     # confutil.c:125:19
	movq	%rbp, %rdi
	callq	strlen
	.loc	18 125 38 is_stmt 0     # confutil.c:125:38
	leaq	-1(%rax), %rdi
	.loc	18 125 12               # confutil.c:125:12
	callq	malloc
	movq	%rax, %rbx
.Ltmp341:
	#DEBUG_VALUE: newstr <- %rbx
	.loc	18 126 3 is_stmt 1      # confutil.c:126:3
	movb	$0, 2(%rbx)
	movw	$28771, (%rbx)          # imm = 0x7063
	leaq	2(%rbx), %rdi
	.loc	18 127 26               # confutil.c:127:26
	addq	$4, %rbp
.Ltmp342:
	.loc	18 127 3 is_stmt 0      # confutil.c:127:3
	movq	%rbp, %rsi
	callq	strcpy
.Ltmp343:
	.loc	18 128 7 is_stmt 1      # confutil.c:128:7
	movl	$dest_csname, %edi
	movq	%rbx, %rsi
	callq	check_charset
	movl	%eax, %ebp
	xorl	%edi, %edi
	movl	%ebp, %esi
	callq	_Z32__sanitizer_cov_trace_const_cmp4jj
	testl	%ebp, %ebp
.Ltmp344:
	.loc	18 128 7 is_stmt 0      # confutil.c:128:7
	je	.LBB14_15
.Ltmp345:
# %bb.14:                               # %if.then363
	#DEBUG_VALUE: newstr <- %rbx
	.loc	18 129 21 is_stmt 1     # confutil.c:129:21
	callq	_Z24__sanitizer_cov_trace_pcv
	#APP
	#NO_APP
	movq	dest_csname(%rip), %rax
	.loc	18 129 19 is_stmt 0     # confutil.c:129:19
	movq	%rax, locale_charset(%rip)
.Ltmp346:
.LBB14_15:                              # %if.end364
	#DEBUG_VALUE: newstr <- %rbx
	.loc	18 131 3 is_stmt 1      # confutil.c:131:3
	callq	_Z24__sanitizer_cov_trace_pcv
	#APP
	#NO_APP
.Ltmp347:
.LBB14_16:                              # %cleanup
	.loc	18 0 3 is_stmt 0        # confutil.c:0:3
	movq	%rbx, %rdi
	callq	free
	jmp	.LBB14_27
.LBB14_10:                              # %if.then228
.Ltmp348:
	#DEBUG_VALUE: get_locale_charset:codeset <- %rbx
	.loc	18 119 3 is_stmt 1      # confutil.c:119:3
	callq	_Z24__sanitizer_cov_trace_pcv
	#APP
	#NO_APP
.Ltmp349:
.LBB14_6:                               # %cleanup
	#DEBUG_VALUE: get_locale_charset:codeset <- %rbx
	.loc	18 0 3 is_stmt 0        # confutil.c:0:3
	movl	$dest_csname, %edi
	movl	$.L.str.16.162, %esi
	callq	check_charset
.Ltmp350:
.LBB14_27:                              # %cleanup
	.loc	18 153 1 is_stmt 1      # confutil.c:153:1
	callq	_Z24__sanitizer_cov_trace_pcv
	#APP
	#NO_APP
	addq	$8, %rsp
	popq	%rbx
	popq	%r14
	popq	%r15
	popq	%rbp
	retq
.LBB14_18:                              # %if.then423
.Ltmp351:
	#DEBUG_VALUE: get_locale_charset:codeset <- %rbx
	.loc	18 134 10               # confutil.c:134:10
	callq	_Z24__sanitizer_cov_trace_pcv
	#APP
	#NO_APP
.Ltmp352:
	#DEBUG_VALUE: get_locale_charset:codeset <- %rbp
	.loc	18 135 16               # confutil.c:135:16
	movzbl	3(%rbx), %r14d
	movl	$45, %edi
	movl	%r14d, %esi
	callq	_Z32__sanitizer_cov_trace_const_cmp1hh
.Ltmp353:
	.loc	18 134 10               # confutil.c:134:10
	leaq	3(%rbx), %rbp
.Ltmp354:
	#DEBUG_VALUE: get_locale_charset:codeset <- %rbp
	.loc	18 135 31               # confutil.c:135:31
	addq	$4, %rbx
	.loc	18 135 16 is_stmt 0     # confutil.c:135:16
	cmpl	$45, %r14d
.Ltmp355:
	.loc	18 135 7                # confutil.c:135:7
	cmoveq	%rbx, %rbp
.Ltmp356:
	#DEBUG_VALUE: get_locale_charset:codeset <- %rbp
	.loc	18 136 17 is_stmt 1     # confutil.c:136:17
	movq	%rbp, %rdi
	callq	strlen
	.loc	18 136 34 is_stmt 0     # confutil.c:136:34
	leaq	3(%rax), %rdi
	.loc	18 136 10               # confutil.c:136:10
	callq	malloc
	movq	%rax, %rbx
.Ltmp357:
	#DEBUG_VALUE: newstr <- %rbx
	.loc	18 137 3 is_stmt 1      # confutil.c:137:3
	movb	$0, 2(%rbx)
	movw	$28771, (%rbx)          # imm = 0x7063
	leaq	2(%rbx), %rdi
	.loc	18 138 3                # confutil.c:138:3
	movq	%rbp, %rsi
	callq	strcpy
.Ltmp358:
	.loc	18 139 7                # confutil.c:139:7
	movl	$dest_csname, %edi
	movq	%rbx, %rsi
	callq	check_charset
	movl	%eax, %ebp
.Ltmp359:
	xorl	%edi, %edi
	movl	%ebp, %esi
	callq	_Z32__sanitizer_cov_trace_const_cmp4jj
	testl	%ebp, %ebp
.Ltmp360:
	.loc	18 139 7 is_stmt 0      # confutil.c:139:7
	je	.LBB14_20
.Ltmp361:
# %bb.19:                               # %if.then441
	#DEBUG_VALUE: newstr <- %rbx
	.loc	18 140 19 is_stmt 1     # confutil.c:140:19
	callq	_Z24__sanitizer_cov_trace_pcv
	#APP
	#NO_APP
	movq	dest_csname(%rip), %rax
	.loc	18 140 18 is_stmt 0     # confutil.c:140:18
	movq	%rax, locale_charset(%rip)
.Ltmp362:
.LBB14_20:                              # %if.end442
	#DEBUG_VALUE: newstr <- %rbx
	.loc	18 142 3 is_stmt 1      # confutil.c:142:3
	callq	_Z24__sanitizer_cov_trace_pcv
	#APP
	#NO_APP
	jmp	.LBB14_16
.Ltmp363:
.Lfunc_end14:
	.size	get_locale_charset, .Lfunc_end14-get_locale_charset
	.cfi_endproc
                                        # -- End function
	.globl	check_charset           # -- Begin function check_charset
	.p2align	4, 0x90
	.type	check_charset,@function
check_charset:                          # @check_charset
.Lfunc_begin15:
	.loc	21 100 0                # fileutil.c:100:0
	.cfi_startproc
# %bb.0:                                # %entry
	pushq	%rbp
	.cfi_def_cfa_offset 16
	pushq	%r15
	.cfi_def_cfa_offset 24
	pushq	%r14
	.cfi_def_cfa_offset 32
	pushq	%r12
	.cfi_def_cfa_offset 40
	pushq	%rbx
	.cfi_def_cfa_offset 48
	.cfi_offset %rbx, -48
	.cfi_offset %r12, -40
	.cfi_offset %r14, -32
	.cfi_offset %r15, -24
	.cfi_offset %rbp, -16
	#DEBUG_VALUE: check_charset:filename <- %rdi
	#DEBUG_VALUE: check_charset:charset <- %rsi
	movq	%rsi, %rbx
	movq	%rdi, %r14
.Ltmp364:
	#DEBUG_VALUE: check_charset:charset <- %rbx
	#DEBUG_VALUE: check_charset:filename <- %r14
	.loc	21 100 26 prologue_end  # fileutil.c:100:26
	callq	_Z24__sanitizer_cov_trace_pcv
	#APP
	#NO_APP
.Ltmp365:
	.loc	21 102 14               # fileutil.c:102:14
	testq	%rbx, %rbx
.Ltmp366:
	.loc	21 102 6 is_stmt 0      # fileutil.c:102:6
	je	.LBB15_1
.Ltmp367:
# %bb.2:                                # %cond.end
	#DEBUG_VALUE: check_charset:filename <- %r14
	#DEBUG_VALUE: check_charset:charset <- %rbx
	.loc	21 105 7 is_stmt 1      # fileutil.c:105:7
	callq	_Z24__sanitizer_cov_trace_pcv
.Ltmp368:
	#DEBUG_VALUE: __s2_len <- 5
	#APP
	#NO_APP
	movl	$.L.str.1.130, %esi
	movq	%rbx, %rdi
	callq	_Z28__sanitizer_cov_trace_strcmpPmS_
	movl	$.L.str.1.130, %esi
	movq	%rbx, %rdi
	callq	strcmp
	movl	%eax, %ebp
.Ltmp369:
	.loc	21 105 7 is_stmt 0      # fileutil.c:105:7
	xorl	%r12d, %r12d
	xorl	%edi, %edi
	movl	%ebp, %esi
	callq	_Z32__sanitizer_cov_trace_const_cmp4jj
	testl	%ebp, %ebp
	je	.LBB15_3
.Ltmp370:
# %bb.6:                                # %if.end62
	#DEBUG_VALUE: check_charset:filename <- %r14
	#DEBUG_VALUE: check_charset:charset <- %rbx
	.loc	21 109 20 is_stmt 1     # fileutil.c:109:20
	callq	_Z24__sanitizer_cov_trace_pcv
	#APP
	#NO_APP
	movl	$.L.str.2.131, %esi
	movq	%rbx, %rdi
	callq	stradd
	.loc	21 109 48 is_stmt 0     # fileutil.c:109:48
	movq	charset_path(%rip), %rsi
	.loc	21 109 10               # fileutil.c:109:10
	movq	%rax, %rdi
	callq	find_file
	movq	%rax, %r15
.Ltmp371:
	#DEBUG_VALUE: check_charset:tmppath <- %r15
	.loc	21 110 6 is_stmt 1      # fileutil.c:110:6
	testq	%r15, %r15
	.loc	21 110 14 is_stmt 0     # fileutil.c:110:14
	je	.LBB15_10
.Ltmp372:
# %bb.7:                                # %land.lhs.true66
	#DEBUG_VALUE: check_charset:tmppath <- %r15
	#DEBUG_VALUE: check_charset:filename <- %r14
	#DEBUG_VALUE: check_charset:charset <- %rbx
	.loc	21 110 17               # fileutil.c:110:17
	callq	_Z24__sanitizer_cov_trace_pcv
	#APP
	#NO_APP
	movzbl	(%r15), %ebp
	xorl	%r12d, %r12d
	xorl	%edi, %edi
	movl	%ebp, %esi
	callq	_Z32__sanitizer_cov_trace_const_cmp1hh
	testl	%ebp, %ebp
.Ltmp373:
	.loc	21 110 6                # fileutil.c:110:6
	je	.LBB15_10
.Ltmp374:
# %bb.8:                                # %if.then69
	#DEBUG_VALUE: check_charset:tmppath <- %r15
	#DEBUG_VALUE: check_charset:filename <- %r14
	#DEBUG_VALUE: check_charset:charset <- %rbx
	.loc	21 111 14 is_stmt 1     # fileutil.c:111:14
	callq	_Z24__sanitizer_cov_trace_pcv
	#APP
	#NO_APP
	movq	%rbx, %rdi
	callq	__strdup
	.loc	21 111 13 is_stmt 0     # fileutil.c:111:13
	movq	%rax, (%r14)
	.loc	21 112 4 is_stmt 1      # fileutil.c:112:4
	movq	%r15, %rdi
	callq	free
	jmp	.LBB15_9
.Ltmp375:
.LBB15_1:
	#DEBUG_VALUE: check_charset:filename <- %r14
	#DEBUG_VALUE: check_charset:charset <- %rbx
	.loc	21 0 4 is_stmt 0        # fileutil.c:0:4
	xorl	%r12d, %r12d
	jmp	.LBB15_10
.Ltmp376:
.LBB15_3:                               # %cond.false49
	#DEBUG_VALUE: check_charset:filename <- %r14
	#DEBUG_VALUE: check_charset:charset <- %rbx
	.loc	21 106 13 is_stmt 1     # fileutil.c:106:13
	callq	_Z24__sanitizer_cov_trace_pcv
	#APP
	#NO_APP
.Ltmp377:
	#DEBUG_VALUE: __len <- 6
	movl	$6, %edi
	callq	malloc
	movq	%rax, %rbx
.Ltmp378:
	#DEBUG_VALUE: __retval <- %rbx
	.loc	21 106 13 is_stmt 0     # fileutil.c:106:13
	testq	%rbx, %rbx
.Ltmp379:
	.loc	21 106 13               # fileutil.c:106:13
	je	.LBB15_5
.Ltmp380:
# %bb.4:                                # %if.then53
	#DEBUG_VALUE: __retval <- %rbx
	#DEBUG_VALUE: check_charset:filename <- %r14
	.loc	21 106 13               # fileutil.c:106:13
	callq	_Z24__sanitizer_cov_trace_pcv
	#APP
	#NO_APP
	movw	$56, 4(%rbx)
	movl	$761689205, (%rbx)      # imm = 0x2D667475
.Ltmp381:
.LBB15_5:                               # %cond.end60
	#DEBUG_VALUE: __retval <- %rbx
	#DEBUG_VALUE: check_charset:filename <- %r14
	.loc	21 106 13               # fileutil.c:106:13
	callq	_Z24__sanitizer_cov_trace_pcv
	#APP
	#NO_APP
.Ltmp382:
	.loc	21 106 12               # fileutil.c:106:12
	movq	%rbx, (%r14)
.Ltmp383:
.LBB15_9:                               # %cleanup
	#DEBUG_VALUE: check_charset:filename <- %r14
	.loc	21 0 12                 # fileutil.c:0:12
	movl	$1, %r12d
.Ltmp384:
.LBB15_10:                              # %cleanup
	#DEBUG_VALUE: check_charset:filename <- %r14
	.loc	21 116 1 is_stmt 1      # fileutil.c:116:1
	callq	_Z24__sanitizer_cov_trace_pcv
	#APP
	#NO_APP
	movl	%r12d, %eax
	popq	%rbx
	popq	%r12
	popq	%r14
.Ltmp385:
	popq	%r15
	popq	%rbp
	retq
.Ltmp386:
.Lfunc_end15:
	.size	check_charset, .Lfunc_end15-check_charset
	.cfi_endproc
                                        # -- End function
	.globl	get_word8_char          # -- Begin function get_word8_char
	.p2align	4, 0x90
	.type	get_word8_char,@function
get_word8_char:                         # @get_word8_char
.Lfunc_begin16:
	.loc	6 194 0                 # reader.c:194:0
	.cfi_startproc
# %bb.0:                                # %entry
	pushq	%rbp
	.cfi_def_cfa_offset 16
	pushq	%r15
	.cfi_def_cfa_offset 24
	pushq	%r14
	.cfi_def_cfa_offset 32
	pushq	%r13
	.cfi_def_cfa_offset 40
	pushq	%r12
	.cfi_def_cfa_offset 48
	pushq	%rbx
	.cfi_def_cfa_offset 56
	pushq	%rax
	.cfi_def_cfa_offset 64
	.cfi_offset %rbx, -56
	.cfi_offset %r12, -48
	.cfi_offset %r13, -40
	.cfi_offset %r14, -32
	.cfi_offset %r15, -24
	.cfi_offset %rbp, -16
	#DEBUG_VALUE: get_word8_char:f <- %rdi
	#DEBUG_VALUE: get_word8_char:offset <- %rsi
	#DEBUG_VALUE: get_word8_char:fileend <- %rdx
	movq	%rdx, %r13
	movq	%rsi, %rbp
	movq	%rdi, %rbx
.Ltmp387:
	#DEBUG_VALUE: get_word8_char:fileend <- %r13
	#DEBUG_VALUE: get_word8_char:offset <- %rbp
	#DEBUG_VALUE: get_word8_char:f <- %rbx
	.loc	6 194 26 prologue_end   # reader.c:194:26
	callq	_Z24__sanitizer_cov_trace_pcv
	#APP
	#NO_APP
.Ltmp388:
	.loc	6 197 10                # reader.c:197:10
	movq	(%rbp), %r14
	.loc	6 197 18 is_stmt 0      # reader.c:197:18
	movq	%r14, %rax
	sarq	$63, %rax
	shrq	$56, %rax
	addq	%r14, %rax
	andq	$-256, %rax
	movq	%r14, %r15
	subq	%rax, %r15
.Ltmp389:
	#DEBUG_VALUE: get_word8_char:i <- %r15d
	.loc	6 197 24                # reader.c:197:24
	xorl	%edi, %edi
	movl	%r15d, %esi
	callq	_Z32__sanitizer_cov_trace_const_cmp4jj
	testl	%r15d, %r15d
.Ltmp390:
	.loc	6 197 6                 # reader.c:197:6
	je	.LBB16_1
.Ltmp391:
# %bb.13:                               # %if.end35
	#DEBUG_VALUE: get_word8_char:i <- %r15d
	#DEBUG_VALUE: get_word8_char:f <- %rbx
	#DEBUG_VALUE: get_word8_char:offset <- %rbp
	#DEBUG_VALUE: get_word8_char:fileend <- %r13
	.loc	6 0 6                   # reader.c:0:6
	callq	_Z24__sanitizer_cov_trace_pcv
	#APP
	#NO_APP
	.loc	6 214 6 is_stmt 1       # reader.c:214:6
	cmpb	$1, buf_is_unicode(%rip)
	jne	.LBB16_3
	jmp	.LBB16_14
.Ltmp392:
.LBB16_1:                               # %if.then
	#DEBUG_VALUE: get_word8_char:i <- %r15d
	#DEBUG_VALUE: get_word8_char:f <- %rbx
	#DEBUG_VALUE: get_word8_char:offset <- %rbp
	#DEBUG_VALUE: get_word8_char:fileend <- %r13
	.loc	6 198 9                 # reader.c:198:9
	callq	_Z24__sanitizer_cov_trace_pcv
	#APP
	#NO_APP
	movl	$read_buf, %edi
	movl	$1, %esi
	movl	$256, %edx              # imm = 0x100
	movq	%rbx, %rcx
	callq	*catdoc_read(%rip)
	movq	%rax, %r12
	.loc	6 199 18                # reader.c:199:18
	shlq	$32, %rax
	movslq	%r12d, %rbx
.Ltmp393:
	leaq	read_buf(%rbx), %rdi
	.loc	6 199 27 is_stmt 0      # reader.c:199:27
	movabsq	$1099511627776, %rdx    # imm = 0x10000000000
	subq	%rax, %rdx
	sarq	$32, %rdx
	xorl	%r15d, %r15d
.Ltmp394:
	.loc	6 199 3                 # reader.c:199:3
	xorl	%esi, %esi
	callq	memset
	movb	$0, buf_is_unicode(%rip)
	movq	%rbp, (%rsp)            # 8-byte Spill
.Ltmp395:
	.loc	6 201 7 is_stmt 1       # reader.c:201:7
	movq	(%rbp), %r14
	.loc	6 201 14 is_stmt 0      # reader.c:201:14
	addq	%r14, %rbx
	.loc	6 201 26                # reader.c:201:26
	movq	%rbx, %rdi
	movq	%r13, %rsi
	callq	_Z26__sanitizer_cov_trace_cmp8mm
	movq	%r13, %rax
.Ltmp396:
	.loc	6 202 17 is_stmt 1      # reader.c:202:17
	subq	%r14, %r13
.Ltmp397:
	.loc	6 201 26                # reader.c:201:26
	cmpq	%rax, %rbx
.Ltmp398:
	.loc	6 201 7 is_stmt 0       # reader.c:201:7
	cmovleq	%r12, %r13
.Ltmp399:
	#DEBUG_VALUE: get_word8_char:count <- %r13d
	#DEBUG_VALUE: get_word8_char:i <- 0
	.loc	6 204 11 is_stmt 1      # reader.c:204:11
	xorl	%edi, %edi
	movl	%r13d, %esi
	callq	_Z32__sanitizer_cov_trace_const_cmp4jj
	testl	%r13d, %r13d
	.loc	6 204 3 is_stmt 0       # reader.c:204:3
	jle	.LBB16_2
.Ltmp400:
# %bb.4:                                # %while.body.lr.ph
	#DEBUG_VALUE: get_word8_char:count <- %r13d
	#DEBUG_VALUE: get_word8_char:offset <- %rbp
	callq	_Z24__sanitizer_cov_trace_pcv
	#APP
	#NO_APP
	movslq	%r13d, %r12
	movl	$1, %ebx
	xorl	%r15d, %r15d
.Ltmp401:
	.p2align	4, 0x90
.LBB16_5:                               # %while.body
                                        # =>This Inner Loop Header: Depth=1
	#DEBUG_VALUE: get_word8_char:count <- %r13d
	#DEBUG_VALUE: get_word8_char:offset <- %rbp
	.loc	6 195 12 is_stmt 1      # reader.c:195:12
	callq	_Z24__sanitizer_cov_trace_pcv
	#APP
	#NO_APP
.Ltmp402:
	#DEBUG_VALUE: get_word8_char:c <- %bpl
	.loc	6 206 16                # reader.c:206:16
	movzbl	read_buf-1(%rbx), %ebp
.Ltmp403:
	#DEBUG_VALUE: get_word8_char:c <- %bpl
	movl	$__sancov_gen_cov_switch_values.2, %esi
	movq	%rbp, %rdi
	callq	_Z28__sanitizer_cov_trace_switchmPm
	cmpq	$13, %rbp
	je	.LBB16_10
.Ltmp404:
# %bb.6:                                # %while.body
                                        #   in Loop: Header=BB16_5 Depth=1
	#DEBUG_VALUE: get_word8_char:c <- %bpl
	#DEBUG_VALUE: get_word8_char:count <- %r13d
	cmpb	$32, %bpl
	jne	.LBB16_7
.Ltmp405:
.LBB16_10:                              # %land.lhs.true
                                        #   in Loop: Header=BB16_5 Depth=1
	#DEBUG_VALUE: get_word8_char:c <- %bpl
	#DEBUG_VALUE: get_word8_char:count <- %r13d
	.loc	6 206 42 is_stmt 0      # reader.c:206:42
	callq	_Z24__sanitizer_cov_trace_pcv
	#APP
	#NO_APP
	movq	%rbx, %rdi
	movq	%r12, %rsi
	callq	_Z26__sanitizer_cov_trace_cmp8mm
	cmpq	%r12, %rbx
	.loc	6 206 48                # reader.c:206:48
	jl	.LBB16_11
	jmp	.LBB16_9
.Ltmp406:
	.p2align	4, 0x90
.LBB16_7:                               # %lor.lhs.false18
                                        #   in Loop: Header=BB16_5 Depth=1
	#DEBUG_VALUE: get_word8_char:c <- %bpl
	#DEBUG_VALUE: get_word8_char:count <- %r13d
	.loc	6 0 48                  # reader.c:0:48
	movsbq	%bpl, %rbp
.Ltmp407:
	.loc	6 206 28                # reader.c:206:28
	callq	_Z24__sanitizer_cov_trace_pcv
	#APP
	#NO_APP
	callq	__ctype_b_loc
	movq	(%rax), %rax
	movzwl	(%rax,%rbp,2), %ebp
	andl	$4, %ebp
	xorl	%edi, %edi
	movl	%ebp, %esi
	callq	_Z32__sanitizer_cov_trace_const_cmp2tt
	.loc	6 206 42                # reader.c:206:42
	movq	%rbx, %rdi
	movq	%r12, %rsi
	callq	_Z26__sanitizer_cov_trace_cmp8mm
	cmpq	%r12, %rbx
	.loc	6 206 39                # reader.c:206:39
	jge	.LBB16_9
.Ltmp408:
# %bb.8:                                # %lor.lhs.false18
                                        #   in Loop: Header=BB16_5 Depth=1
	#DEBUG_VALUE: get_word8_char:count <- %r13d
	testw	%bp, %bp
	je	.LBB16_9
.Ltmp409:
.LBB16_11:                              # %land.lhs.true26
                                        #   in Loop: Header=BB16_5 Depth=1
	#DEBUG_VALUE: get_word8_char:count <- %r13d
	.loc	6 206 50                # reader.c:206:50
	callq	_Z24__sanitizer_cov_trace_pcv
	#APP
	#NO_APP
	.loc	6 206 61                # reader.c:206:61
	movzbl	read_buf(%rbx), %ebp
	xorl	%edi, %edi
	movl	%ebp, %esi
	callq	_Z32__sanitizer_cov_trace_const_cmp1hh
	testl	%ebp, %ebp
.Ltmp410:
	.loc	6 206 8                 # reader.c:206:8
	je	.LBB16_12
.Ltmp411:
.LBB16_9:                               # %if.end33
                                        #   in Loop: Header=BB16_5 Depth=1
	#DEBUG_VALUE: get_word8_char:count <- %r13d
	.loc	6 210 5 is_stmt 1       # reader.c:210:5
	callq	_Z24__sanitizer_cov_trace_pcv
	#APP
	#NO_APP
.Ltmp412:
	.loc	6 204 11                # reader.c:204:11
	leal	1(%rbx), %edi
	movl	%r13d, %esi
	callq	_Z26__sanitizer_cov_trace_cmp4jj
	addq	$2, %rbx
	leal	-1(%rbx), %eax
	cmpl	%r13d, %eax
	.loc	6 204 3 is_stmt 0       # reader.c:204:3
	jl	.LBB16_5
.Ltmp413:
.LBB16_2:
	#DEBUG_VALUE: get_word8_char:count <- %r13d
	.loc	6 0 3                   # reader.c:0:3
	movq	(%rsp), %rbp            # 8-byte Reload
.Ltmp414:
.LBB16_3:                               # %if.else
	.loc	6 218 16 is_stmt 1      # reader.c:218:16
	callq	_Z24__sanitizer_cov_trace_pcv
	#APP
	#NO_APP
	movq	source_charset(%rip), %rdi
	.loc	6 218 31 is_stmt 0      # reader.c:218:31
	movzbl	read_buf(%r15), %esi
	.loc	6 218 5                 # reader.c:218:5
	callq	to_unicode
	movl	%eax, %ebx
.Ltmp415:
	#DEBUG_VALUE: get_word8_char:u <- %ebx
	.loc	6 219 12 is_stmt 1      # reader.c:219:12
	movq	(%rbp), %r14
	addq	$1, %r14
	jmp	.LBB16_15
.Ltmp416:
.LBB16_12:                              # %if.end35.thread
	#DEBUG_VALUE: get_word8_char:count <- %r13d
	.loc	6 0 12 is_stmt 0        # reader.c:0:12
	callq	_Z24__sanitizer_cov_trace_pcv
	#APP
	#NO_APP
	movb	$1, buf_is_unicode(%rip)
	xorl	%r15d, %r15d
	movq	(%rsp), %rbp            # 8-byte Reload
.Ltmp417:
.LBB16_14:                              # %if.then37
	.loc	6 215 5 is_stmt 1       # reader.c:215:5
	callq	_Z24__sanitizer_cov_trace_pcv
	#APP
	#NO_APP
	movslq	%r15d, %rax
	movzbl	read_buf(%rax), %ecx
	.loc	6 215 19 is_stmt 0      # reader.c:215:19
	movzbl	read_buf+1(%rax), %ebx
	.loc	6 215 32                # reader.c:215:32
	shll	$8, %ebx
	.loc	6 215 17                # reader.c:215:17
	orl	%ecx, %ebx
.Ltmp418:
	#DEBUG_VALUE: get_word8_char:u <- %ebx
	.loc	6 216 12 is_stmt 1      # reader.c:216:12
	addq	$2, %r14
.Ltmp419:
.LBB16_15:                              # %if.end51
	#DEBUG_VALUE: get_word8_char:u <- %ebx
	#DEBUG_VALUE: get_word8_char:u <- %ebx
	.loc	6 0 12 is_stmt 0        # reader.c:0:12
	callq	_Z24__sanitizer_cov_trace_pcv
	#APP
	#NO_APP
	movq	%r14, (%rbp)
	.loc	6 221 2 is_stmt 1       # reader.c:221:2
	movl	%ebx, %eax
	addq	$8, %rsp
	popq	%rbx
.Ltmp420:
	popq	%r12
	popq	%r13
	popq	%r14
	popq	%r15
	popq	%rbp
	retq
.Ltmp421:
.Lfunc_end16:
	.size	get_word8_char, .Lfunc_end16-get_word8_char
	.cfi_endproc
                                        # -- End function
	.globl	get_8bit_char           # -- Begin function get_8bit_char
	.p2align	4, 0x90
	.type	get_8bit_char,@function
get_8bit_char:                          # @get_8bit_char
.Lfunc_begin17:
	.loc	12 120 0                # charsets.c:120:0
	.cfi_startproc
# %bb.0:                                # %entry
	pushq	%r14
	.cfi_def_cfa_offset 16
	pushq	%rbx
	.cfi_def_cfa_offset 24
	pushq	%rax
	.cfi_def_cfa_offset 32
	.cfi_offset %rbx, -24
	.cfi_offset %r14, -16
	#DEBUG_VALUE: get_8bit_char:f <- %rdi
	#DEBUG_VALUE: get_8bit_char:offset <- %rsi
	#DEBUG_VALUE: get_8bit_char:fileend <- %rdx
	movq	%rsi, %r14
	movq	%rdi, %rbx
	callq	_Z24__sanitizer_cov_trace_pcv
.Ltmp422:
	#APP
	#NO_APP
.Ltmp423:
	#DEBUG_VALUE: get_8bit_char:offset <- %r14
	#DEBUG_VALUE: get_8bit_char:f <- %rbx
	leaq	7(%rsp), %rdi
.Ltmp424:
	#DEBUG_VALUE: get_8bit_char:buf <- [DW_OP_plus_uconst 7] [%rsp+0]
	.loc	12 122 6 prologue_end   # charsets.c:122:6
	movl	$1, %esi
	movl	$1, %edx
	movq	%rbx, %rcx
.Ltmp425:
	#DEBUG_VALUE: get_8bit_char:f <- %rcx
	callq	*catdoc_read(%rip)
.Ltmp426:
	movq	%rax, %rbx
	.loc	12 122 32 is_stmt 0     # charsets.c:122:32
	xorl	%edi, %edi
	movq	%rbx, %rsi
	callq	_Z32__sanitizer_cov_trace_const_cmp8mm
	testq	%rbx, %rbx
.Ltmp427:
	.loc	12 122 6                # charsets.c:122:6
	je	.LBB17_1
.Ltmp428:
# %bb.2:                                # %if.end
	#DEBUG_VALUE: get_8bit_char:buf <- [DW_OP_plus_uconst 7] [%rsp+0]
	#DEBUG_VALUE: get_8bit_char:offset <- %r14
	.loc	12 123 11 is_stmt 1     # charsets.c:123:11
	callq	_Z24__sanitizer_cov_trace_pcv
	#APP
	#NO_APP
	addq	$1, (%r14)
	.loc	12 124 20               # charsets.c:124:20
	movq	source_charset(%rip), %rax
.Ltmp429:
	#DEBUG_VALUE: to_unicode:charset <- %rax
	.loc	12 26 9                 # charsets.c:26:9
	movzbl	7(%rsp), %ecx
	movzwl	(%rax,%rcx,2), %ebx
	jmp	.LBB17_3
.Ltmp430:
.LBB17_1:
	#DEBUG_VALUE: get_8bit_char:buf <- [DW_OP_plus_uconst 7] [%rsp+0]
	#DEBUG_VALUE: get_8bit_char:offset <- %r14
	.loc	12 0 9 is_stmt 0        # charsets.c:0:9
	movl	$-1, %ebx
.Ltmp431:
.LBB17_3:                               # %cleanup
	#DEBUG_VALUE: get_8bit_char:buf <- [DW_OP_plus_uconst 7] [%rsp+0]
	#DEBUG_VALUE: get_8bit_char:offset <- %r14
	.loc	12 121 16 is_stmt 1     # charsets.c:121:16
	callq	_Z24__sanitizer_cov_trace_pcv
	#APP
	#NO_APP
	.loc	12 125 1                # charsets.c:125:1
	movl	%ebx, %eax
	addq	$8, %rsp
.Ltmp432:
	popq	%rbx
	popq	%r14
.Ltmp433:
	retq
.Ltmp434:
.Lfunc_end17:
	.size	get_8bit_char, .Lfunc_end17-get_8bit_char
	.cfi_endproc
                                        # -- End function
	.globl	list_charsets           # -- Begin function list_charsets
	.p2align	4, 0x90
	.type	list_charsets,@function
list_charsets:                          # @list_charsets
.Lfunc_begin18:
	.loc	21 177 0                # fileutil.c:177:0
	.cfi_startproc
# %bb.0:                                # %entry
	pushq	%rbp
	.cfi_def_cfa_offset 16
	pushq	%r15
	.cfi_def_cfa_offset 24
	pushq	%r14
	.cfi_def_cfa_offset 32
	pushq	%r13
	.cfi_def_cfa_offset 40
	pushq	%r12
	.cfi_def_cfa_offset 48
	pushq	%rbx
	.cfi_def_cfa_offset 56
	subq	$1128, %rsp             # imm = 0x468
	.cfi_def_cfa_offset 1184
	.cfi_offset %rbx, -56
	.cfi_offset %r12, -48
	.cfi_offset %r13, -40
	.cfi_offset %r14, -32
	.cfi_offset %r15, -24
	.cfi_offset %rbp, -16
	callq	_Z24__sanitizer_cov_trace_pcv
	#APP
	#NO_APP
.Ltmp435:
	#DEBUG_VALUE: list_charsets:dir_sep <- 47
	.loc	21 190 2 prologue_end   # fileutil.c:190:2
	xorps	%xmm0, %xmm0
	movaps	%xmm0, 64(%rsp)
	movaps	%xmm0, 48(%rsp)
	movaps	%xmm0, 32(%rsp)
	movaps	%xmm0, 16(%rsp)
	.loc	21 181 7                # fileutil.c:181:7
	movw	$47, 14(%rsp)
.Ltmp436:
	#DEBUG_VALUE: list_charsets:glob_flags <- 1
	.loc	21 190 2                # fileutil.c:190:2
	movq	$0, 80(%rsp)
.Ltmp437:
	.loc	21 192 9                # fileutil.c:192:9
	movq	charset_path(%rip), %rbx
.Ltmp438:
	#DEBUG_VALUE: list_charsets:p <- %rbx
	.loc	21 192 2 is_stmt 0      # fileutil.c:192:2
	testq	%rbx, %rbx
	je	.LBB18_15
.Ltmp439:
# %bb.1:                                # %for.body.lr.ph
	#DEBUG_VALUE: list_charsets:p <- %rbx
	.loc	21 0 2                  # fileutil.c:0:2
	callq	_Z24__sanitizer_cov_trace_pcv
	#APP
	#NO_APP
	movl	$1, %r12d
	leaq	96(%rsp), %r13
	jmp	.LBB18_3
.Ltmp440:
	.p2align	4, 0x90
.LBB18_2:                               # %for.cond.backedge
                                        #   in Loop: Header=BB18_3 Depth=1
	#DEBUG_VALUE: list_charsets:q <- %r14
	.loc	21 192 31               # fileutil.c:192:31
	callq	_Z24__sanitizer_cov_trace_pcv
	#APP
	#NO_APP
	addq	$1, %r14
.Ltmp441:
	#DEBUG_VALUE: list_charsets:p <- %r14
	.loc	21 0 31                 # fileutil.c:0:31
	movq	%r14, %rbx
.Ltmp442:
	#DEBUG_VALUE: list_charsets:p <- %rbx
.LBB18_3:                               # %for.body
                                        # =>This Inner Loop Header: Depth=1
	#DEBUG_VALUE: list_charsets:p <- %rbx
	.loc	21 178 14 is_stmt 1     # fileutil.c:178:14
	callq	_Z24__sanitizer_cov_trace_pcv
	#APP
	#NO_APP
	#DEBUG_VALUE: list_charsets:p <- %rbx
.Ltmp443:
	.loc	21 193 5                # fileutil.c:193:5
	movl	$58, %esi
	movq	%rbx, %rdi
	callq	strchr
	movq	%rax, %r14
.Ltmp444:
	#DEBUG_VALUE: list_charsets:q <- %r14
	.loc	21 194 7                # fileutil.c:194:7
	testq	%r14, %r14
.Ltmp445:
	.loc	21 194 7 is_stmt 0      # fileutil.c:194:7
	je	.LBB18_6
.Ltmp446:
# %bb.4:                                # %if.then
                                        #   in Loop: Header=BB18_3 Depth=1
	#DEBUG_VALUE: list_charsets:q <- %r14
	#DEBUG_VALUE: list_charsets:p <- %rbx
	.loc	21 195 9 is_stmt 1      # fileutil.c:195:9
	callq	_Z24__sanitizer_cov_trace_pcv
	#APP
	#NO_APP
	movq	%r14, %r15
	subq	%rbx, %r15
	.loc	21 195 11 is_stmt 0     # fileutil.c:195:11
	movl	$1023, %edi             # imm = 0x3FF
	movq	%r15, %rsi
	callq	_Z32__sanitizer_cov_trace_const_cmp8mm
	cmpq	$1023, %r15             # imm = 0x3FF
.Ltmp447:
	.loc	21 195 8                # fileutil.c:195:8
	jg	.LBB18_2
.Ltmp448:
# %bb.5:                                # %if.end
                                        #   in Loop: Header=BB18_3 Depth=1
	#DEBUG_VALUE: list_charsets:q <- %r14
	#DEBUG_VALUE: list_charsets:p <- %rbx
	.loc	21 199 4 is_stmt 1      # fileutil.c:199:4
	callq	_Z24__sanitizer_cov_trace_pcv
	#APP
	#NO_APP
	movq	%r13, %rdi
	movq	%rbx, %rsi
	movq	%r15, %rdx
	callq	strncpy
	.loc	21 200 17               # fileutil.c:200:17
	movb	$0, 96(%rsp,%r15)
	jmp	.LBB18_8
.Ltmp449:
	.p2align	4, 0x90
.LBB18_6:                               # %if.else
                                        #   in Loop: Header=BB18_3 Depth=1
	#DEBUG_VALUE: list_charsets:q <- %r14
	#DEBUG_VALUE: list_charsets:p <- %rbx
	.loc	21 202 8                # fileutil.c:202:8
	callq	_Z24__sanitizer_cov_trace_pcv
	#APP
	#NO_APP
	movq	%rbx, %rdi
	callq	strlen
	movq	%rax, %rbp
	.loc	21 202 17 is_stmt 0     # fileutil.c:202:17
	movl	$1023, %edi             # imm = 0x3FF
	movq	%rbp, %rsi
	callq	_Z32__sanitizer_cov_trace_const_cmp8mm
	cmpq	$1023, %rbp             # imm = 0x3FF
.Ltmp450:
	.loc	21 202 8                # fileutil.c:202:8
	ja	.LBB18_15
.Ltmp451:
# %bb.7:                                # %if.end13
                                        #   in Loop: Header=BB18_3 Depth=1
	#DEBUG_VALUE: list_charsets:q <- %r14
	#DEBUG_VALUE: list_charsets:p <- %rbx
	.loc	21 203 4 is_stmt 1      # fileutil.c:203:4
	callq	_Z24__sanitizer_cov_trace_pcv
	#APP
	#NO_APP
	movq	%r13, %rdi
	movq	%rbx, %rsi
	callq	strcpy
.Ltmp452:
.LBB18_8:                               # %if.end16
                                        #   in Loop: Header=BB18_3 Depth=1
	#DEBUG_VALUE: list_charsets:q <- %r14
	#DEBUG_VALUE: list_charsets:p <- %rbx
	.loc	21 206 8                # fileutil.c:206:8
	callq	_Z24__sanitizer_cov_trace_pcv
	#APP
	#NO_APP
	movzbl	96(%rsp), %ebx
.Ltmp453:
	xorl	%edi, %edi
	movl	%ebx, %esi
	callq	_Z32__sanitizer_cov_trace_const_cmp1hh
	testl	%ebx, %ebx
.Ltmp454:
	.loc	21 206 7 is_stmt 0      # fileutil.c:206:7
	jne	.LBB18_10
.Ltmp455:
# %bb.9:                                # %if.then19
                                        #   in Loop: Header=BB18_3 Depth=1
	#DEBUG_VALUE: list_charsets:q <- %r14
	.loc	21 207 15 is_stmt 1     # fileutil.c:207:15
	callq	_Z24__sanitizer_cov_trace_pcv
	#APP
	#NO_APP
	movw	$46, 96(%rsp)
.Ltmp456:
.LBB18_10:                              # %if.end22
                                        #   in Loop: Header=BB18_3 Depth=1
	#DEBUG_VALUE: list_charsets:q <- %r14
	.loc	21 215 3                # fileutil.c:215:3
	callq	_Z24__sanitizer_cov_trace_pcv
	#APP
	#NO_APP
	movq	%r13, %rdi
	leaq	14(%rsp), %rsi
	callq	strcat
.Ltmp457:
	.loc	21 216 7                # fileutil.c:216:7
	movq	%r13, %rdi
	callq	strlen
	movq	%rax, %rbx
	.loc	21 216 23 is_stmt 0     # fileutil.c:216:23
	addq	$6, %rbx
	.loc	21 216 25               # fileutil.c:216:25
	movl	$1023, %edi             # imm = 0x3FF
	movq	%rbx, %rsi
	callq	_Z32__sanitizer_cov_trace_const_cmp8mm
	cmpq	$1023, %rbx             # imm = 0x3FF
.Ltmp458:
	.loc	21 216 7                # fileutil.c:216:7
	ja	.LBB18_14
.Ltmp459:
# %bb.11:                               # %if.end30
                                        #   in Loop: Header=BB18_3 Depth=1
	#DEBUG_VALUE: list_charsets:q <- %r14
	.loc	21 218 3 is_stmt 1      # fileutil.c:218:3
	callq	_Z24__sanitizer_cov_trace_pcv
	#APP
	#NO_APP
	movq	%r13, %rdi
	callq	strlen
	movw	$116, 100(%rsp,%rax)
	movl	$2020879914, 96(%rsp,%rax) # imm = 0x78742E2A
.Ltmp460:
	#DEBUG_VALUE: list_charsets:glob_buf <- [DW_OP_plus_uconst 16] [%rsp+0]
	#DEBUG_VALUE: list_charsets:glob_flags <- %r12d
	.loc	21 236 11               # fileutil.c:236:11
	xorl	%edx, %edx
	movq	%r13, %rdi
	movl	%r12d, %esi
	leaq	16(%rsp), %rcx
	callq	glob
	movl	%eax, %ebx
	.loc	21 236 3 is_stmt 0      # fileutil.c:236:3
	movl	%ebx, %edi
	movl	$__sancov_gen_cov_switch_values.3, %esi
	callq	_Z28__sanitizer_cov_trace_switchmPm
	testl	%ebx, %ebx
	je	.LBB18_13
.Ltmp461:
# %bb.12:                               # %if.end30
                                        #   in Loop: Header=BB18_3 Depth=1
	#DEBUG_VALUE: list_charsets:glob_flags <- %r12d
	#DEBUG_VALUE: list_charsets:glob_buf <- [DW_OP_plus_uconst 16] [%rsp+0]
	#DEBUG_VALUE: list_charsets:q <- %r14
	cmpl	$3, %ebx
	jne	.LBB18_23
.Ltmp462:
.LBB18_13:                              # %sw.epilog
                                        #   in Loop: Header=BB18_3 Depth=1
	#DEBUG_VALUE: list_charsets:glob_flags <- %r12d
	#DEBUG_VALUE: list_charsets:glob_buf <- [DW_OP_plus_uconst 16] [%rsp+0]
	#DEBUG_VALUE: list_charsets:q <- %r14
	.loc	21 246 13 is_stmt 1     # fileutil.c:246:13
	callq	_Z24__sanitizer_cov_trace_pcv
	#APP
	#NO_APP
	orl	$32, %r12d
.Ltmp463:
	#DEBUG_VALUE: list_charsets:glob_flags <- %r12d
.LBB18_14:                              # %for.inc
                                        #   in Loop: Header=BB18_3 Depth=1
	#DEBUG_VALUE: list_charsets:q <- %r14
	.loc	21 188 12               # fileutil.c:188:12
	callq	_Z24__sanitizer_cov_trace_pcv
	#APP
	#NO_APP
.Ltmp464:
	.loc	21 194 7                # fileutil.c:194:7
	testq	%r14, %r14
	jne	.LBB18_2
.Ltmp465:
.LBB18_15:                              # %for.end
	.loc	21 188 6                # fileutil.c:188:6
	callq	_Z24__sanitizer_cov_trace_pcv
	#APP
	#NO_APP
.Ltmp466:
	#DEBUG_VALUE: list_charsets:count <- 0
	.loc	21 252 10               # fileutil.c:252:10
	movl	$.L.str.6.139, %edi
	xorl	%eax, %eax
	callq	printf
.Ltmp467:
	.loc	21 253 20               # fileutil.c:253:20
	movq	24(%rsp), %r12
.Ltmp468:
	#DEBUG_VALUE: list_charsets:ptr <- %r12
	#DEBUG_VALUE: list_charsets:count <- 1
	.loc	21 253 2 is_stmt 0      # fileutil.c:253:2
	movq	(%r12), %rbx
.Ltmp469:
	.loc	21 0 0                  # fileutil.c:0:0
	movl	$10, %edi
	callq	putchar
.Ltmp470:
	.loc	21 253 2                # fileutil.c:253:2
	cmpq	$0, %rbx
	je	.LBB18_22
.Ltmp471:
# %bb.16:                               # %for.body39.preheader
	#DEBUG_VALUE: list_charsets:ptr <- %r12
	.loc	21 255 13 is_stmt 1     # fileutil.c:255:13
	callq	_Z24__sanitizer_cov_trace_pcv
	#APP
	#NO_APP
	addq	$8, %r12
.Ltmp472:
	.loc	21 0 13 is_stmt 0       # fileutil.c:0:13
	movl	$1, %ebx
	movl	$3435973837, %r13d      # imm = 0xCCCCCCCD
.Ltmp473:
	.p2align	4, 0x90
.LBB18_17:                              # %for.body39
                                        # =>This Inner Loop Header: Depth=1
	#DEBUG_VALUE: list_charsets:count <- %ebx
	.loc	21 182 9 is_stmt 1      # fileutil.c:182:9
	movl	%ebx, %eax
	imulq	%r13, %rax
	shrq	$34, %rax
	leal	(%rax,%rax,4), %eax
	movl	%ebx, %r15d
	subl	%eax, %r15d
	callq	_Z24__sanitizer_cov_trace_pcv
	#APP
	#NO_APP
.Ltmp474:
	.loc	21 255 13               # fileutil.c:255:13
	movq	-8(%r12), %rdi
	.loc	21 255 5 is_stmt 0      # fileutil.c:255:5
	movl	$47, %esi
	callq	strrchr
	movq	%rax, %rbp
.Ltmp475:
	#DEBUG_VALUE: list_charsets:p <- %rbp
	.loc	21 256 8 is_stmt 1      # fileutil.c:256:8
	testq	%rbp, %rbp
.Ltmp476:
	.loc	21 256 7 is_stmt 0      # fileutil.c:256:7
	je	.LBB18_21
.Ltmp477:
# %bb.18:                               # %if.end47
                                        #   in Loop: Header=BB18_17 Depth=1
	#DEBUG_VALUE: list_charsets:p <- %rbp
	#DEBUG_VALUE: list_charsets:count <- %ebx
	.loc	21 257 4 is_stmt 1      # fileutil.c:257:4
	callq	_Z24__sanitizer_cov_trace_pcv
	#APP
	#NO_APP
	addq	$1, %rbp
.Ltmp478:
	#DEBUG_VALUE: list_charsets:p <- %rbp
	.loc	21 258 10               # fileutil.c:258:10
	movl	$46, %esi
	movq	%rbp, %rdi
	callq	strchr
	movq	%rax, %r14
.Ltmp479:
	#DEBUG_VALUE: list_charsets:q <- %r14
	.loc	21 258 9 is_stmt 0      # fileutil.c:258:9
	testq	%r14, %r14
.Ltmp480:
	.loc	21 258 7                # fileutil.c:258:7
	je	.LBB18_20
.Ltmp481:
# %bb.19:                               # %if.then50
                                        #   in Loop: Header=BB18_17 Depth=1
	#DEBUG_VALUE: list_charsets:p <- %rbp
	#DEBUG_VALUE: list_charsets:count <- %ebx
	#DEBUG_VALUE: list_charsets:q <- %r14
	.loc	21 258 28               # fileutil.c:258:28
	callq	_Z24__sanitizer_cov_trace_pcv
	#APP
	#NO_APP
	movb	$0, (%r14)
.Ltmp482:
.LBB18_20:                              # %if.end51
                                        #   in Loop: Header=BB18_17 Depth=1
	#DEBUG_VALUE: list_charsets:p <- %rbp
	#DEBUG_VALUE: list_charsets:count <- %ebx
	#DEBUG_VALUE: list_charsets:q <- %r14
	.loc	21 259 11 is_stmt 1     # fileutil.c:259:11
	callq	_Z24__sanitizer_cov_trace_pcv
	#APP
	#NO_APP
	movq	stdout(%rip), %rsi
	.loc	21 259 3 is_stmt 0      # fileutil.c:259:3
	movq	%rbp, %rdi
	callq	fputs
.Ltmp483:
.LBB18_21:                              # %for.inc53
                                        #   in Loop: Header=BB18_17 Depth=1
	#DEBUG_VALUE: list_charsets:p <- %rbp
	#DEBUG_VALUE: list_charsets:count <- %ebx
	.loc	21 253 37 is_stmt 1     # fileutil.c:253:37
	callq	_Z24__sanitizer_cov_trace_pcv
	#APP
	#NO_APP
.Ltmp484:
	.loc	21 253 2 is_stmt 0      # fileutil.c:253:2
	movq	(%r12), %rbp
.Ltmp485:
	.loc	21 0 2                  # fileutil.c:0:2
	addl	$1, %ebx
.Ltmp486:
	#DEBUG_VALUE: list_charsets:count <- %ebx
	xorl	%edi, %edi
	movl	%r15d, %esi
	callq	_Z32__sanitizer_cov_trace_const_cmp4jj
	cmpl	$1, %r15d
	movl	$9, %edi
	adcl	$0, %edi
.Ltmp487:
	callq	putchar
.Ltmp488:
	.loc	21 253 2                # fileutil.c:253:2
	addq	$8, %r12
	cmpq	$0, %rbp
	jne	.LBB18_17
.Ltmp489:
.LBB18_22:                              # %for.end55
	.loc	21 262 16 is_stmt 1     # fileutil.c:262:16
	callq	_Z24__sanitizer_cov_trace_pcv
	#APP
	#NO_APP
	movq	stdout(%rip), %rcx
	.loc	21 262 2 is_stmt 0      # fileutil.c:262:2
	movl	$.L.str.1.130, %edi
	movl	$5, %esi
	movl	$1, %edx
	callq	fwrite
	.loc	21 263 2 is_stmt 1      # fileutil.c:263:2
	movl	$10, %edi
	callq	putchar
	leaq	16(%rsp), %rdi
.Ltmp490:
	#DEBUG_VALUE: list_charsets:glob_buf <- [DW_OP_plus_uconst 16] [%rsp+0]
	.loc	21 264 2                # fileutil.c:264:2
	callq	globfree
	.loc	21 266 1                # fileutil.c:266:1
	addq	$1128, %rsp             # imm = 0x468
.Ltmp491:
	popq	%rbx
	popq	%r12
	popq	%r13
	popq	%r14
	popq	%r15
	popq	%rbp
	retq
.LBB18_23:                              # %sw.default
.Ltmp492:
	#DEBUG_VALUE: list_charsets:glob_flags <- %r12d
	#DEBUG_VALUE: list_charsets:glob_buf <- [DW_OP_plus_uconst 16] [%rsp+0]
	#DEBUG_VALUE: list_charsets:q <- %r14
	.loc	21 243 5                # fileutil.c:243:5
	callq	_Z24__sanitizer_cov_trace_pcv
	#APP
	#NO_APP
	movl	$.L.str.5.138, %edi
	callq	perror
	.loc	21 244 5                # fileutil.c:244:5
	movl	$1, %edi
	callq	exit
.Ltmp493:
.Lfunc_end18:
	.size	list_charsets, .Lfunc_end18-list_charsets
	.cfi_endproc
                                        # -- End function
	.globl	help                    # -- Begin function help
	.p2align	4, 0x90
	.type	help,@function
help:                                   # @help
.Lfunc_begin19:
	.loc	1 189 0                 # catdoc.c:189:0
	.cfi_startproc
# %bb.0:                                # %entry
	.loc	1 190 2 prologue_end    # catdoc.c:190:2
	pushq	%rax
	.cfi_def_cfa_offset 16
	callq	_Z24__sanitizer_cov_trace_pcv
	#APP
	#NO_APP
	movl	$.Lstr, %edi
	popq	%rax
	jmp	puts                    # TAILCALL
.Ltmp494:
.Lfunc_end19:
	.size	help, .Lfunc_end19-help
	.cfi_endproc
                                        # -- End function
	.section	.rodata.cst16,"aM",@progbits,16
	.p2align	4               # -- Begin function read_charset
.LCPI20_0:
	.short	1                       # 0x1
	.short	2                       # 0x2
	.short	3                       # 0x3
	.short	4                       # 0x4
	.short	5                       # 0x5
	.short	6                       # 0x6
	.short	7                       # 0x7
	.short	8                       # 0x8
.LCPI20_1:
	.short	9                       # 0x9
	.short	10                      # 0xa
	.short	11                      # 0xb
	.short	12                      # 0xc
	.short	13                      # 0xd
	.short	14                      # 0xe
	.short	15                      # 0xf
	.short	16                      # 0x10
.LCPI20_2:
	.short	17                      # 0x11
	.short	18                      # 0x12
	.short	19                      # 0x13
	.short	20                      # 0x14
	.short	21                      # 0x15
	.short	22                      # 0x16
	.short	23                      # 0x17
	.short	24                      # 0x18
	.text
	.globl	read_charset
	.p2align	4, 0x90
	.type	read_charset,@function
read_charset:                           # @read_charset
.Lfunc_begin20:
	.loc	12 73 0                 # charsets.c:73:0
	.cfi_startproc
# %bb.0:                                # %entry
	pushq	%rbp
	.cfi_def_cfa_offset 16
	pushq	%r15
	.cfi_def_cfa_offset 24
	pushq	%r14
	.cfi_def_cfa_offset 32
	pushq	%r13
	.cfi_def_cfa_offset 40
	pushq	%r12
	.cfi_def_cfa_offset 48
	pushq	%rbx
	.cfi_def_cfa_offset 56
	subq	$24, %rsp
	.cfi_def_cfa_offset 80
	.cfi_offset %rbx, -56
	.cfi_offset %r12, -48
	.cfi_offset %r13, -40
	.cfi_offset %r14, -32
	.cfi_offset %r15, -24
	.cfi_offset %rbp, -16
	#DEBUG_VALUE: read_charset:filename <- %rdi
	movq	%rdi, %rbx
	callq	_Z24__sanitizer_cov_trace_pcv
.Ltmp495:
	#APP
	#NO_APP
.Ltmp496:
	#DEBUG_VALUE: read_charset:filename <- %rbx
	.loc	12 79 18 prologue_end   # charsets.c:79:18
	movl	$.L.str.4.90, %esi
	movq	%rbx, %rdi
	callq	stradd
	.loc	12 79 47 is_stmt 0      # charsets.c:79:47
	movq	charset_path(%rip), %rsi
	.loc	12 79 8                 # charsets.c:79:8
	movq	%rax, %rdi
	callq	find_file
	movq	%rax, %rbp
.Ltmp497:
	#DEBUG_VALUE: read_charset:path <- %rbp
	.loc	12 80 7 is_stmt 1       # charsets.c:80:7
	testq	%rbp, %rbp
.Ltmp498:
	.loc	12 80 6 is_stmt 0       # charsets.c:80:6
	je	.LBB20_1
.Ltmp499:
# %bb.2:                                # %if.end
	#DEBUG_VALUE: read_charset:path <- %rbp
	#DEBUG_VALUE: read_charset:filename <- %rbx
	.loc	12 84 4 is_stmt 1       # charsets.c:84:4
	callq	_Z24__sanitizer_cov_trace_pcv
	#APP
	#NO_APP
	movl	$.L.str.6.92, %esi
	movq	%rbp, %rdi
	callq	fopen
	movq	%rax, %rbx
.Ltmp500:
	#DEBUG_VALUE: read_charset:f <- %rbx
	.loc	12 86 7                 # charsets.c:86:7
	testq	%rbx, %rbx
.Ltmp501:
	.loc	12 86 6 is_stmt 0       # charsets.c:86:6
	je	.LBB20_3
.Ltmp502:
# %bb.4:                                # %if.end6
	#DEBUG_VALUE: read_charset:f <- %rbx
	#DEBUG_VALUE: read_charset:path <- %rbp
	.loc	12 0 6                  # charsets.c:0:6
	movq	%rbp, 8(%rsp)           # 8-byte Spill
.Ltmp503:
	#DEBUG_VALUE: read_charset:path <- [DW_OP_plus_uconst 8] [%rsp+0]
	.loc	12 90 6 is_stmt 1       # charsets.c:90:6
	callq	_Z24__sanitizer_cov_trace_pcv
	#APP
	#NO_APP
	movq	input_buffer(%rip), %rbp
	testq	%rbp, %rbp
.Ltmp504:
	.loc	12 90 6 is_stmt 0       # charsets.c:90:6
	je	.LBB20_6
.Ltmp505:
# %bb.5:                                # %if.then8
	#DEBUG_VALUE: read_charset:path <- [DW_OP_plus_uconst 8] [%rsp+0]
	#DEBUG_VALUE: read_charset:f <- %rbx
	.loc	12 91 3 is_stmt 1       # charsets.c:91:3
	callq	_Z24__sanitizer_cov_trace_pcv
	#APP
	#NO_APP
	xorl	%edx, %edx
	movl	$262144, %ecx           # imm = 0x40000
	movq	%rbx, %rdi
	movq	%rbp, %rsi
	callq	setvbuf
.Ltmp506:
.LBB20_6:                               # %if.end10
	#DEBUG_VALUE: read_charset:path <- [DW_OP_plus_uconst 8] [%rsp+0]
	#DEBUG_VALUE: read_charset:f <- %rbx
	.loc	12 93 8                 # charsets.c:93:8
	callq	_Z24__sanitizer_cov_trace_pcv
	#APP
	#NO_APP
	movl	$2, %edi
	movl	$256, %esi              # imm = 0x100
	callq	calloc
	movq	%rax, %r15
.Ltmp507:
	#DEBUG_VALUE: read_charset:c <- 8
	#DEBUG_VALUE: read_charset:new <- %r15
	.loc	12 95 9                 # charsets.c:95:9
	movaps	.LCPI20_0(%rip), %xmm0  # xmm0 = [1,2,3,4,5,6,7,8]
	movups	%xmm0, 2(%r15)
.Ltmp508:
	#DEBUG_VALUE: read_charset:c <- 16
	movaps	.LCPI20_1(%rip), %xmm0  # xmm0 = [9,10,11,12,13,14,15,16]
	movups	%xmm0, 18(%r15)
.Ltmp509:
	#DEBUG_VALUE: read_charset:c <- 24
	movaps	.LCPI20_2(%rip), %xmm0  # xmm0 = [17,18,19,20,21,22,23,24]
	movups	%xmm0, 34(%r15)
	movabsq	$7881415313719321, %rax # imm = 0x1C001B001A0019
.Ltmp510:
	#DEBUG_VALUE: read_charset:c <- 25
	movq	%rax, 50(%r15)
.Ltmp511:
	#DEBUG_VALUE: read_charset:c <- 29
	movl	$1966109, 58(%r15)      # imm = 0x1E001D
.Ltmp512:
	#DEBUG_VALUE: read_charset:c <- 32
	movw	$31, 62(%r15)
	movl	$32, 4(%rsp)
.Ltmp513:
	.loc	12 97 10                # charsets.c:97:10
	movq	%rbx, %rdi
	callq	feof
	movl	%eax, %ebp
	.loc	12 97 9 is_stmt 0       # charsets.c:97:9
	xorl	%edi, %edi
	movl	%ebp, %esi
	callq	_Z32__sanitizer_cov_trace_const_cmp4jj
	testl	%ebp, %ebp
	.loc	12 97 2                 # charsets.c:97:2
	je	.LBB20_7
.Ltmp514:
.LBB20_20:                              # %while.end46
	#DEBUG_VALUE: read_charset:path <- [DW_OP_plus_uconst 8] [%rsp+0]
	#DEBUG_VALUE: read_charset:new <- %r15
	#DEBUG_VALUE: read_charset:f <- %rbx
	.loc	12 109 2 is_stmt 1      # charsets.c:109:2
	callq	_Z24__sanitizer_cov_trace_pcv
	#APP
	#NO_APP
	movq	%rbx, %rdi
	callq	fclose
	.loc	12 110 2                # charsets.c:110:2
	movq	8(%rsp), %rdi           # 8-byte Reload
	callq	free
	movq	%r15, %rbp
	jmp	.LBB20_21
.Ltmp515:
.LBB20_7:                               # %while.body.preheader
	#DEBUG_VALUE: read_charset:path <- [DW_OP_plus_uconst 8] [%rsp+0]
	#DEBUG_VALUE: read_charset:new <- %r15
	#DEBUG_VALUE: read_charset:f <- %rbx
	.loc	12 98 7                 # charsets.c:98:7
	callq	_Z24__sanitizer_cov_trace_pcv
	#APP
	#NO_APP
	leaq	4(%rsp), %r12
	leaq	16(%rsp), %r14
.Ltmp516:
	.p2align	4, 0x90
.LBB20_8:                               # %while.body
                                        # =>This Loop Header: Depth=1
                                        #     Child Loop BB20_18 Depth 2
	#DEBUG_VALUE: read_charset:path <- [DW_OP_plus_uconst 8] [%rsp+0]
	#DEBUG_VALUE: read_charset:new <- %r15
	#DEBUG_VALUE: read_charset:f <- %rbx
	.loc	12 77 6                 # charsets.c:77:6
	callq	_Z24__sanitizer_cov_trace_pcv
	#APP
	#NO_APP
.Ltmp517:
	#DEBUG_VALUE: read_charset:uc <- [DW_OP_plus_uconst 16] [%rsp+0]
	#DEBUG_VALUE: read_charset:c <- [DW_OP_plus_uconst 4] [%rsp+0]
	.loc	12 98 7                 # charsets.c:98:7
	movl	$.L.str.7.93, %esi
	xorl	%eax, %eax
	movq	%rbx, %rdi
	movq	%r12, %rdx
	movq	%r14, %rcx
	callq	__isoc99_fscanf
	movl	%eax, %ebp
	.loc	12 98 32 is_stmt 0      # charsets.c:98:32
	movl	$2, %edi
	movl	%ebp, %esi
	callq	_Z32__sanitizer_cov_trace_const_cmp4jj
	cmpl	$2, %ebp
.Ltmp518:
	.loc	12 98 7                 # charsets.c:98:7
	jne	.LBB20_15
.Ltmp519:
# %bb.9:                                # %if.then17
                                        #   in Loop: Header=BB20_8 Depth=1
	#DEBUG_VALUE: read_charset:path <- [DW_OP_plus_uconst 8] [%rsp+0]
	#DEBUG_VALUE: read_charset:c <- [DW_OP_plus_uconst 4] [%rsp+0]
	#DEBUG_VALUE: read_charset:uc <- [DW_OP_plus_uconst 16] [%rsp+0]
	#DEBUG_VALUE: read_charset:new <- %r15
	#DEBUG_VALUE: read_charset:f <- %rbx
	.loc	12 0 7                  # charsets.c:0:7
	movq	%r12, %r13
.Ltmp520:
	.loc	12 99 8 is_stmt 1       # charsets.c:99:8
	callq	_Z24__sanitizer_cov_trace_pcv
	#APP
	#NO_APP
	movslq	4(%rsp), %rbp
.Ltmp521:
	#DEBUG_VALUE: read_charset:c <- %ebp
	.loc	12 99 11 is_stmt 0      # charsets.c:99:11
	movl	$255, %edi
	movl	%ebp, %esi
	callq	_Z32__sanitizer_cov_trace_const_cmp4jj
	.loc	12 99 20                # charsets.c:99:20
	movq	16(%rsp), %r12
.Ltmp522:
	#DEBUG_VALUE: read_charset:uc <- %r12
	.loc	12 99 22                # charsets.c:99:22
	xorl	%edi, %edi
	movq	%r12, %rsi
	callq	_Z32__sanitizer_cov_trace_const_cmp8mm
	.loc	12 99 8                 # charsets.c:99:8
	cmpq	$255, %rbp
	.loc	12 99 11                # charsets.c:99:11
	ja	.LBB20_13
.Ltmp523:
# %bb.10:                               # %if.then17
                                        #   in Loop: Header=BB20_8 Depth=1
	#DEBUG_VALUE: read_charset:path <- [DW_OP_plus_uconst 8] [%rsp+0]
	#DEBUG_VALUE: read_charset:uc <- %r12
	#DEBUG_VALUE: read_charset:c <- %ebp
	#DEBUG_VALUE: read_charset:new <- %r15
	#DEBUG_VALUE: read_charset:f <- %rbx
	testq	%r12, %r12
	js	.LBB20_13
.Ltmp524:
# %bb.11:                               # %lor.lhs.false25
                                        #   in Loop: Header=BB20_8 Depth=1
	#DEBUG_VALUE: read_charset:path <- [DW_OP_plus_uconst 8] [%rsp+0]
	#DEBUG_VALUE: read_charset:uc <- %r12
	#DEBUG_VALUE: read_charset:c <- %ebp
	#DEBUG_VALUE: read_charset:new <- %r15
	#DEBUG_VALUE: read_charset:f <- %rbx
	.loc	12 99 29                # charsets.c:99:29
	callq	_Z24__sanitizer_cov_trace_pcv
	#APP
	#NO_APP
	movl	$65278, %edi            # imm = 0xFEFE
	movq	%r12, %rsi
	callq	_Z32__sanitizer_cov_trace_const_cmp8mm
	.loc	12 99 41                # charsets.c:99:41
	movl	$65534, %edi            # imm = 0xFFFE
	movq	%r12, %rsi
	callq	_Z32__sanitizer_cov_trace_const_cmp8mm
	.loc	12 99 29                # charsets.c:99:29
	cmpq	$65279, %r12            # imm = 0xFEFF
	.loc	12 99 36                # charsets.c:99:36
	jl	.LBB20_14
.Ltmp525:
# %bb.12:                               # %lor.lhs.false25
                                        #   in Loop: Header=BB20_8 Depth=1
	#DEBUG_VALUE: read_charset:path <- [DW_OP_plus_uconst 8] [%rsp+0]
	#DEBUG_VALUE: read_charset:uc <- %r12
	#DEBUG_VALUE: read_charset:c <- %ebp
	#DEBUG_VALUE: read_charset:new <- %r15
	#DEBUG_VALUE: read_charset:f <- %rbx
	cmpq	$65534, %r12            # imm = 0xFFFE
	jne	.LBB20_13
.Ltmp526:
.LBB20_14:                              # %if.end33
                                        #   in Loop: Header=BB20_8 Depth=1
	#DEBUG_VALUE: read_charset:path <- [DW_OP_plus_uconst 8] [%rsp+0]
	#DEBUG_VALUE: read_charset:uc <- %r12
	#DEBUG_VALUE: read_charset:c <- %ebp
	#DEBUG_VALUE: read_charset:new <- %r15
	#DEBUG_VALUE: read_charset:f <- %rbx
	.loc	12 105 11 is_stmt 1     # charsets.c:105:11
	callq	_Z24__sanitizer_cov_trace_pcv
	#APP
	#NO_APP
	.loc	12 105 10 is_stmt 0     # charsets.c:105:10
	movw	%r12w, (%r15,%rbp,2)
	movq	%r13, %r12
.Ltmp527:
.LBB20_15:                              # %if.end37
                                        #   in Loop: Header=BB20_8 Depth=1
	#DEBUG_VALUE: read_charset:path <- [DW_OP_plus_uconst 8] [%rsp+0]
	#DEBUG_VALUE: read_charset:new <- %r15
	#DEBUG_VALUE: read_charset:f <- %rbx
	.loc	12 107 10 is_stmt 1     # charsets.c:107:10
	callq	_Z24__sanitizer_cov_trace_pcv
	#APP
	#NO_APP
	movq	%rbx, %rdi
	callq	fgetc
	movl	%eax, %ebp
	.loc	12 107 18 is_stmt 0     # charsets.c:107:18
	movl	$10, %edi
	movl	%ebp, %esi
	callq	_Z32__sanitizer_cov_trace_const_cmp4jj
	cmpl	$10, %ebp
	.loc	12 107 25               # charsets.c:107:25
	je	.LBB20_19
.Ltmp528:
# %bb.16:                               # %land.rhs.preheader
                                        #   in Loop: Header=BB20_8 Depth=1
	#DEBUG_VALUE: read_charset:path <- [DW_OP_plus_uconst 8] [%rsp+0]
	#DEBUG_VALUE: read_charset:new <- %r15
	#DEBUG_VALUE: read_charset:f <- %rbx
	.loc	12 107 28               # charsets.c:107:28
	callq	_Z24__sanitizer_cov_trace_pcv
	#APP
	#NO_APP
.Ltmp529:
	.p2align	4, 0x90
.LBB20_18:                              # %land.rhs
                                        #   Parent Loop BB20_8 Depth=1
                                        # =>  This Inner Loop Header: Depth=2
	#DEBUG_VALUE: read_charset:path <- [DW_OP_plus_uconst 8] [%rsp+0]
	#DEBUG_VALUE: read_charset:new <- %r15
	#DEBUG_VALUE: read_charset:f <- %rbx
	callq	_Z24__sanitizer_cov_trace_pcv
	#APP
	#NO_APP
	movq	%rbx, %rdi
	callq	feof
	movl	%eax, %ebp
	.loc	12 107 27               # charsets.c:107:27
	xorl	%edi, %edi
	movl	%ebp, %esi
	callq	_Z32__sanitizer_cov_trace_const_cmp4jj
	testl	%ebp, %ebp
	.loc	12 107 3                # charsets.c:107:3
	jne	.LBB20_19
.Ltmp530:
# %bb.17:                               # %while.cond38
                                        #   in Loop: Header=BB20_18 Depth=2
	#DEBUG_VALUE: read_charset:path <- [DW_OP_plus_uconst 8] [%rsp+0]
	#DEBUG_VALUE: read_charset:new <- %r15
	#DEBUG_VALUE: read_charset:f <- %rbx
	.loc	12 107 10               # charsets.c:107:10
	callq	_Z24__sanitizer_cov_trace_pcv
	#APP
	#NO_APP
	movq	%rbx, %rdi
	callq	fgetc
	movl	%eax, %ebp
	.loc	12 107 18               # charsets.c:107:18
	movl	$10, %edi
	movl	%ebp, %esi
	callq	_Z32__sanitizer_cov_trace_const_cmp4jj
	cmpl	$10, %ebp
	.loc	12 107 25               # charsets.c:107:25
	jne	.LBB20_18
.Ltmp531:
.LBB20_19:                              # %while.end
                                        #   in Loop: Header=BB20_8 Depth=1
	#DEBUG_VALUE: read_charset:path <- [DW_OP_plus_uconst 8] [%rsp+0]
	#DEBUG_VALUE: read_charset:new <- %r15
	#DEBUG_VALUE: read_charset:f <- %rbx
	.loc	12 97 10 is_stmt 1      # charsets.c:97:10
	callq	_Z24__sanitizer_cov_trace_pcv
	#APP
	#NO_APP
	movq	%rbx, %rdi
	callq	feof
	movl	%eax, %ebp
	.loc	12 97 9 is_stmt 0       # charsets.c:97:9
	xorl	%edi, %edi
	movl	%ebp, %esi
	callq	_Z32__sanitizer_cov_trace_const_cmp4jj
	testl	%ebp, %ebp
	.loc	12 97 2                 # charsets.c:97:2
	je	.LBB20_8
	jmp	.LBB20_20
.Ltmp532:
.LBB20_13:                              # %if.then30
	#DEBUG_VALUE: read_charset:path <- [DW_OP_plus_uconst 8] [%rsp+0]
	#DEBUG_VALUE: read_charset:uc <- %r12
	#DEBUG_VALUE: read_charset:c <- %ebp
	#DEBUG_VALUE: read_charset:new <- %r15
	#DEBUG_VALUE: read_charset:f <- %rbx
	.loc	12 100 13 is_stmt 1     # charsets.c:100:13
	callq	_Z24__sanitizer_cov_trace_pcv
	#APP
	#NO_APP
	movq	stderr(%rip), %rdi
	.loc	12 100 5 is_stmt 0      # charsets.c:100:5
	xorl	%ebp, %ebp
.Ltmp533:
	movl	$.L.str.8.94, %esi
	xorl	%eax, %eax
	movq	8(%rsp), %rdx           # 8-byte Reload
	callq	fprintf
	.loc	12 101 5 is_stmt 1      # charsets.c:101:5
	movq	%rbx, %rdi
	callq	fclose
	.loc	12 102 5                # charsets.c:102:5
	movq	%r15, %rdi
	callq	free
	jmp	.LBB20_21
.Ltmp534:
.LBB20_1:                               # %if.then
	#DEBUG_VALUE: read_charset:path <- %rbp
	#DEBUG_VALUE: read_charset:filename <- %rbx
	.loc	12 81 11                # charsets.c:81:11
	callq	_Z24__sanitizer_cov_trace_pcv
	#APP
	#NO_APP
	movq	stderr(%rip), %rdi
	.loc	12 81 3 is_stmt 0       # charsets.c:81:3
	xorl	%ebp, %ebp
.Ltmp535:
	movl	$.L.str.5.91, %esi
	xorl	%eax, %eax
	movq	%rbx, %rdx
	callq	fprintf
	jmp	.LBB20_21
.Ltmp536:
.LBB20_3:                               # %if.then5
	#DEBUG_VALUE: read_charset:f <- %rbx
	#DEBUG_VALUE: read_charset:path <- %rbp
	.loc	12 87 3 is_stmt 1       # charsets.c:87:3
	callq	_Z24__sanitizer_cov_trace_pcv
	#APP
	#NO_APP
	movq	%rbp, %rdi
	callq	perror
	xorl	%ebp, %ebp
.Ltmp537:
.LBB20_21:                              # %cleanup
	.loc	12 112 1                # charsets.c:112:1
	callq	_Z24__sanitizer_cov_trace_pcv
	#APP
	#NO_APP
	movq	%rbp, %rax
	addq	$24, %rsp
	popq	%rbx
	popq	%r12
	popq	%r13
	popq	%r14
	popq	%r15
	popq	%rbp
	retq
.Ltmp538:
.Lfunc_end20:
	.size	read_charset, .Lfunc_end20-read_charset
	.cfi_endproc
                                        # -- End function
	.globl	make_reverse_map        # -- Begin function make_reverse_map
	.p2align	4, 0x90
	.type	make_reverse_map,@function
make_reverse_map:                       # @make_reverse_map
.Lfunc_begin21:
	.loc	12 44 0                 # charsets.c:44:0
	.cfi_startproc
# %bb.0:                                # %entry
	pushq	%rbp
	.cfi_def_cfa_offset 16
	pushq	%r15
	.cfi_def_cfa_offset 24
	pushq	%r14
	.cfi_def_cfa_offset 32
	pushq	%r13
	.cfi_def_cfa_offset 40
	pushq	%r12
	.cfi_def_cfa_offset 48
	pushq	%rbx
	.cfi_def_cfa_offset 56
	pushq	%rax
	.cfi_def_cfa_offset 64
	.cfi_offset %rbx, -56
	.cfi_offset %r12, -48
	.cfi_offset %r13, -40
	.cfi_offset %r14, -32
	.cfi_offset %r15, -24
	.cfi_offset %rbp, -16
	#DEBUG_VALUE: make_reverse_map:charset <- %rdi
	movq	%rdi, %r14
.Ltmp539:
	#DEBUG_VALUE: make_reverse_map:charset <- %r14
	.loc	12 44 37 prologue_end   # charsets.c:44:37
	callq	_Z24__sanitizer_cov_trace_pcv
	#APP
	#NO_APP
	.loc	12 45 17                # charsets.c:45:17
	movl	$8, %edi
	movl	$256, %esi              # imm = 0x100
	callq	calloc
	movq	%rax, %r15
.Ltmp540:
	#DEBUG_VALUE: make_reverse_map:newmap <- %r15
	.loc	12 48 8                 # charsets.c:48:8
	testq	%r14, %r14
.Ltmp541:
	.loc	12 48 6 is_stmt 0       # charsets.c:48:6
	je	.LBB21_7
.Ltmp542:
# %bb.1:                                # %for.body.preheader
	#DEBUG_VALUE: make_reverse_map:newmap <- %r15
	#DEBUG_VALUE: make_reverse_map:charset <- %r14
	.loc	12 53 6 is_stmt 1       # charsets.c:53:6
	callq	_Z24__sanitizer_cov_trace_pcv
	#APP
	#NO_APP
	xorl	%ebx, %ebx
.Ltmp543:
	.p2align	4, 0x90
.LBB21_2:                               # %for.body
                                        # =>This Inner Loop Header: Depth=1
	#DEBUG_VALUE: make_reverse_map:newmap <- %r15
	#DEBUG_VALUE: make_reverse_map:charset <- %r14
	#DEBUG_VALUE: make_reverse_map:i <- %rbx
	.loc	12 46 6                 # charsets.c:46:6
	callq	_Z24__sanitizer_cov_trace_pcv
	#APP
	#NO_APP
.Ltmp544:
	.loc	12 53 6                 # charsets.c:53:6
	movswl	(%r14,%rbx,2), %r13d
.Ltmp545:
	#DEBUG_VALUE: make_reverse_map:k <- %r13d
	.loc	12 54 18                # charsets.c:54:18
	movl	%r13d, %ebp
	shrl	$8, %ebp
.Ltmp546:
	#DEBUG_VALUE: make_reverse_map:j <- %ebp
	.loc	12 55 8                 # charsets.c:55:8
	movq	(%r15,%rbp,8), %r12
	testq	%r12, %r12
.Ltmp547:
	.loc	12 55 7 is_stmt 0       # charsets.c:55:7
	jne	.LBB21_5
.Ltmp548:
# %bb.3:                                # %if.then4
                                        #   in Loop: Header=BB21_2 Depth=1
	#DEBUG_VALUE: make_reverse_map:j <- %ebp
	#DEBUG_VALUE: make_reverse_map:k <- %r13d
	#DEBUG_VALUE: make_reverse_map:i <- %rbx
	#DEBUG_VALUE: make_reverse_map:newmap <- %r15
	#DEBUG_VALUE: make_reverse_map:charset <- %r14
	.loc	12 56 29 is_stmt 1      # charsets.c:56:29
	callq	_Z24__sanitizer_cov_trace_pcv
	#APP
	#NO_APP
	movl	$512, %edi              # imm = 0x200
	callq	malloc
	movq	%rax, %r12
	.loc	12 56 14 is_stmt 0      # charsets.c:56:14
	movq	%r12, (%r15,%rbp,8)
.Ltmp549:
	.loc	12 57 9 is_stmt 1       # charsets.c:57:9
	testq	%r12, %r12
.Ltmp550:
	.loc	12 57 8 is_stmt 0       # charsets.c:57:8
	je	.LBB21_8
.Ltmp551:
# %bb.4:                                # %if.end13
                                        #   in Loop: Header=BB21_2 Depth=1
	#DEBUG_VALUE: make_reverse_map:j <- %ebp
	#DEBUG_VALUE: make_reverse_map:k <- %r13d
	#DEBUG_VALUE: make_reverse_map:i <- %rbx
	#DEBUG_VALUE: make_reverse_map:newmap <- %r15
	#DEBUG_VALUE: make_reverse_map:charset <- %r14
	callq	_Z24__sanitizer_cov_trace_pcv
	#APP
	#NO_APP
.Ltmp552:
	#DEBUG_VALUE: make_reverse_map:l <- 0
	#DEBUG_VALUE: make_reverse_map:p <- %r12
	.loc	12 61 42 is_stmt 1      # charsets.c:61:42
	movl	$255, %esi
	movl	$512, %edx              # imm = 0x200
	movq	%r12, %rdi
	callq	memset
.Ltmp553:
.LBB21_5:                               # %if.end20
                                        #   in Loop: Header=BB21_2 Depth=1
	#DEBUG_VALUE: make_reverse_map:j <- %ebp
	#DEBUG_VALUE: make_reverse_map:k <- %r13d
	#DEBUG_VALUE: make_reverse_map:i <- %rbx
	#DEBUG_VALUE: make_reverse_map:newmap <- %r15
	#DEBUG_VALUE: make_reverse_map:charset <- %r14
	#DEBUG_VALUE: make_reverse_map:p <- %r12
	.loc	12 47 13                # charsets.c:47:13
	callq	_Z24__sanitizer_cov_trace_pcv
	#APP
	#NO_APP
.Ltmp554:
	.loc	12 64 7                 # charsets.c:64:7
	movzbl	%r13b, %eax
	.loc	12 64 14 is_stmt 0      # charsets.c:64:14
	movw	%bx, (%r12,%rax,2)
.Ltmp555:
	.loc	12 52 18 is_stmt 1      # charsets.c:52:18
	addq	$1, %rbx
.Ltmp556:
	.loc	12 52 12 is_stmt 0      # charsets.c:52:12
	movl	$256, %edi              # imm = 0x100
	movq	%rbx, %rsi
	callq	_Z32__sanitizer_cov_trace_const_cmp8mm
	cmpq	$256, %rbx              # imm = 0x100
.Ltmp557:
	.loc	12 52 2                 # charsets.c:52:2
	jb	.LBB21_2
	jmp	.LBB21_6
.Ltmp558:
.LBB21_7:                               # %if.then
	#DEBUG_VALUE: make_reverse_map:newmap <- %r15
	#DEBUG_VALUE: make_reverse_map:charset <- %r14
	.loc	12 49 3 is_stmt 1       # charsets.c:49:3
	callq	_Z24__sanitizer_cov_trace_pcv
	#APP
	#NO_APP
	movq	%r15, %rdi
	callq	free
	xorl	%r15d, %r15d
.Ltmp559:
.LBB21_6:                               # %cleanup
	#DEBUG_VALUE: make_reverse_map:charset <- %r14
	.loc	12 67 1                 # charsets.c:67:1
	callq	_Z24__sanitizer_cov_trace_pcv
	#APP
	#NO_APP
	movq	%r15, %rax
	addq	$8, %rsp
	popq	%rbx
	popq	%r12
	popq	%r13
	popq	%r14
.Ltmp560:
	popq	%r15
	popq	%rbp
	retq
.LBB21_8:                               # %if.then11
.Ltmp561:
	#DEBUG_VALUE: make_reverse_map:j <- %ebp
	#DEBUG_VALUE: make_reverse_map:k <- %r13d
	#DEBUG_VALUE: make_reverse_map:i <- %rbx
	#DEBUG_VALUE: make_reverse_map:newmap <- %r15
	#DEBUG_VALUE: make_reverse_map:charset <- %r14
	.loc	12 58 13                # charsets.c:58:13
	callq	_Z24__sanitizer_cov_trace_pcv
	#APP
	#NO_APP
	movq	stderr(%rip), %rcx
	.loc	12 58 5 is_stmt 0       # charsets.c:58:5
	movl	$.L.str.3.87, %edi
	movl	$33, %esi
	movl	$1, %edx
	callq	fwrite
	.loc	12 59 5 is_stmt 1       # charsets.c:59:5
	movl	$1, %edi
	callq	exit
.Ltmp562:
.Lfunc_end21:
	.size	make_reverse_map, .Lfunc_end21-make_reverse_map
	.cfi_endproc
                                        # -- End function
	.globl	stradd                  # -- Begin function stradd
	.p2align	4, 0x90
	.type	stradd,@function
stradd:                                 # @stradd
.Lfunc_begin22:
	.loc	21 123 0                # fileutil.c:123:0
	.cfi_startproc
# %bb.0:                                # %entry
	pushq	%r15
	.cfi_def_cfa_offset 16
	pushq	%r14
	.cfi_def_cfa_offset 24
	pushq	%rbx
	.cfi_def_cfa_offset 32
	.cfi_offset %rbx, -32
	.cfi_offset %r14, -24
	.cfi_offset %r15, -16
	#DEBUG_VALUE: stradd:s1 <- %rdi
	#DEBUG_VALUE: stradd:s2 <- %rsi
	movq	%rsi, %r14
	movq	%rdi, %r15
.Ltmp563:
	#DEBUG_VALUE: stradd:s2 <- %r14
	#DEBUG_VALUE: stradd:s1 <- %r15
	.loc	21 122 26 prologue_end  # fileutil.c:122:26
	callq	_Z24__sanitizer_cov_trace_pcv
	#APP
	#NO_APP
	.loc	21 124 13               # fileutil.c:124:13
	movq	%r15, %rdi
	callq	strlen
	movq	%rax, %rbx
	.loc	21 124 24 is_stmt 0     # fileutil.c:124:24
	movq	%r14, %rdi
	callq	strlen
	.loc	21 124 34               # fileutil.c:124:34
	leaq	(%rbx,%rax), %rdi
	addq	$1, %rdi
	.loc	21 124 6                # fileutil.c:124:6
	callq	malloc
	movq	%rax, %rbx
.Ltmp564:
	#DEBUG_VALUE: stradd:res <- %rbx
	.loc	21 125 7 is_stmt 1      # fileutil.c:125:7
	testq	%rbx, %rbx
.Ltmp565:
	.loc	21 125 6 is_stmt 0      # fileutil.c:125:6
	je	.LBB22_2
.Ltmp566:
# %bb.1:                                # %if.end
	#DEBUG_VALUE: stradd:res <- %rbx
	#DEBUG_VALUE: stradd:s1 <- %r15
	#DEBUG_VALUE: stradd:s2 <- %r14
	.loc	21 129 2 is_stmt 1      # fileutil.c:129:2
	callq	_Z24__sanitizer_cov_trace_pcv
	#APP
	#NO_APP
	movq	%rbx, %rdi
	movq	%r15, %rsi
	callq	strcpy
	.loc	21 130 2                # fileutil.c:130:2
	movq	%rbx, %rdi
	movq	%r14, %rsi
	callq	strcat
	.loc	21 131 2                # fileutil.c:131:2
	movq	%rbx, %rax
	popq	%rbx
.Ltmp567:
	popq	%r14
.Ltmp568:
	popq	%r15
.Ltmp569:
	retq
.LBB22_2:                               # %if.then
.Ltmp570:
	#DEBUG_VALUE: stradd:res <- %rbx
	#DEBUG_VALUE: stradd:s1 <- %r15
	#DEBUG_VALUE: stradd:s2 <- %r14
	.loc	21 126 12               # fileutil.c:126:12
	callq	_Z24__sanitizer_cov_trace_pcv
	#APP
	#NO_APP
	movq	stderr(%rip), %rcx
	.loc	21 126 3 is_stmt 0      # fileutil.c:126:3
	movl	$.L.str.3.134, %edi
	movl	$14, %esi
	movl	$1, %edx
	callq	fwrite
	.loc	21 127 3 is_stmt 1      # fileutil.c:127:3
	movl	$1, %edi
	callq	exit
.Ltmp571:
.Lfunc_end22:
	.size	stradd, .Lfunc_end22-stradd
	.cfi_endproc
                                        # -- End function
	.globl	read_substmap           # -- Begin function read_substmap
	.p2align	4, 0x90
	.type	read_substmap,@function
read_substmap:                          # @read_substmap
.Lfunc_begin23:
	.loc	16 35 0                 # substmap.c:35:0
	.cfi_startproc
# %bb.0:                                # %entry
	pushq	%rbp
	.cfi_def_cfa_offset 16
	pushq	%r15
	.cfi_def_cfa_offset 24
	pushq	%r14
	.cfi_def_cfa_offset 32
	pushq	%r13
	.cfi_def_cfa_offset 40
	pushq	%r12
	.cfi_def_cfa_offset 48
	pushq	%rbx
	.cfi_def_cfa_offset 56
	subq	$1368, %rsp             # imm = 0x558
	.cfi_def_cfa_offset 1424
	.cfi_offset %rbx, -56
	.cfi_offset %r12, -48
	.cfi_offset %r13, -40
	.cfi_offset %r14, -32
	.cfi_offset %r15, -24
	.cfi_offset %rbp, -16
	#DEBUG_VALUE: read_substmap:filename <- %rdi
	movq	%rdi, %rbx
	callq	_Z24__sanitizer_cov_trace_pcv
.Ltmp572:
	#APP
	#NO_APP
.Ltmp573:
	#DEBUG_VALUE: read_substmap:filename <- %rbx
	.loc	16 37 15 prologue_end   # substmap.c:37:15
	movl	$8, %edi
	movl	$256, %esi              # imm = 0x100
	callq	calloc
	movq	%rax, %r14
.Ltmp574:
	#DEBUG_VALUE: read_substmap:lineno <- 0
	#DEBUG_VALUE: read_substmap:map <- %r14
	#DEBUG_VALUE: map_insert:map <- %r14
	.loc	16 43 26                # substmap.c:43:26
	movq	map_path(%rip), %rsi
	.loc	16 43 7 is_stmt 0       # substmap.c:43:7
	movq	%rbx, %rdi
.Ltmp575:
	#DEBUG_VALUE: read_substmap:filename <- %rdi
	callq	find_file
.Ltmp576:
	movq	%rax, %r12
.Ltmp577:
	#DEBUG_VALUE: read_substmap:path <- %r12
	.loc	16 44 7 is_stmt 1       # substmap.c:44:7
	testq	%r12, %r12
.Ltmp578:
	.loc	16 44 6 is_stmt 0       # substmap.c:44:6
	je	.LBB23_1
.Ltmp579:
# %bb.3:                                # %if.end
	#DEBUG_VALUE: read_substmap:path <- %r12
	#DEBUG_VALUE: read_substmap:map <- %r14
	.loc	16 48 7 is_stmt 1       # substmap.c:48:7
	callq	_Z24__sanitizer_cov_trace_pcv
	#APP
	#NO_APP
	testq	%r14, %r14
.Ltmp580:
	.loc	16 48 6 is_stmt 0       # substmap.c:48:6
	je	.LBB23_4
.Ltmp581:
# %bb.6:                                # %if.end5
	#DEBUG_VALUE: read_substmap:path <- %r12
	#DEBUG_VALUE: read_substmap:map <- %r14
	.loc	16 52 4 is_stmt 1       # substmap.c:52:4
	callq	_Z24__sanitizer_cov_trace_pcv
	#APP
	#NO_APP
	movl	$.L.str.2.120, %esi
	movq	%r12, %rdi
	callq	fopen
	movq	%rax, %r15
.Ltmp582:
	#DEBUG_VALUE: read_substmap:f <- %r15
	.loc	16 53 7                 # substmap.c:53:7
	testq	%r15, %r15
.Ltmp583:
	.loc	16 53 6 is_stmt 0       # substmap.c:53:6
	je	.LBB23_7
.Ltmp584:
# %bb.8:                                # %if.end9
	#DEBUG_VALUE: read_substmap:f <- %r15
	#DEBUG_VALUE: read_substmap:path <- %r12
	#DEBUG_VALUE: read_substmap:map <- %r14
	.loc	16 58 6 is_stmt 1       # substmap.c:58:6
	callq	_Z24__sanitizer_cov_trace_pcv
	#APP
	#NO_APP
	movq	input_buffer(%rip), %rbx
	testq	%rbx, %rbx
.Ltmp585:
	.loc	16 58 6 is_stmt 0       # substmap.c:58:6
	je	.LBB23_10
.Ltmp586:
# %bb.9:                                # %if.then11
	#DEBUG_VALUE: read_substmap:f <- %r15
	#DEBUG_VALUE: read_substmap:path <- %r12
	#DEBUG_VALUE: read_substmap:map <- %r14
	.loc	16 59 3 is_stmt 1       # substmap.c:59:3
	callq	_Z24__sanitizer_cov_trace_pcv
	#APP
	#NO_APP
	xorl	%edx, %edx
	movl	$262144, %ecx           # imm = 0x40000
	movq	%r15, %rdi
	movq	%rbx, %rsi
	callq	setvbuf
.Ltmp587:
.LBB23_10:                              # %if.end13
	#DEBUG_VALUE: read_substmap:f <- %r15
	#DEBUG_VALUE: read_substmap:path <- %r12
	#DEBUG_VALUE: read_substmap:map <- %r14
	.loc	16 41 15                # substmap.c:41:15
	callq	_Z24__sanitizer_cov_trace_pcv
	#APP
	#NO_APP
	#DEBUG_VALUE: read_substmap:lineno <- 0
	.loc	16 61 10                # substmap.c:61:10
	movq	%r15, %rdi
	callq	feof
	movl	%eax, %ebx
	.loc	16 61 9 is_stmt 0       # substmap.c:61:9
	xorl	%edi, %edi
	movl	%ebx, %esi
	callq	_Z32__sanitizer_cov_trace_const_cmp4jj
	testl	%ebx, %ebx
	.loc	16 61 2                 # substmap.c:61:2
	jne	.LBB23_21
.Ltmp588:
# %bb.11:                               # %while.body.lr.ph.preheader
	#DEBUG_VALUE: read_substmap:f <- %r15
	#DEBUG_VALUE: read_substmap:path <- %r12
	#DEBUG_VALUE: read_substmap:map <- %r14
	callq	_Z24__sanitizer_cov_trace_pcv
	#APP
	#NO_APP
	leaq	336(%rsp), %rbp
	xorl	%r13d, %r13d
	jmp	.LBB23_12
.Ltmp589:
.LBB23_1:                               # %if.then
	#DEBUG_VALUE: read_substmap:path <- %r12
	#DEBUG_VALUE: read_substmap:map <- %r14
	.loc	16 45 3 is_stmt 1       # substmap.c:45:3
	callq	_Z24__sanitizer_cov_trace_pcv
	#APP
	#NO_APP
.Ltmp590:
.LBB23_2:                               # %cleanup
	#DEBUG_VALUE: read_substmap:path <- %r12
	#DEBUG_VALUE: read_substmap:map <- %r14
	.loc	16 0 3 is_stmt 0        # substmap.c:0:3
	movq	%r14, %rdi
	callq	free
	xorl	%r14d, %r14d
.Ltmp591:
	jmp	.LBB23_22
.Ltmp592:
.LBB23_7:                               # %if.then8
	#DEBUG_VALUE: read_substmap:f <- %r15
	#DEBUG_VALUE: read_substmap:path <- %r12
	#DEBUG_VALUE: read_substmap:map <- %r14
	.loc	16 54 3 is_stmt 1       # substmap.c:54:3
	callq	_Z24__sanitizer_cov_trace_pcv
	#APP
	#NO_APP
	movq	%r12, %rdi
	callq	perror
	jmp	.LBB23_2
.Ltmp593:
.LBB23_25:                              # %if.then46
                                        #   in Loop: Header=BB23_12 Depth=1
	#DEBUG_VALUE: read_substmap:map <- [DW_OP_plus_uconst 64] [%rsp+0]
	#DEBUG_VALUE: read_substmap:path <- [DW_OP_plus_uconst 40] [%rsp+0]
	#DEBUG_VALUE: read_substmap:p <- %r13
	#DEBUG_VALUE: read_substmap:uc <- %r12d
	#DEBUG_VALUE: read_substmap:lineno <- [DW_OP_plus_uconst 20] [%rsp+0]
	#DEBUG_VALUE: read_substmap:f <- %r15
	.loc	16 77 12                # substmap.c:77:12
	callq	_Z24__sanitizer_cov_trace_pcv
	#APP
	#NO_APP
	movq	stderr(%rip), %rdi
	.loc	16 77 4 is_stmt 0       # substmap.c:77:4
	movl	$.L.str.3.121, %esi
	xorl	%eax, %eax
	movq	40(%rsp), %rdx          # 8-byte Reload
	movl	20(%rsp), %ecx          # 4-byte Reload
	callq	fprintf
	jmp	.LBB23_20
.Ltmp594:
.LBB23_55:                              # %if.then105
                                        #   in Loop: Header=BB23_12 Depth=1
	#DEBUG_VALUE: read_substmap:map <- [DW_OP_plus_uconst 64] [%rsp+0]
	#DEBUG_VALUE: read_substmap:path <- [DW_OP_plus_uconst 40] [%rsp+0]
	#DEBUG_VALUE: read_substmap:p <- [DW_OP_plus_uconst 8] [%rsp+0]
	#DEBUG_VALUE: read_substmap:lineno <- [DW_OP_plus_uconst 20] [%rsp+0]
	#DEBUG_VALUE: read_substmap:f <- %r15
	.loc	16 113 12 is_stmt 1     # substmap.c:113:12
	callq	_Z24__sanitizer_cov_trace_pcv
	#APP
	#NO_APP
	movq	stderr(%rip), %rdi
	.loc	16 113 4 is_stmt 0      # substmap.c:113:4
	movl	$.L.str.4.122, %esi
	xorl	%eax, %eax
	movq	40(%rsp), %rdx          # 8-byte Reload
	movl	%r13d, %ecx
	callq	fprintf
	jmp	.LBB23_20
.Ltmp595:
	.p2align	4, 0x90
.LBB23_12:                              # %while.body.lr.ph
                                        # =>This Loop Header: Depth=1
                                        #     Child Loop BB23_14 Depth 2
                                        #     Child Loop BB23_17 Depth 2
                                        #     Child Loop BB23_29 Depth 2
                                        #     Child Loop BB23_45 Depth 2
                                        #     Child Loop BB23_58 Depth 2
	#DEBUG_VALUE: read_substmap:f <- %r15
	#DEBUG_VALUE: read_substmap:path <- %r12
	#DEBUG_VALUE: read_substmap:map <- %r14
	.loc	16 41 15 is_stmt 1      # substmap.c:41:15
	callq	_Z24__sanitizer_cov_trace_pcv
	#APP
	#NO_APP
.Ltmp596:
	.p2align	4, 0x90
.LBB23_14:                              # %while.body
                                        #   Parent Loop BB23_12 Depth=1
                                        # =>  This Inner Loop Header: Depth=2
	#DEBUG_VALUE: read_substmap:f <- %r15
	#DEBUG_VALUE: read_substmap:path <- %r12
	#DEBUG_VALUE: read_substmap:map <- %r14
	.loc	16 62 8                 # substmap.c:62:8
	callq	_Z24__sanitizer_cov_trace_pcv
	#APP
	#NO_APP
	movl	$1024, %esi             # imm = 0x400
	movq	%rbp, %rdi
	movq	%r15, %rdx
	callq	fgets
	testq	%rax, %rax
.Ltmp597:
	.loc	16 62 7 is_stmt 0       # substmap.c:62:7
	jne	.LBB23_15
.Ltmp598:
# %bb.13:                               # %while.cond
                                        #   in Loop: Header=BB23_14 Depth=2
	#DEBUG_VALUE: read_substmap:f <- %r15
	#DEBUG_VALUE: read_substmap:path <- %r12
	#DEBUG_VALUE: read_substmap:map <- %r14
	.loc	16 41 15 is_stmt 1      # substmap.c:41:15
	callq	_Z24__sanitizer_cov_trace_pcv
	#APP
	#NO_APP
	.loc	16 61 10                # substmap.c:61:10
	movq	%r15, %rdi
	callq	feof
	movl	%eax, %ebx
	.loc	16 61 9 is_stmt 0       # substmap.c:61:9
	xorl	%edi, %edi
	movl	%ebx, %esi
	callq	_Z32__sanitizer_cov_trace_const_cmp4jj
	testl	%ebx, %ebx
	je	.LBB23_14
	jmp	.LBB23_21
.Ltmp599:
	.p2align	4, 0x90
.LBB23_15:                              # %if.end19
                                        #   in Loop: Header=BB23_12 Depth=1
	#DEBUG_VALUE: read_substmap:f <- %r15
	#DEBUG_VALUE: read_substmap:path <- %r12
	#DEBUG_VALUE: read_substmap:map <- %r14
	#DEBUG_VALUE: read_substmap:lineno <- %r13d
	.loc	16 0 9                  # substmap.c:0:9
	movq	%r12, 40(%rsp)          # 8-byte Spill
.Ltmp600:
	#DEBUG_VALUE: read_substmap:path <- [DW_OP_plus_uconst 40] [%rsp+0]
	movq	%r14, 64(%rsp)          # 8-byte Spill
.Ltmp601:
	#DEBUG_VALUE: read_substmap:map <- [DW_OP_plus_uconst 64] [%rsp+0]
	.loc	16 63 9 is_stmt 1       # substmap.c:63:9
	callq	_Z24__sanitizer_cov_trace_pcv
	#APP
	#NO_APP
	addl	$1, %r13d
.Ltmp602:
	#DEBUG_VALUE: read_substmap:lineno <- %r13d
	.loc	16 0 9 is_stmt 0        # substmap.c:0:9
	movl	%r13d, 20(%rsp)         # 4-byte Spill
.Ltmp603:
	#DEBUG_VALUE: read_substmap:lineno <- [DW_OP_plus_uconst 20] [%rsp+0]
	#DEBUG_VALUE: read_substmap:lineno <- [DW_OP_plus_uconst 20] [%rsp+0]
	movq	%rbp, 8(%rsp)
.Ltmp604:
	.loc	16 67 14 is_stmt 1      # substmap.c:67:14
	movzbl	336(%rsp), %r13d
	xorl	%edi, %edi
	movl	%r13d, %esi
	callq	_Z32__sanitizer_cov_trace_const_cmp1hh
	testl	%r13d, %r13d
	.loc	16 67 17 is_stmt 0      # substmap.c:67:17
	je	.LBB23_20
.Ltmp605:
# %bb.16:                               # %land.rhs.lr.ph
                                        #   in Loop: Header=BB23_12 Depth=1
	#DEBUG_VALUE: read_substmap:map <- [DW_OP_plus_uconst 64] [%rsp+0]
	#DEBUG_VALUE: read_substmap:path <- [DW_OP_plus_uconst 40] [%rsp+0]
	#DEBUG_VALUE: read_substmap:lineno <- [DW_OP_plus_uconst 20] [%rsp+0]
	#DEBUG_VALUE: read_substmap:f <- %r15
	.loc	16 67 20                # substmap.c:67:20
	callq	_Z24__sanitizer_cov_trace_pcv
	#APP
	#NO_APP
	callq	__ctype_b_loc
	movq	%rax, %r14
	movq	(%r14), %r12
	leaq	337(%rsp), %rbx
.Ltmp606:
	.p2align	4, 0x90
.LBB23_17:                              # %land.rhs
                                        #   Parent Loop BB23_12 Depth=1
                                        # =>  This Inner Loop Header: Depth=2
	#DEBUG_VALUE: read_substmap:map <- [DW_OP_plus_uconst 64] [%rsp+0]
	#DEBUG_VALUE: read_substmap:path <- [DW_OP_plus_uconst 40] [%rsp+0]
	#DEBUG_VALUE: read_substmap:lineno <- [DW_OP_plus_uconst 20] [%rsp+0]
	#DEBUG_VALUE: read_substmap:f <- %r15
	.loc	16 38 27 is_stmt 1      # substmap.c:38:27
	callq	_Z24__sanitizer_cov_trace_pcv
	#APP
	#NO_APP
.Ltmp607:
	.loc	16 67 20                # substmap.c:67:20
	movsbq	%r13b, %rax
	movzwl	(%r12,%rax,2), %ebp
	.loc	16 67 17 is_stmt 0      # substmap.c:67:17
	andl	$8192, %ebp             # imm = 0x2000
	xorl	%edi, %edi
	movl	%ebp, %esi
	callq	_Z32__sanitizer_cov_trace_const_cmp2tt
	testw	%bp, %bp
.Ltmp608:
	.loc	16 67 3                 # substmap.c:67:3
	je	.LBB23_19
.Ltmp609:
# %bb.18:                               # %for.inc
                                        #   in Loop: Header=BB23_17 Depth=2
	#DEBUG_VALUE: read_substmap:map <- [DW_OP_plus_uconst 64] [%rsp+0]
	#DEBUG_VALUE: read_substmap:path <- [DW_OP_plus_uconst 40] [%rsp+0]
	#DEBUG_VALUE: read_substmap:lineno <- [DW_OP_plus_uconst 20] [%rsp+0]
	#DEBUG_VALUE: read_substmap:f <- %r15
	.loc	16 67 33                # substmap.c:67:33
	callq	_Z24__sanitizer_cov_trace_pcv
	#APP
	#NO_APP
	movq	%rbx, 8(%rsp)
	.loc	16 67 14                # substmap.c:67:14
	movzbl	(%rbx), %r13d
	xorl	%edi, %edi
	movl	%r13d, %esi
	callq	_Z32__sanitizer_cov_trace_const_cmp1hh
	.loc	16 67 17                # substmap.c:67:17
	addq	$1, %rbx
	.loc	16 67 14                # substmap.c:67:14
	testl	%r13d, %r13d
	.loc	16 67 17                # substmap.c:67:17
	jne	.LBB23_17
	jmp	.LBB23_20
.Ltmp610:
.LBB23_19:                              # %for.end
                                        #   in Loop: Header=BB23_12 Depth=1
	#DEBUG_VALUE: read_substmap:map <- [DW_OP_plus_uconst 64] [%rsp+0]
	#DEBUG_VALUE: read_substmap:path <- [DW_OP_plus_uconst 40] [%rsp+0]
	#DEBUG_VALUE: read_substmap:lineno <- [DW_OP_plus_uconst 20] [%rsp+0]
	#DEBUG_VALUE: read_substmap:f <- %r15
	.loc	16 38 27 is_stmt 1      # substmap.c:38:27
	callq	_Z24__sanitizer_cov_trace_pcv
	#APP
	#NO_APP
.Ltmp611:
	.loc	16 69 11                # substmap.c:69:11
	movzbl	%r13b, %esi
	movl	$35, %edi
	callq	_Z32__sanitizer_cov_trace_const_cmp1hh
	cmpb	$35, %r13b
	je	.LBB23_20
.Ltmp612:
# %bb.23:                               # %if.end30
                                        #   in Loop: Header=BB23_12 Depth=1
	#DEBUG_VALUE: read_substmap:map <- [DW_OP_plus_uconst 64] [%rsp+0]
	#DEBUG_VALUE: read_substmap:path <- [DW_OP_plus_uconst 40] [%rsp+0]
	#DEBUG_VALUE: read_substmap:lineno <- [DW_OP_plus_uconst 20] [%rsp+0]
	#DEBUG_VALUE: read_substmap:f <- %r15
	.loc	16 0 11 is_stmt 0       # substmap.c:0:11
	addq	$-1, %rbx
	.loc	16 38 27 is_stmt 1      # substmap.c:38:27
	callq	_Z24__sanitizer_cov_trace_pcv
	#APP
	#NO_APP
.Ltmp613:
	#DEBUG_VALUE: read_substmap:p <- [DW_OP_plus_uconst 8] [%rsp+0]
	.loc	16 75 8                 # substmap.c:75:8
	movl	$16, %edx
	movq	%rbx, %rdi
	leaq	8(%rsp), %rsi
	callq	strtol
	movq	%rax, %r12
.Ltmp614:
	#DEBUG_VALUE: read_substmap:uc <- %r12d
	#DEBUG_VALUE: map_insert:uc <- %r12d
	.loc	16 76 8                 # substmap.c:76:8
	movq	(%r14), %rax
	movq	8(%rsp), %r13
.Ltmp615:
	#DEBUG_VALUE: read_substmap:p <- %r13
	movsbq	(%r13), %rcx
	movq	%rax, 24(%rsp)          # 8-byte Spill
	movq	%rcx, %rbp
	movzwl	(%rax,%rcx,2), %r14d
	movl	%r14d, %ebx
	andl	$8192, %ebx             # imm = 0x2000
	xorl	%edi, %edi
	movl	%ebx, %esi
	callq	_Z32__sanitizer_cov_trace_const_cmp2tt
	.loc	16 76 19 is_stmt 0      # substmap.c:76:19
	movl	$65533, %edi            # imm = 0xFFFD
	movl	%r12d, %esi
	callq	_Z32__sanitizer_cov_trace_const_cmp4jj
	cmpl	$65533, %r12d           # imm = 0xFFFD
	ja	.LBB23_25
.Ltmp616:
# %bb.24:                               # %if.end30
                                        #   in Loop: Header=BB23_12 Depth=1
	#DEBUG_VALUE: read_substmap:map <- [DW_OP_plus_uconst 64] [%rsp+0]
	#DEBUG_VALUE: read_substmap:path <- [DW_OP_plus_uconst 40] [%rsp+0]
	#DEBUG_VALUE: read_substmap:p <- %r13
	#DEBUG_VALUE: read_substmap:uc <- %r12d
	#DEBUG_VALUE: read_substmap:lineno <- [DW_OP_plus_uconst 20] [%rsp+0]
	#DEBUG_VALUE: read_substmap:f <- %r15
	testw	%bx, %bx
	je	.LBB23_25
.Ltmp617:
# %bb.26:                               # %if.end48
                                        #   in Loop: Header=BB23_12 Depth=1
	#DEBUG_VALUE: read_substmap:map <- [DW_OP_plus_uconst 64] [%rsp+0]
	#DEBUG_VALUE: read_substmap:path <- [DW_OP_plus_uconst 40] [%rsp+0]
	#DEBUG_VALUE: read_substmap:p <- %r13
	#DEBUG_VALUE: read_substmap:uc <- %r12d
	#DEBUG_VALUE: read_substmap:lineno <- [DW_OP_plus_uconst 20] [%rsp+0]
	#DEBUG_VALUE: read_substmap:f <- %r15
	.loc	16 38 27 is_stmt 1      # substmap.c:38:27
	callq	_Z24__sanitizer_cov_trace_pcv
	#APP
	#NO_APP
.Ltmp618:
	.loc	16 81 8                 # substmap.c:81:8
	movzbl	%bpl, %ebx
	xorl	%edi, %edi
	movl	%ebx, %esi
	callq	_Z32__sanitizer_cov_trace_const_cmp1hh
	testb	%bl, %bl
	.loc	16 81 11 is_stmt 0      # substmap.c:81:11
	je	.LBB23_20
.Ltmp619:
# %bb.27:                               # %land.rhs52.lr.ph
                                        #   in Loop: Header=BB23_12 Depth=1
	#DEBUG_VALUE: read_substmap:map <- [DW_OP_plus_uconst 64] [%rsp+0]
	#DEBUG_VALUE: read_substmap:path <- [DW_OP_plus_uconst 40] [%rsp+0]
	#DEBUG_VALUE: read_substmap:p <- %r13
	#DEBUG_VALUE: read_substmap:uc <- %r12d
	#DEBUG_VALUE: read_substmap:lineno <- [DW_OP_plus_uconst 20] [%rsp+0]
	#DEBUG_VALUE: read_substmap:f <- %r15
	.loc	16 81 14                # substmap.c:81:14
	callq	_Z24__sanitizer_cov_trace_pcv
	#APP
	#NO_APP
	andl	$8192, %r14d            # imm = 0x2000
	.loc	16 81 11                # substmap.c:81:11
	xorl	%edi, %edi
	movl	%r14d, %esi
	callq	_Z32__sanitizer_cov_trace_const_cmp2tt
	testw	%r14w, %r14w
.Ltmp620:
	.loc	16 81 3                 # substmap.c:81:3
	je	.LBB23_32
.Ltmp621:
# %bb.28:                               # %for.inc62.preheader
                                        #   in Loop: Header=BB23_12 Depth=1
	#DEBUG_VALUE: read_substmap:map <- [DW_OP_plus_uconst 64] [%rsp+0]
	#DEBUG_VALUE: read_substmap:path <- [DW_OP_plus_uconst 40] [%rsp+0]
	#DEBUG_VALUE: read_substmap:p <- %r13
	#DEBUG_VALUE: read_substmap:uc <- %r12d
	#DEBUG_VALUE: read_substmap:lineno <- [DW_OP_plus_uconst 20] [%rsp+0]
	#DEBUG_VALUE: read_substmap:f <- %r15
	.loc	16 81 27                # substmap.c:81:27
	callq	_Z24__sanitizer_cov_trace_pcv
	#APP
	#NO_APP
	addq	$1, %r13
.Ltmp622:
	.loc	16 0 27                 # substmap.c:0:27
	movq	24(%rsp), %r14          # 8-byte Reload
.Ltmp623:
.LBB23_29:                              # %for.inc62
                                        #   Parent Loop BB23_12 Depth=1
                                        # =>  This Inner Loop Header: Depth=2
	#DEBUG_VALUE: read_substmap:map <- [DW_OP_plus_uconst 64] [%rsp+0]
	#DEBUG_VALUE: read_substmap:path <- [DW_OP_plus_uconst 40] [%rsp+0]
	#DEBUG_VALUE: read_substmap:uc <- %r12d
	#DEBUG_VALUE: read_substmap:lineno <- [DW_OP_plus_uconst 20] [%rsp+0]
	#DEBUG_VALUE: read_substmap:f <- %r15
	.loc	16 81 27                # substmap.c:81:27
	callq	_Z24__sanitizer_cov_trace_pcv
	#APP
	#NO_APP
	.loc	16 81 8                 # substmap.c:81:8
	movzbl	(%r13), %ebp
	xorl	%edi, %edi
	movl	%ebp, %esi
	callq	_Z32__sanitizer_cov_trace_const_cmp1hh
	testl	%ebp, %ebp
	.loc	16 81 11                # substmap.c:81:11
	je	.LBB23_84
.Ltmp624:
# %bb.30:                               # %for.inc62.land.rhs52_crit_edge
                                        #   in Loop: Header=BB23_29 Depth=2
	#DEBUG_VALUE: read_substmap:map <- [DW_OP_plus_uconst 64] [%rsp+0]
	#DEBUG_VALUE: read_substmap:path <- [DW_OP_plus_uconst 40] [%rsp+0]
	#DEBUG_VALUE: read_substmap:uc <- %r12d
	#DEBUG_VALUE: read_substmap:lineno <- [DW_OP_plus_uconst 20] [%rsp+0]
	#DEBUG_VALUE: read_substmap:f <- %r15
	.loc	16 0 11                 # substmap.c:0:11
	movsbq	%bpl, %rbx
	callq	_Z24__sanitizer_cov_trace_pcv
	#APP
	#NO_APP
	.loc	16 81 14                # substmap.c:81:14
	movzwl	(%r14,%rbx,2), %ebx
	.loc	16 81 11                # substmap.c:81:11
	andl	$8192, %ebx             # imm = 0x2000
	xorl	%edi, %edi
	movl	%ebx, %esi
	callq	_Z32__sanitizer_cov_trace_const_cmp2tt
.Ltmp625:
	.loc	16 81 3                 # substmap.c:81:3
	addq	$1, %r13
.Ltmp626:
	.loc	16 81 11                # substmap.c:81:11
	testw	%bx, %bx
.Ltmp627:
	.loc	16 81 3                 # substmap.c:81:3
	jne	.LBB23_29
.Ltmp628:
# %bb.31:                               # %if.end67.loopexit
                                        #   in Loop: Header=BB23_12 Depth=1
	#DEBUG_VALUE: read_substmap:map <- [DW_OP_plus_uconst 64] [%rsp+0]
	#DEBUG_VALUE: read_substmap:path <- [DW_OP_plus_uconst 40] [%rsp+0]
	#DEBUG_VALUE: read_substmap:uc <- %r12d
	#DEBUG_VALUE: read_substmap:lineno <- [DW_OP_plus_uconst 20] [%rsp+0]
	#DEBUG_VALUE: read_substmap:f <- %r15
	.loc	16 81 27                # substmap.c:81:27
	addq	$-1, %r13
.Ltmp629:
.LBB23_32:                              # %if.end67
                                        #   in Loop: Header=BB23_12 Depth=1
	#DEBUG_VALUE: read_substmap:map <- [DW_OP_plus_uconst 64] [%rsp+0]
	#DEBUG_VALUE: read_substmap:path <- [DW_OP_plus_uconst 40] [%rsp+0]
	#DEBUG_VALUE: read_substmap:uc <- %r12d
	#DEBUG_VALUE: read_substmap:lineno <- [DW_OP_plus_uconst 20] [%rsp+0]
	#DEBUG_VALUE: read_substmap:f <- %r15
	callq	_Z24__sanitizer_cov_trace_pcv
	#APP
	#NO_APP
	movq	%r13, 8(%rsp)
	movq	%rbp, %rax
.Ltmp630:
	.loc	16 83 11 is_stmt 1      # substmap.c:83:11
	movsbl	%al, %ebx
	.loc	16 83 3 is_stmt 0       # substmap.c:83:3
	movl	$__sancov_gen_cov_switch_values.4, %esi
	movq	%rbx, %rdi
	callq	_Z28__sanitizer_cov_trace_switchmPm
	cmpl	$39, %ebx
	movq	%r12, 72(%rsp)          # 8-byte Spill
	jle	.LBB23_33
.Ltmp631:
# %bb.36:                               # %if.end67
                                        #   in Loop: Header=BB23_12 Depth=1
	#DEBUG_VALUE: read_substmap:map <- [DW_OP_plus_uconst 64] [%rsp+0]
	#DEBUG_VALUE: read_substmap:path <- [DW_OP_plus_uconst 40] [%rsp+0]
	#DEBUG_VALUE: read_substmap:uc <- %r12d
	#DEBUG_VALUE: read_substmap:lineno <- [DW_OP_plus_uconst 20] [%rsp+0]
	#DEBUG_VALUE: read_substmap:f <- %r15
	cmpl	$40, %ebx
	je	.LBB23_37
.Ltmp632:
# %bb.38:                               # %if.end67
                                        #   in Loop: Header=BB23_12 Depth=1
	#DEBUG_VALUE: read_substmap:map <- [DW_OP_plus_uconst 64] [%rsp+0]
	#DEBUG_VALUE: read_substmap:path <- [DW_OP_plus_uconst 40] [%rsp+0]
	#DEBUG_VALUE: read_substmap:uc <- %r12d
	#DEBUG_VALUE: read_substmap:lineno <- [DW_OP_plus_uconst 20] [%rsp+0]
	#DEBUG_VALUE: read_substmap:f <- %r15
	cmpl	$91, %ebx
	je	.LBB23_85
.Ltmp633:
# %bb.39:                               # %if.end67
                                        #   in Loop: Header=BB23_12 Depth=1
	#DEBUG_VALUE: read_substmap:map <- [DW_OP_plus_uconst 64] [%rsp+0]
	#DEBUG_VALUE: read_substmap:path <- [DW_OP_plus_uconst 40] [%rsp+0]
	#DEBUG_VALUE: read_substmap:uc <- %r12d
	#DEBUG_VALUE: read_substmap:lineno <- [DW_OP_plus_uconst 20] [%rsp+0]
	#DEBUG_VALUE: read_substmap:f <- %r15
	cmpl	$123, %ebx
	jne	.LBB23_41
.Ltmp634:
# %bb.40:                               # %sw.bb71
                                        #   in Loop: Header=BB23_12 Depth=1
	#DEBUG_VALUE: read_substmap:map <- [DW_OP_plus_uconst 64] [%rsp+0]
	#DEBUG_VALUE: read_substmap:path <- [DW_OP_plus_uconst 40] [%rsp+0]
	#DEBUG_VALUE: read_substmap:uc <- %r12d
	#DEBUG_VALUE: read_substmap:lineno <- [DW_OP_plus_uconst 20] [%rsp+0]
	#DEBUG_VALUE: read_substmap:f <- %r15
	.loc	16 40 7 is_stmt 1       # substmap.c:40:7
	callq	_Z24__sanitizer_cov_trace_pcv
	#APP
	#NO_APP
.Ltmp635:
	#DEBUG_VALUE: read_substmap:stopchar <- 125
	.loc	16 0 7 is_stmt 0        # substmap.c:0:7
	movb	$125, %r12b
.Ltmp636:
	jmp	.LBB23_42
.Ltmp637:
.LBB23_33:                              # %if.end67
                                        #   in Loop: Header=BB23_12 Depth=1
	#DEBUG_VALUE: read_substmap:map <- [DW_OP_plus_uconst 64] [%rsp+0]
	#DEBUG_VALUE: read_substmap:path <- [DW_OP_plus_uconst 40] [%rsp+0]
	#DEBUG_VALUE: read_substmap:uc <- %r12d
	#DEBUG_VALUE: read_substmap:lineno <- [DW_OP_plus_uconst 20] [%rsp+0]
	#DEBUG_VALUE: read_substmap:f <- %r15
	.loc	16 83 3 is_stmt 1       # substmap.c:83:3
	cmpl	$34, %ebx
	je	.LBB23_35
.Ltmp638:
# %bb.34:                               # %if.end67
                                        #   in Loop: Header=BB23_12 Depth=1
	#DEBUG_VALUE: read_substmap:map <- [DW_OP_plus_uconst 64] [%rsp+0]
	#DEBUG_VALUE: read_substmap:path <- [DW_OP_plus_uconst 40] [%rsp+0]
	#DEBUG_VALUE: read_substmap:uc <- %r12d
	#DEBUG_VALUE: read_substmap:lineno <- [DW_OP_plus_uconst 20] [%rsp+0]
	#DEBUG_VALUE: read_substmap:f <- %r15
	cmpl	$39, %ebx
	jne	.LBB23_41
.Ltmp639:
.LBB23_35:                              # %sw.bb
                                        #   in Loop: Header=BB23_12 Depth=1
	#DEBUG_VALUE: read_substmap:map <- [DW_OP_plus_uconst 64] [%rsp+0]
	#DEBUG_VALUE: read_substmap:path <- [DW_OP_plus_uconst 40] [%rsp+0]
	#DEBUG_VALUE: read_substmap:uc <- %r12d
	#DEBUG_VALUE: read_substmap:lineno <- [DW_OP_plus_uconst 20] [%rsp+0]
	#DEBUG_VALUE: read_substmap:f <- %r15
	.loc	16 38 27                # substmap.c:38:27
	callq	_Z24__sanitizer_cov_trace_pcv
	#APP
	#NO_APP
	movq	%rbp, %r12
.Ltmp640:
	.loc	16 0 27 is_stmt 0       # substmap.c:0:27
	jmp	.LBB23_42
.Ltmp641:
.LBB23_84:                              # %for.cond49.if.then66_crit_edge
                                        #   in Loop: Header=BB23_12 Depth=1
	#DEBUG_VALUE: read_substmap:map <- [DW_OP_plus_uconst 64] [%rsp+0]
	#DEBUG_VALUE: read_substmap:path <- [DW_OP_plus_uconst 40] [%rsp+0]
	#DEBUG_VALUE: read_substmap:uc <- %r12d
	#DEBUG_VALUE: read_substmap:lineno <- [DW_OP_plus_uconst 20] [%rsp+0]
	#DEBUG_VALUE: read_substmap:f <- %r15
	.loc	16 81 27 is_stmt 1      # substmap.c:81:27
	callq	_Z24__sanitizer_cov_trace_pcv
	#APP
	#NO_APP
	movq	%r13, 8(%rsp)
	jmp	.LBB23_20
.Ltmp642:
.LBB23_37:                              #   in Loop: Header=BB23_12 Depth=1
	#DEBUG_VALUE: read_substmap:map <- [DW_OP_plus_uconst 64] [%rsp+0]
	#DEBUG_VALUE: read_substmap:path <- [DW_OP_plus_uconst 40] [%rsp+0]
	#DEBUG_VALUE: read_substmap:uc <- %r12d
	#DEBUG_VALUE: read_substmap:lineno <- [DW_OP_plus_uconst 20] [%rsp+0]
	#DEBUG_VALUE: read_substmap:f <- %r15
	.loc	16 0 27 is_stmt 0       # substmap.c:0:27
	movb	$41, %r12b
.Ltmp643:
	jmp	.LBB23_42
.Ltmp644:
.LBB23_85:                              # %sw.bb70
                                        #   in Loop: Header=BB23_12 Depth=1
	#DEBUG_VALUE: read_substmap:map <- [DW_OP_plus_uconst 64] [%rsp+0]
	#DEBUG_VALUE: read_substmap:path <- [DW_OP_plus_uconst 40] [%rsp+0]
	#DEBUG_VALUE: read_substmap:uc <- %r12d
	#DEBUG_VALUE: read_substmap:lineno <- [DW_OP_plus_uconst 20] [%rsp+0]
	#DEBUG_VALUE: read_substmap:f <- %r15
	.loc	16 40 7 is_stmt 1       # substmap.c:40:7
	callq	_Z24__sanitizer_cov_trace_pcv
	#APP
	#NO_APP
.Ltmp645:
	#DEBUG_VALUE: read_substmap:stopchar <- 93
	.loc	16 0 7 is_stmt 0        # substmap.c:0:7
	movb	$93, %r12b
.Ltmp646:
	jmp	.LBB23_42
.Ltmp647:
.LBB23_41:                              # %sw.default
                                        #   in Loop: Header=BB23_12 Depth=1
	#DEBUG_VALUE: read_substmap:map <- [DW_OP_plus_uconst 64] [%rsp+0]
	#DEBUG_VALUE: read_substmap:path <- [DW_OP_plus_uconst 40] [%rsp+0]
	#DEBUG_VALUE: read_substmap:uc <- %r12d
	#DEBUG_VALUE: read_substmap:lineno <- [DW_OP_plus_uconst 20] [%rsp+0]
	#DEBUG_VALUE: read_substmap:f <- %r15
	.loc	16 98 6 is_stmt 1       # substmap.c:98:6
	callq	_Z24__sanitizer_cov_trace_pcv
	#APP
	#NO_APP
	addq	$-1, %r13
.Ltmp648:
	#DEBUG_VALUE: read_substmap:p <- %r13
	movq	%r13, 8(%rsp)
.Ltmp649:
	#DEBUG_VALUE: read_substmap:stopchar <- 10
	.loc	16 0 6 is_stmt 0        # substmap.c:0:6
	movb	$10, %r12b
.Ltmp650:
.LBB23_42:                              # %sw.epilog
                                        #   in Loop: Header=BB23_12 Depth=1
	#DEBUG_VALUE: read_substmap:map <- [DW_OP_plus_uconst 64] [%rsp+0]
	#DEBUG_VALUE: read_substmap:path <- [DW_OP_plus_uconst 40] [%rsp+0]
	#DEBUG_VALUE: read_substmap:lineno <- [DW_OP_plus_uconst 20] [%rsp+0]
	#DEBUG_VALUE: read_substmap:f <- %r15
	#DEBUG_VALUE: read_substmap:p <- %r13
	.loc	16 40 7 is_stmt 1       # substmap.c:40:7
	callq	_Z24__sanitizer_cov_trace_pcv
	#APP
	#NO_APP
.Ltmp651:
	.loc	16 101 4                # substmap.c:101:4
	leaq	1(%r13), %rax
.Ltmp652:
	#DEBUG_VALUE: read_substmap:q <- %rax
	#DEBUG_VALUE: read_substmap:p <- %rax
	.loc	16 0 4 is_stmt 0        # substmap.c:0:4
	movq	%rax, 32(%rsp)          # 8-byte Spill
.Ltmp653:
	#DEBUG_VALUE: read_substmap:q <- [DW_OP_plus_uconst 32] [%rsp+0]
	#DEBUG_VALUE: read_substmap:p <- [DW_OP_plus_uconst 32] [%rsp+0]
	.loc	16 101 4                # substmap.c:101:4
	movq	%rax, 8(%rsp)
	.loc	16 104 10 is_stmt 1     # substmap.c:104:10
	movzbl	1(%r13), %ebp
.Ltmp654:
	#DEBUG_VALUE: read_substmap:escaped <- 0
	xorl	%r14d, %r14d
	xorl	%edi, %edi
	movl	%ebp, %esi
	callq	_Z32__sanitizer_cov_trace_const_cmp1hh
	testl	%ebp, %ebp
	movq	%r12, 56(%rsp)          # 8-byte Spill
	.loc	16 104 13 is_stmt 0     # substmap.c:104:13
	je	.LBB23_43
.Ltmp655:
# %bb.44:                               # %land.rhs77.lr.ph
                                        #   in Loop: Header=BB23_12 Depth=1
	#DEBUG_VALUE: read_substmap:map <- [DW_OP_plus_uconst 64] [%rsp+0]
	#DEBUG_VALUE: read_substmap:path <- [DW_OP_plus_uconst 40] [%rsp+0]
	#DEBUG_VALUE: read_substmap:q <- [DW_OP_plus_uconst 32] [%rsp+0]
	#DEBUG_VALUE: read_substmap:p <- [DW_OP_plus_uconst 8] [%rsp+0]
	#DEBUG_VALUE: read_substmap:lineno <- [DW_OP_plus_uconst 20] [%rsp+0]
	#DEBUG_VALUE: read_substmap:f <- %r15
	.loc	16 0 13                 # substmap.c:0:13
	callq	_Z24__sanitizer_cov_trace_pcv
	#APP
	#NO_APP
.Ltmp656:
	#DEBUG_VALUE: read_substmap:stopchar <- [DW_OP_plus_uconst 56] [%rsp+0]
	movzbl	%r12b, %esi
	movl	$10, %edi
	movl	%esi, 52(%rsp)          # 4-byte Spill
	callq	_Z32__sanitizer_cov_trace_const_cmp1hh
	movl	20(%rsp), %r13d         # 4-byte Reload
.Ltmp657:
.LBB23_45:                              # %land.rhs77
                                        #   Parent Loop BB23_12 Depth=1
                                        # =>  This Inner Loop Header: Depth=2
	#DEBUG_VALUE: read_substmap:map <- [DW_OP_plus_uconst 64] [%rsp+0]
	#DEBUG_VALUE: read_substmap:path <- [DW_OP_plus_uconst 40] [%rsp+0]
	#DEBUG_VALUE: read_substmap:stopchar <- [DW_OP_plus_uconst 56] [%rsp+0]
	#DEBUG_VALUE: read_substmap:q <- [DW_OP_plus_uconst 32] [%rsp+0]
	#DEBUG_VALUE: read_substmap:p <- [DW_OP_plus_uconst 8] [%rsp+0]
	#DEBUG_VALUE: read_substmap:lineno <- [DW_OP_plus_uconst 20] [%rsp+0]
	#DEBUG_VALUE: read_substmap:f <- %r15
	.loc	16 25 18 is_stmt 1      # substmap.c:25:18
	callq	_Z24__sanitizer_cov_trace_pcv
	#APP
	#NO_APP
	cmpb	$10, %r12b
	.loc	16 26 6                 # substmap.c:26:6
	jne	.LBB23_47
.Ltmp658:
# %bb.46:                               # %if.then.i
                                        #   in Loop: Header=BB23_45 Depth=2
	#DEBUG_VALUE: read_substmap:map <- [DW_OP_plus_uconst 64] [%rsp+0]
	#DEBUG_VALUE: read_substmap:path <- [DW_OP_plus_uconst 40] [%rsp+0]
	#DEBUG_VALUE: read_substmap:stopchar <- [DW_OP_plus_uconst 56] [%rsp+0]
	#DEBUG_VALUE: read_substmap:q <- [DW_OP_plus_uconst 32] [%rsp+0]
	#DEBUG_VALUE: read_substmap:p <- [DW_OP_plus_uconst 8] [%rsp+0]
	#DEBUG_VALUE: read_substmap:lineno <- [DW_OP_plus_uconst 20] [%rsp+0]
	#DEBUG_VALUE: read_substmap:f <- %r15
	.loc	16 27 10                # substmap.c:27:10
	callq	_Z24__sanitizer_cov_trace_pcv
	#APP
	#NO_APP
	movsbq	%bpl, %rax
	movq	24(%rsp), %rcx          # 8-byte Reload
	movzwl	(%rcx,%rax,2), %ebx
	andl	$8192, %ebx             # imm = 0x2000
	jmp	.LBB23_48
.Ltmp659:
.LBB23_47:                              # %if.else.i
                                        #   in Loop: Header=BB23_45 Depth=2
	#DEBUG_VALUE: read_substmap:map <- [DW_OP_plus_uconst 64] [%rsp+0]
	#DEBUG_VALUE: read_substmap:path <- [DW_OP_plus_uconst 40] [%rsp+0]
	#DEBUG_VALUE: read_substmap:stopchar <- [DW_OP_plus_uconst 56] [%rsp+0]
	#DEBUG_VALUE: read_substmap:q <- [DW_OP_plus_uconst 32] [%rsp+0]
	#DEBUG_VALUE: read_substmap:p <- [DW_OP_plus_uconst 8] [%rsp+0]
	#DEBUG_VALUE: read_substmap:lineno <- [DW_OP_plus_uconst 20] [%rsp+0]
	#DEBUG_VALUE: read_substmap:f <- %r15
	.loc	16 29 11                # substmap.c:29:11
	callq	_Z24__sanitizer_cov_trace_pcv
	#APP
	#NO_APP
.Ltmp660:
	#DEBUG_VALUE: isstop:c <- %bpl
	movzbl	%bpl, %r13d
	movl	%r13d, %edi
	movl	52(%rsp), %esi          # 4-byte Reload
	callq	_Z26__sanitizer_cov_trace_cmp1hh
	xorl	%ebx, %ebx
	cmpb	%r12b, %r13b
	movl	20(%rsp), %r13d         # 4-byte Reload
	sete	%bl
.Ltmp661:
.LBB23_48:                              # %isstop.exit
                                        #   in Loop: Header=BB23_45 Depth=2
	#DEBUG_VALUE: read_substmap:map <- [DW_OP_plus_uconst 64] [%rsp+0]
	#DEBUG_VALUE: read_substmap:path <- [DW_OP_plus_uconst 40] [%rsp+0]
	#DEBUG_VALUE: read_substmap:stopchar <- [DW_OP_plus_uconst 56] [%rsp+0]
	#DEBUG_VALUE: read_substmap:q <- [DW_OP_plus_uconst 32] [%rsp+0]
	#DEBUG_VALUE: read_substmap:p <- [DW_OP_plus_uconst 8] [%rsp+0]
	#DEBUG_VALUE: read_substmap:lineno <- [DW_OP_plus_uconst 20] [%rsp+0]
	#DEBUG_VALUE: read_substmap:f <- %r15
	.loc	16 104 18               # substmap.c:104:18
	callq	_Z24__sanitizer_cov_trace_pcv
	#APP
	#NO_APP
	xorl	%edi, %edi
	movl	%ebx, %esi
	callq	_Z32__sanitizer_cov_trace_const_cmp4jj
.Ltmp662:
	#DEBUG_VALUE: read_substmap:escaped <- %r14d
	.loc	16 104 38 is_stmt 0     # substmap.c:104:38
	xorl	%edi, %edi
	movl	%r14d, %esi
	callq	_Z32__sanitizer_cov_trace_const_cmp4jj
	testl	%r14d, %r14d
	.loc	16 104 3                # substmap.c:104:3
	jne	.LBB23_50
.Ltmp663:
# %bb.49:                               # %isstop.exit
                                        #   in Loop: Header=BB23_45 Depth=2
	#DEBUG_VALUE: read_substmap:map <- [DW_OP_plus_uconst 64] [%rsp+0]
	#DEBUG_VALUE: read_substmap:path <- [DW_OP_plus_uconst 40] [%rsp+0]
	#DEBUG_VALUE: read_substmap:escaped <- %r14d
	#DEBUG_VALUE: read_substmap:stopchar <- [DW_OP_plus_uconst 56] [%rsp+0]
	#DEBUG_VALUE: read_substmap:q <- [DW_OP_plus_uconst 32] [%rsp+0]
	#DEBUG_VALUE: read_substmap:p <- [DW_OP_plus_uconst 8] [%rsp+0]
	#DEBUG_VALUE: read_substmap:lineno <- [DW_OP_plus_uconst 20] [%rsp+0]
	#DEBUG_VALUE: read_substmap:f <- %r15
	testl	%ebx, %ebx
	jne	.LBB23_52
.Ltmp664:
.LBB23_50:                              # %while.body82
                                        #   in Loop: Header=BB23_45 Depth=2
	#DEBUG_VALUE: read_substmap:map <- [DW_OP_plus_uconst 64] [%rsp+0]
	#DEBUG_VALUE: read_substmap:path <- [DW_OP_plus_uconst 40] [%rsp+0]
	#DEBUG_VALUE: read_substmap:escaped <- %r14d
	#DEBUG_VALUE: read_substmap:stopchar <- [DW_OP_plus_uconst 56] [%rsp+0]
	#DEBUG_VALUE: read_substmap:q <- [DW_OP_plus_uconst 32] [%rsp+0]
	#DEBUG_VALUE: read_substmap:p <- [DW_OP_plus_uconst 8] [%rsp+0]
	#DEBUG_VALUE: read_substmap:lineno <- [DW_OP_plus_uconst 20] [%rsp+0]
	#DEBUG_VALUE: read_substmap:f <- %r15
	#DEBUG_VALUE: read_substmap:q <- [DW_OP_plus_uconst 32] [%rsp+0]
	.loc	16 104 38               # substmap.c:104:38
	testl	%r14d, %r14d
	sete	%bl
.Ltmp665:
	.loc	16 108 17 is_stmt 1     # substmap.c:108:17
	callq	_Z24__sanitizer_cov_trace_pcv
	#APP
	#NO_APP
	movzbl	%bpl, %esi
	movl	$92, %edi
	callq	_Z32__sanitizer_cov_trace_const_cmp1hh
	cmpb	$92, %bpl
	sete	%al
.Ltmp666:
	.loc	16 105 8                # substmap.c:105:8
	andb	%bl, %al
	movzbl	%al, %r14d
.Ltmp667:
	.loc	16 0 8 is_stmt 0        # substmap.c:0:8
	movq	32(%rsp), %rax          # 8-byte Reload
.Ltmp668:
	#DEBUG_VALUE: read_substmap:q <- %rax
	.loc	16 104 10 is_stmt 1     # substmap.c:104:10
	movzbl	1(%rax), %ebp
.Ltmp669:
	#DEBUG_VALUE: read_substmap:escaped <- %r14d
	.loc	16 110 5                # substmap.c:110:5
	addq	$1, %rax
.Ltmp670:
	.loc	16 0 5 is_stmt 0        # substmap.c:0:5
	movq	%rax, 32(%rsp)          # 8-byte Spill
.Ltmp671:
	.loc	16 104 10 is_stmt 1     # substmap.c:104:10
	xorl	%edi, %edi
	movl	%ebp, %esi
	callq	_Z32__sanitizer_cov_trace_const_cmp1hh
	testl	%ebp, %ebp
	movq	56(%rsp), %r12          # 8-byte Reload
	.loc	16 104 13 is_stmt 0     # substmap.c:104:13
	jne	.LBB23_45
.Ltmp672:
# %bb.51:                               #   in Loop: Header=BB23_12 Depth=1
	#DEBUG_VALUE: read_substmap:map <- [DW_OP_plus_uconst 64] [%rsp+0]
	#DEBUG_VALUE: read_substmap:path <- [DW_OP_plus_uconst 40] [%rsp+0]
	#DEBUG_VALUE: read_substmap:escaped <- %r14d
	#DEBUG_VALUE: read_substmap:stopchar <- [DW_OP_plus_uconst 56] [%rsp+0]
	#DEBUG_VALUE: read_substmap:p <- [DW_OP_plus_uconst 8] [%rsp+0]
	#DEBUG_VALUE: read_substmap:lineno <- [DW_OP_plus_uconst 20] [%rsp+0]
	#DEBUG_VALUE: read_substmap:f <- %r15
	.loc	16 0 13                 # substmap.c:0:13
	xorl	%ebp, %ebp
	jmp	.LBB23_52
.Ltmp673:
.LBB23_43:                              #   in Loop: Header=BB23_12 Depth=1
	#DEBUG_VALUE: read_substmap:map <- [DW_OP_plus_uconst 64] [%rsp+0]
	#DEBUG_VALUE: read_substmap:path <- [DW_OP_plus_uconst 40] [%rsp+0]
	#DEBUG_VALUE: read_substmap:q <- [DW_OP_plus_uconst 32] [%rsp+0]
	#DEBUG_VALUE: read_substmap:p <- [DW_OP_plus_uconst 8] [%rsp+0]
	#DEBUG_VALUE: read_substmap:lineno <- [DW_OP_plus_uconst 20] [%rsp+0]
	#DEBUG_VALUE: read_substmap:f <- %r15
	xorl	%ebp, %ebp
	movl	20(%rsp), %r13d         # 4-byte Reload
.Ltmp674:
.LBB23_52:                              # %while.end
                                        #   in Loop: Header=BB23_12 Depth=1
	#DEBUG_VALUE: read_substmap:map <- [DW_OP_plus_uconst 64] [%rsp+0]
	#DEBUG_VALUE: read_substmap:path <- [DW_OP_plus_uconst 40] [%rsp+0]
	#DEBUG_VALUE: read_substmap:p <- [DW_OP_plus_uconst 8] [%rsp+0]
	#DEBUG_VALUE: read_substmap:lineno <- [DW_OP_plus_uconst 20] [%rsp+0]
	#DEBUG_VALUE: read_substmap:f <- %r15
	.loc	16 112 9 is_stmt 1      # substmap.c:112:9
	callq	_Z24__sanitizer_cov_trace_pcv
	#APP
	#NO_APP
	movzbl	%bpl, %r12d
	movq	56(%rsp), %rbx          # 8-byte Reload
	movzbl	%bl, %r14d
	movl	%r12d, %edi
	movl	%r14d, %esi
	callq	_Z26__sanitizer_cov_trace_cmp1hh
	cmpb	%bl, %r12b
	.loc	16 112 20 is_stmt 0     # substmap.c:112:20
	je	.LBB23_56
.Ltmp675:
# %bb.53:                               # %land.lhs.true
                                        #   in Loop: Header=BB23_12 Depth=1
	#DEBUG_VALUE: read_substmap:map <- [DW_OP_plus_uconst 64] [%rsp+0]
	#DEBUG_VALUE: read_substmap:path <- [DW_OP_plus_uconst 40] [%rsp+0]
	#DEBUG_VALUE: read_substmap:p <- [DW_OP_plus_uconst 8] [%rsp+0]
	#DEBUG_VALUE: read_substmap:lineno <- [DW_OP_plus_uconst 20] [%rsp+0]
	#DEBUG_VALUE: read_substmap:f <- %r15
	.loc	16 112 25               # substmap.c:112:25
	callq	_Z24__sanitizer_cov_trace_pcv
	#APP
	#NO_APP
	movsbq	%bpl, %rax
	movq	24(%rsp), %rcx          # 8-byte Reload
	movzwl	(%rcx,%rax,2), %ebp
	andl	$8192, %ebp             # imm = 0x2000
	xorl	%edi, %edi
	movl	%ebp, %esi
	callq	_Z32__sanitizer_cov_trace_const_cmp2tt
	.loc	16 112 48               # substmap.c:112:48
	movl	$10, %edi
	movl	%r14d, %esi
	callq	_Z32__sanitizer_cov_trace_const_cmp1hh
	cmpb	$10, %bl
	.loc	16 112 37               # substmap.c:112:37
	jne	.LBB23_55
.Ltmp676:
# %bb.54:                               # %land.lhs.true
                                        #   in Loop: Header=BB23_12 Depth=1
	#DEBUG_VALUE: read_substmap:map <- [DW_OP_plus_uconst 64] [%rsp+0]
	#DEBUG_VALUE: read_substmap:path <- [DW_OP_plus_uconst 40] [%rsp+0]
	#DEBUG_VALUE: read_substmap:p <- [DW_OP_plus_uconst 8] [%rsp+0]
	#DEBUG_VALUE: read_substmap:lineno <- [DW_OP_plus_uconst 20] [%rsp+0]
	#DEBUG_VALUE: read_substmap:f <- %r15
	testw	%bp, %bp
	je	.LBB23_55
.Ltmp677:
.LBB23_56:                              # %if.end107
                                        #   in Loop: Header=BB23_12 Depth=1
	#DEBUG_VALUE: read_substmap:map <- [DW_OP_plus_uconst 64] [%rsp+0]
	#DEBUG_VALUE: read_substmap:path <- [DW_OP_plus_uconst 40] [%rsp+0]
	#DEBUG_VALUE: read_substmap:p <- [DW_OP_plus_uconst 8] [%rsp+0]
	#DEBUG_VALUE: read_substmap:lineno <- [DW_OP_plus_uconst 20] [%rsp+0]
	#DEBUG_VALUE: read_substmap:f <- %r15
	.loc	16 118 5 is_stmt 1      # substmap.c:118:5
	callq	_Z24__sanitizer_cov_trace_pcv
	#APP
	#NO_APP
	movq	32(%rsp), %rax          # 8-byte Reload
	movb	$0, (%rax)
.Ltmp678:
	#DEBUG_VALUE: read_substmap:i <- 0
	.loc	16 119 17               # substmap.c:119:17
	movq	8(%rsp), %r14
.Ltmp679:
	#DEBUG_VALUE: read_substmap:p <- %r14
	.loc	16 119 16 is_stmt 0     # substmap.c:119:16
	movzbl	(%r14), %ebp
	xorl	%r13d, %r13d
	xorl	%edi, %edi
	movl	%ebp, %esi
	callq	_Z32__sanitizer_cov_trace_const_cmp1hh
	leaq	80(%rsp), %rbx
	testl	%ebp, %ebp
	movq	72(%rsp), %r12          # 8-byte Reload
.Ltmp680:
	.loc	16 119 3                # substmap.c:119:3
	je	.LBB23_78
.Ltmp681:
# %bb.57:                               # %for.body116.preheader
                                        #   in Loop: Header=BB23_12 Depth=1
	#DEBUG_VALUE: read_substmap:map <- [DW_OP_plus_uconst 64] [%rsp+0]
	#DEBUG_VALUE: read_substmap:path <- [DW_OP_plus_uconst 40] [%rsp+0]
	#DEBUG_VALUE: read_substmap:p <- %r14
	#DEBUG_VALUE: read_substmap:lineno <- [DW_OP_plus_uconst 20] [%rsp+0]
	#DEBUG_VALUE: read_substmap:f <- %r15
	.loc	16 120 10 is_stmt 1     # substmap.c:120:10
	callq	_Z24__sanitizer_cov_trace_pcv
	#APP
	#NO_APP
	xorl	%r13d, %r13d
.Ltmp682:
	.p2align	4, 0x90
.LBB23_58:                              # %for.body116
                                        #   Parent Loop BB23_12 Depth=1
                                        # =>  This Inner Loop Header: Depth=2
	#DEBUG_VALUE: read_substmap:map <- [DW_OP_plus_uconst 64] [%rsp+0]
	#DEBUG_VALUE: read_substmap:path <- [DW_OP_plus_uconst 40] [%rsp+0]
	#DEBUG_VALUE: read_substmap:p <- %r14
	#DEBUG_VALUE: read_substmap:lineno <- [DW_OP_plus_uconst 20] [%rsp+0]
	#DEBUG_VALUE: read_substmap:f <- %r15
	.loc	16 38 31                # substmap.c:38:31
	callq	_Z24__sanitizer_cov_trace_pcv
	#APP
	#NO_APP
.Ltmp683:
	.loc	16 120 10               # substmap.c:120:10
	movzbl	%bpl, %ebx
	movl	$92, %edi
	movl	%ebx, %esi
	callq	_Z32__sanitizer_cov_trace_const_cmp1hh
	addq	$1, %r14
.Ltmp684:
	#DEBUG_VALUE: read_substmap:p <- %r14
	.loc	16 0 10 is_stmt 0       # substmap.c:0:10
	movq	%r14, 8(%rsp)
	.loc	16 120 10               # substmap.c:120:10
	cmpb	$92, %bl
.Ltmp685:
	.loc	16 120 8                # substmap.c:120:8
	jne	.LBB23_59
.Ltmp686:
# %bb.60:                               # %if.else122
                                        #   in Loop: Header=BB23_58 Depth=2
	#DEBUG_VALUE: read_substmap:map <- [DW_OP_plus_uconst 64] [%rsp+0]
	#DEBUG_VALUE: read_substmap:path <- [DW_OP_plus_uconst 40] [%rsp+0]
	#DEBUG_VALUE: read_substmap:p <- %r14
	#DEBUG_VALUE: read_substmap:lineno <- [DW_OP_plus_uconst 20] [%rsp+0]
	#DEBUG_VALUE: read_substmap:f <- %r15
	.loc	16 123 13 is_stmt 1     # substmap.c:123:13
	callq	_Z24__sanitizer_cov_trace_pcv
	#APP
	#NO_APP
	movzbl	(%r14), %ebp
	movsbl	%bpl, %ebx
	.loc	16 123 5 is_stmt 0      # substmap.c:123:5
	movl	$__sancov_gen_cov_switch_values.5, %esi
	movq	%rbx, %rdi
	callq	_Z28__sanitizer_cov_trace_switchmPm
	cmpl	$97, %ebx
	jle	.LBB23_61
.Ltmp687:
# %bb.65:                               # %if.else122
                                        #   in Loop: Header=BB23_58 Depth=2
	#DEBUG_VALUE: read_substmap:map <- [DW_OP_plus_uconst 64] [%rsp+0]
	#DEBUG_VALUE: read_substmap:path <- [DW_OP_plus_uconst 40] [%rsp+0]
	#DEBUG_VALUE: read_substmap:p <- %r14
	#DEBUG_VALUE: read_substmap:lineno <- [DW_OP_plus_uconst 20] [%rsp+0]
	#DEBUG_VALUE: read_substmap:f <- %r15
	.loc	16 0 5                  # substmap.c:0:5
	addl	$-98, %ebx
	cmpl	$18, %ebx
	ja	.LBB23_73
.Ltmp688:
# %bb.66:                               # %if.else122
                                        #   in Loop: Header=BB23_58 Depth=2
	#DEBUG_VALUE: read_substmap:map <- [DW_OP_plus_uconst 64] [%rsp+0]
	#DEBUG_VALUE: read_substmap:path <- [DW_OP_plus_uconst 40] [%rsp+0]
	#DEBUG_VALUE: read_substmap:p <- %r14
	#DEBUG_VALUE: read_substmap:lineno <- [DW_OP_plus_uconst 20] [%rsp+0]
	#DEBUG_VALUE: read_substmap:f <- %r15
	jmpq	*.LJTI23_0(,%rbx,8)
.Ltmp689:
.LBB23_70:                              # %sw.bb128
                                        #   in Loop: Header=BB23_58 Depth=2
	#DEBUG_VALUE: read_substmap:map <- [DW_OP_plus_uconst 64] [%rsp+0]
	#DEBUG_VALUE: read_substmap:path <- [DW_OP_plus_uconst 40] [%rsp+0]
	#DEBUG_VALUE: read_substmap:p <- %r14
	#DEBUG_VALUE: read_substmap:lineno <- [DW_OP_plus_uconst 20] [%rsp+0]
	#DEBUG_VALUE: read_substmap:f <- %r15
	.loc	16 127 18 is_stmt 1     # substmap.c:127:18
	callq	_Z24__sanitizer_cov_trace_pcv
	#APP
	#NO_APP
	movb	$8, 80(%rsp,%r13)
	jmp	.LBB23_74
.Ltmp690:
.LBB23_59:                              # %if.then120
                                        #   in Loop: Header=BB23_58 Depth=2
	#DEBUG_VALUE: read_substmap:map <- [DW_OP_plus_uconst 64] [%rsp+0]
	#DEBUG_VALUE: read_substmap:path <- [DW_OP_plus_uconst 40] [%rsp+0]
	#DEBUG_VALUE: read_substmap:p <- %r14
	#DEBUG_VALUE: read_substmap:lineno <- [DW_OP_plus_uconst 20] [%rsp+0]
	#DEBUG_VALUE: read_substmap:f <- %r15
	.loc	16 121 7                # substmap.c:121:7
	callq	_Z24__sanitizer_cov_trace_pcv
	#APP
	#NO_APP
	movb	%bpl, 80(%rsp,%r13)
.Ltmp691:
	.loc	16 119 17               # substmap.c:119:17
	movq	8(%rsp), %r14
.Ltmp692:
	.loc	16 0 17 is_stmt 0       # substmap.c:0:17
	jmp	.LBB23_75
.Ltmp693:
.LBB23_61:                              # %if.else122
                                        #   in Loop: Header=BB23_58 Depth=2
	#DEBUG_VALUE: read_substmap:map <- [DW_OP_plus_uconst 64] [%rsp+0]
	#DEBUG_VALUE: read_substmap:path <- [DW_OP_plus_uconst 40] [%rsp+0]
	#DEBUG_VALUE: read_substmap:p <- %r14
	#DEBUG_VALUE: read_substmap:lineno <- [DW_OP_plus_uconst 20] [%rsp+0]
	#DEBUG_VALUE: read_substmap:f <- %r15
	.loc	16 123 5 is_stmt 1      # substmap.c:123:5
	cmpl	$34, %ebx
	je	.LBB23_71
.Ltmp694:
# %bb.62:                               # %if.else122
                                        #   in Loop: Header=BB23_58 Depth=2
	#DEBUG_VALUE: read_substmap:map <- [DW_OP_plus_uconst 64] [%rsp+0]
	#DEBUG_VALUE: read_substmap:path <- [DW_OP_plus_uconst 40] [%rsp+0]
	#DEBUG_VALUE: read_substmap:p <- %r14
	#DEBUG_VALUE: read_substmap:lineno <- [DW_OP_plus_uconst 20] [%rsp+0]
	#DEBUG_VALUE: read_substmap:f <- %r15
	cmpl	$39, %ebx
	je	.LBB23_72
.Ltmp695:
# %bb.63:                               # %if.else122
                                        #   in Loop: Header=BB23_58 Depth=2
	#DEBUG_VALUE: read_substmap:map <- [DW_OP_plus_uconst 64] [%rsp+0]
	#DEBUG_VALUE: read_substmap:path <- [DW_OP_plus_uconst 40] [%rsp+0]
	#DEBUG_VALUE: read_substmap:p <- %r14
	#DEBUG_VALUE: read_substmap:lineno <- [DW_OP_plus_uconst 20] [%rsp+0]
	#DEBUG_VALUE: read_substmap:f <- %r15
	cmpl	$48, %ebx
	jne	.LBB23_73
.Ltmp696:
# %bb.64:                               # %sw.bb131
                                        #   in Loop: Header=BB23_58 Depth=2
	#DEBUG_VALUE: read_substmap:map <- [DW_OP_plus_uconst 64] [%rsp+0]
	#DEBUG_VALUE: read_substmap:path <- [DW_OP_plus_uconst 40] [%rsp+0]
	#DEBUG_VALUE: read_substmap:p <- %r14
	#DEBUG_VALUE: read_substmap:lineno <- [DW_OP_plus_uconst 20] [%rsp+0]
	#DEBUG_VALUE: read_substmap:f <- %r15
	.loc	16 38 27                # substmap.c:38:27
	callq	_Z24__sanitizer_cov_trace_pcv
	#APP
	#NO_APP
.Ltmp697:
	#DEBUG_VALUE: read_substmap:p <- [DW_OP_plus_uconst 8] [%rsp+0]
	.loc	16 130 19               # substmap.c:130:19
	movl	$8, %edx
	movq	%r14, %rdi
	leaq	8(%rsp), %rsi
	callq	strtol
	.loc	16 130 18 is_stmt 0     # substmap.c:130:18
	movb	%al, 80(%rsp,%r13)
	.loc	16 130 36               # substmap.c:130:36
	addq	$-1, 8(%rsp)
	jmp	.LBB23_74
.Ltmp698:
.LBB23_67:                              # %sw.bb125
                                        #   in Loop: Header=BB23_58 Depth=2
	#DEBUG_VALUE: read_substmap:map <- [DW_OP_plus_uconst 64] [%rsp+0]
	#DEBUG_VALUE: read_substmap:path <- [DW_OP_plus_uconst 40] [%rsp+0]
	#DEBUG_VALUE: read_substmap:p <- %r14
	#DEBUG_VALUE: read_substmap:lineno <- [DW_OP_plus_uconst 20] [%rsp+0]
	#DEBUG_VALUE: read_substmap:f <- %r15
	.loc	16 124 18 is_stmt 1     # substmap.c:124:18
	callq	_Z24__sanitizer_cov_trace_pcv
	#APP
	#NO_APP
	movb	$10, 80(%rsp,%r13)
	jmp	.LBB23_74
.Ltmp699:
.LBB23_68:                              # %sw.bb126
                                        #   in Loop: Header=BB23_58 Depth=2
	#DEBUG_VALUE: read_substmap:map <- [DW_OP_plus_uconst 64] [%rsp+0]
	#DEBUG_VALUE: read_substmap:path <- [DW_OP_plus_uconst 40] [%rsp+0]
	#DEBUG_VALUE: read_substmap:p <- %r14
	#DEBUG_VALUE: read_substmap:lineno <- [DW_OP_plus_uconst 20] [%rsp+0]
	#DEBUG_VALUE: read_substmap:f <- %r15
	.loc	16 125 18               # substmap.c:125:18
	callq	_Z24__sanitizer_cov_trace_pcv
	#APP
	#NO_APP
	movb	$13, 80(%rsp,%r13)
	jmp	.LBB23_74
.Ltmp700:
.LBB23_69:                              # %sw.bb127
                                        #   in Loop: Header=BB23_58 Depth=2
	#DEBUG_VALUE: read_substmap:map <- [DW_OP_plus_uconst 64] [%rsp+0]
	#DEBUG_VALUE: read_substmap:path <- [DW_OP_plus_uconst 40] [%rsp+0]
	#DEBUG_VALUE: read_substmap:p <- %r14
	#DEBUG_VALUE: read_substmap:lineno <- [DW_OP_plus_uconst 20] [%rsp+0]
	#DEBUG_VALUE: read_substmap:f <- %r15
	.loc	16 126 18               # substmap.c:126:18
	callq	_Z24__sanitizer_cov_trace_pcv
	#APP
	#NO_APP
	movb	$9, 80(%rsp,%r13)
	jmp	.LBB23_74
.Ltmp701:
.LBB23_71:                              # %sw.bb129
                                        #   in Loop: Header=BB23_58 Depth=2
	#DEBUG_VALUE: read_substmap:map <- [DW_OP_plus_uconst 64] [%rsp+0]
	#DEBUG_VALUE: read_substmap:path <- [DW_OP_plus_uconst 40] [%rsp+0]
	#DEBUG_VALUE: read_substmap:p <- %r14
	#DEBUG_VALUE: read_substmap:lineno <- [DW_OP_plus_uconst 20] [%rsp+0]
	#DEBUG_VALUE: read_substmap:f <- %r15
	.loc	16 128 23               # substmap.c:128:23
	callq	_Z24__sanitizer_cov_trace_pcv
	#APP
	#NO_APP
	movb	$34, 80(%rsp,%r13)
	jmp	.LBB23_74
.Ltmp702:
.LBB23_72:                              # %sw.bb130
                                        #   in Loop: Header=BB23_58 Depth=2
	#DEBUG_VALUE: read_substmap:map <- [DW_OP_plus_uconst 64] [%rsp+0]
	#DEBUG_VALUE: read_substmap:path <- [DW_OP_plus_uconst 40] [%rsp+0]
	#DEBUG_VALUE: read_substmap:p <- %r14
	#DEBUG_VALUE: read_substmap:lineno <- [DW_OP_plus_uconst 20] [%rsp+0]
	#DEBUG_VALUE: read_substmap:f <- %r15
	.loc	16 129 19               # substmap.c:129:19
	callq	_Z24__sanitizer_cov_trace_pcv
	#APP
	#NO_APP
	movb	$39, 80(%rsp,%r13)
	jmp	.LBB23_74
.Ltmp703:
.LBB23_73:                              # %sw.default136
                                        #   in Loop: Header=BB23_58 Depth=2
	#DEBUG_VALUE: read_substmap:map <- [DW_OP_plus_uconst 64] [%rsp+0]
	#DEBUG_VALUE: read_substmap:path <- [DW_OP_plus_uconst 40] [%rsp+0]
	#DEBUG_VALUE: read_substmap:p <- %r14
	#DEBUG_VALUE: read_substmap:lineno <- [DW_OP_plus_uconst 20] [%rsp+0]
	#DEBUG_VALUE: read_substmap:f <- %r15
	.loc	16 133 12               # substmap.c:133:12
	callq	_Z24__sanitizer_cov_trace_pcv
	#APP
	#NO_APP
	movb	%bpl, 80(%rsp,%r13)
.Ltmp704:
.LBB23_74:                              # %sw.epilog137
                                        #   in Loop: Header=BB23_58 Depth=2
	#DEBUG_VALUE: read_substmap:map <- [DW_OP_plus_uconst 64] [%rsp+0]
	#DEBUG_VALUE: read_substmap:path <- [DW_OP_plus_uconst 40] [%rsp+0]
	#DEBUG_VALUE: read_substmap:lineno <- [DW_OP_plus_uconst 20] [%rsp+0]
	#DEBUG_VALUE: read_substmap:f <- %r15
	.loc	16 135 6                # substmap.c:135:6
	callq	_Z24__sanitizer_cov_trace_pcv
	#APP
	#NO_APP
	movq	8(%rsp), %r14
.Ltmp705:
	#DEBUG_VALUE: read_substmap:p <- %r14
	addq	$1, %r14
.Ltmp706:
	#DEBUG_VALUE: read_substmap:p <- %r14
	movq	%r14, 8(%rsp)
.Ltmp707:
.LBB23_75:                              # %for.inc140
                                        #   in Loop: Header=BB23_58 Depth=2
	#DEBUG_VALUE: read_substmap:map <- [DW_OP_plus_uconst 64] [%rsp+0]
	#DEBUG_VALUE: read_substmap:path <- [DW_OP_plus_uconst 40] [%rsp+0]
	#DEBUG_VALUE: read_substmap:lineno <- [DW_OP_plus_uconst 20] [%rsp+0]
	#DEBUG_VALUE: read_substmap:f <- %r15
	#DEBUG_VALUE: read_substmap:p <- %r14
	.loc	16 119 29               # substmap.c:119:29
	callq	_Z24__sanitizer_cov_trace_pcv
	#APP
	#NO_APP
	.loc	16 119 16 is_stmt 0     # substmap.c:119:16
	addq	$1, %r13
	movzbl	(%r14), %ebp
	movzbl	%bpl, %esi
	xorl	%edi, %edi
	callq	_Z32__sanitizer_cov_trace_const_cmp1hh
	.loc	16 119 23               # substmap.c:119:23
	movl	$256, %edi              # imm = 0x100
	movl	%r13d, %esi
	callq	_Z32__sanitizer_cov_trace_const_cmp4jj
	cmpl	$255, %r13d
.Ltmp708:
	.loc	16 119 3                # substmap.c:119:3
	ja	.LBB23_77
.Ltmp709:
# %bb.76:                               # %for.inc140
                                        #   in Loop: Header=BB23_58 Depth=2
	#DEBUG_VALUE: read_substmap:map <- [DW_OP_plus_uconst 64] [%rsp+0]
	#DEBUG_VALUE: read_substmap:path <- [DW_OP_plus_uconst 40] [%rsp+0]
	#DEBUG_VALUE: read_substmap:p <- %r14
	#DEBUG_VALUE: read_substmap:lineno <- [DW_OP_plus_uconst 20] [%rsp+0]
	#DEBUG_VALUE: read_substmap:f <- %r15
	testb	%bpl, %bpl
	jne	.LBB23_58
.Ltmp710:
.LBB23_77:                              # %for.end143.loopexit
                                        #   in Loop: Header=BB23_12 Depth=1
	#DEBUG_VALUE: read_substmap:map <- [DW_OP_plus_uconst 64] [%rsp+0]
	#DEBUG_VALUE: read_substmap:path <- [DW_OP_plus_uconst 40] [%rsp+0]
	#DEBUG_VALUE: read_substmap:p <- %r14
	#DEBUG_VALUE: read_substmap:lineno <- [DW_OP_plus_uconst 20] [%rsp+0]
	#DEBUG_VALUE: read_substmap:f <- %r15
	.loc	16 138 5 is_stmt 1      # substmap.c:138:5
	leaq	(%rsp,%r13), %rbx
	addq	$80, %rbx
.Ltmp711:
.LBB23_78:                              # %for.end143
                                        #   in Loop: Header=BB23_12 Depth=1
	#DEBUG_VALUE: read_substmap:map <- [DW_OP_plus_uconst 64] [%rsp+0]
	#DEBUG_VALUE: read_substmap:path <- [DW_OP_plus_uconst 40] [%rsp+0]
	#DEBUG_VALUE: read_substmap:p <- %r14
	#DEBUG_VALUE: read_substmap:lineno <- [DW_OP_plus_uconst 20] [%rsp+0]
	#DEBUG_VALUE: read_substmap:f <- %r15
	callq	_Z24__sanitizer_cov_trace_pcv
	#APP
	#NO_APP
	movb	$0, (%rbx)
.Ltmp712:
	.loc	16 139 9                # substmap.c:139:9
	movl	longest_sequence(%rip), %ebx
	.loc	16 139 8 is_stmt 0      # substmap.c:139:8
	movl	%r13d, %edi
	movl	%ebx, %esi
	callq	_Z26__sanitizer_cov_trace_cmp4jj
	cmpl	%ebx, %r13d
.Ltmp713:
	.loc	16 139 7                # substmap.c:139:7
	jle	.LBB23_80
.Ltmp714:
# %bb.79:                               # %if.then146
                                        #   in Loop: Header=BB23_12 Depth=1
	#DEBUG_VALUE: read_substmap:map <- [DW_OP_plus_uconst 64] [%rsp+0]
	#DEBUG_VALUE: read_substmap:path <- [DW_OP_plus_uconst 40] [%rsp+0]
	#DEBUG_VALUE: read_substmap:p <- %r14
	#DEBUG_VALUE: read_substmap:lineno <- [DW_OP_plus_uconst 20] [%rsp+0]
	#DEBUG_VALUE: read_substmap:f <- %r15
	.loc	16 140 20 is_stmt 1     # substmap.c:140:20
	callq	_Z24__sanitizer_cov_trace_pcv
	#APP
	#NO_APP
	movl	%r13d, longest_sequence(%rip)
.Ltmp715:
.LBB23_80:                              # %if.end147
                                        #   in Loop: Header=BB23_12 Depth=1
	#DEBUG_VALUE: read_substmap:map <- [DW_OP_plus_uconst 64] [%rsp+0]
	#DEBUG_VALUE: read_substmap:path <- [DW_OP_plus_uconst 40] [%rsp+0]
	#DEBUG_VALUE: read_substmap:p <- %r14
	#DEBUG_VALUE: read_substmap:lineno <- [DW_OP_plus_uconst 20] [%rsp+0]
	#DEBUG_VALUE: read_substmap:f <- %r15
	.loc	16 160 26               # substmap.c:160:26
	callq	_Z24__sanitizer_cov_trace_pcv
	#APP
	#NO_APP
	.loc	16 161 30               # substmap.c:161:30
	movl	%r12d, %ebp
	shrl	$8, %ebp
	movq	64(%rsp), %r14          # 8-byte Reload
.Ltmp716:
	.loc	16 163 7                # substmap.c:163:7
	movq	(%r14,%rbp,8), %rbx
	testq	%rbx, %rbx
.Ltmp717:
	.loc	16 163 6 is_stmt 0      # substmap.c:163:6
	jne	.LBB23_83
.Ltmp718:
# %bb.81:                               # %if.then.i211
                                        #   in Loop: Header=BB23_12 Depth=1
	#DEBUG_VALUE: read_substmap:map <- [DW_OP_plus_uconst 64] [%rsp+0]
	#DEBUG_VALUE: read_substmap:path <- [DW_OP_plus_uconst 40] [%rsp+0]
	#DEBUG_VALUE: read_substmap:lineno <- [DW_OP_plus_uconst 20] [%rsp+0]
	#DEBUG_VALUE: read_substmap:f <- %r15
	.loc	16 164 7 is_stmt 1      # substmap.c:164:7
	callq	_Z24__sanitizer_cov_trace_pcv
	#APP
	#NO_APP
	movl	$8, %edi
	movl	$256, %esi              # imm = 0x100
	callq	calloc
	movq	%rax, %rbx
	.loc	16 164 5 is_stmt 0      # substmap.c:164:5
	movq	%rbx, (%r14,%rbp,8)
.Ltmp719:
	.loc	16 165 8 is_stmt 1      # substmap.c:165:8
	testq	%rbx, %rbx
.Ltmp720:
	.loc	16 165 7 is_stmt 0      # substmap.c:165:7
	je	.LBB23_82
.Ltmp721:
.LBB23_83:                              # %map_insert.exit
                                        #   in Loop: Header=BB23_12 Depth=1
	#DEBUG_VALUE: read_substmap:map <- [DW_OP_plus_uconst 64] [%rsp+0]
	#DEBUG_VALUE: read_substmap:path <- [DW_OP_plus_uconst 40] [%rsp+0]
	#DEBUG_VALUE: read_substmap:lineno <- [DW_OP_plus_uconst 20] [%rsp+0]
	#DEBUG_VALUE: read_substmap:f <- %r15
	.loc	16 170 20 is_stmt 1     # substmap.c:170:20
	callq	_Z24__sanitizer_cov_trace_pcv
	#APP
	#NO_APP
	leaq	80(%rsp), %rdi
	callq	__strdup
	.loc	16 170 10 is_stmt 0     # substmap.c:170:10
	movzbl	%r12b, %ecx
	.loc	16 170 18               # substmap.c:170:18
	movq	%rax, (%rbx,%rcx,8)
.Ltmp722:
	.p2align	4, 0x90
.LBB23_20:                              # %while.cond.outer.backedge
                                        #   in Loop: Header=BB23_12 Depth=1
	#DEBUG_VALUE: read_substmap:map <- [DW_OP_plus_uconst 64] [%rsp+0]
	#DEBUG_VALUE: read_substmap:path <- [DW_OP_plus_uconst 40] [%rsp+0]
	#DEBUG_VALUE: read_substmap:lineno <- [DW_OP_plus_uconst 20] [%rsp+0]
	#DEBUG_VALUE: read_substmap:f <- %r15
	.loc	16 41 15 is_stmt 1      # substmap.c:41:15
	callq	_Z24__sanitizer_cov_trace_pcv
	#APP
	#NO_APP
	.loc	16 61 10                # substmap.c:61:10
	movq	%r15, %rdi
	callq	feof
	movl	%eax, %ebx
	.loc	16 61 9 is_stmt 0       # substmap.c:61:9
	xorl	%edi, %edi
	movl	%ebx, %esi
	callq	_Z32__sanitizer_cov_trace_const_cmp4jj
	testl	%ebx, %ebx
	movq	64(%rsp), %r14          # 8-byte Reload
	movq	40(%rsp), %r12          # 8-byte Reload
	leaq	336(%rsp), %rbp
	movl	20(%rsp), %r13d         # 4-byte Reload
	.loc	16 61 2                 # substmap.c:61:2
	je	.LBB23_12
.Ltmp723:
.LBB23_21:                              # %while.end149
	#DEBUG_VALUE: read_substmap:f <- %r15
	.loc	16 143 2 is_stmt 1      # substmap.c:143:2
	callq	_Z24__sanitizer_cov_trace_pcv
	#APP
	#NO_APP
	movq	%r15, %rdi
	callq	fclose
	.loc	16 144 2                # substmap.c:144:2
	movq	%r12, %rdi
	callq	free
.Ltmp724:
.LBB23_22:                              # %cleanup
	.loc	16 146 1                # substmap.c:146:1
	callq	_Z24__sanitizer_cov_trace_pcv
	#APP
	#NO_APP
	movq	%r14, %rax
	addq	$1368, %rsp             # imm = 0x558
	popq	%rbx
	popq	%r12
	popq	%r13
	popq	%r14
	popq	%r15
	popq	%rbp
	retq
.LBB23_4:                               # %if.then3
.Ltmp725:
	#DEBUG_VALUE: read_substmap:path <- %r12
	#DEBUG_VALUE: read_substmap:map <- %r14
	.loc	16 49 11                # substmap.c:49:11
	callq	_Z24__sanitizer_cov_trace_pcv
	#APP
	#NO_APP
	jmp	.LBB23_5
.Ltmp726:
.LBB23_82:                              # %if.then2.i
	#DEBUG_VALUE: read_substmap:map <- [DW_OP_plus_uconst 64] [%rsp+0]
	#DEBUG_VALUE: read_substmap:path <- [DW_OP_plus_uconst 40] [%rsp+0]
	#DEBUG_VALUE: read_substmap:lineno <- [DW_OP_plus_uconst 20] [%rsp+0]
	#DEBUG_VALUE: read_substmap:f <- %r15
	.loc	16 166 12               # substmap.c:166:12
	callq	_Z24__sanitizer_cov_trace_pcv
	#APP
	#NO_APP
.Ltmp727:
.LBB23_5:                               # %if.then3
	.loc	16 0 12 is_stmt 0       # substmap.c:0:12
	movq	stderr(%rip), %rcx
	movl	$.L.str.1.119, %edi
	movl	$20, %esi
	movl	$1, %edx
	callq	fwrite
	movl	$1, %edi
	callq	exit
.Lfunc_end23:
	.size	read_substmap, .Lfunc_end23-read_substmap
	.cfi_endproc
	.section	.rodata,"a",@progbits
	.p2align	3
.LJTI23_0:
	.quad	.LBB23_70
	.quad	.LBB23_73
	.quad	.LBB23_73
	.quad	.LBB23_73
	.quad	.LBB23_73
	.quad	.LBB23_73
	.quad	.LBB23_73
	.quad	.LBB23_73
	.quad	.LBB23_73
	.quad	.LBB23_73
	.quad	.LBB23_73
	.quad	.LBB23_73
	.quad	.LBB23_67
	.quad	.LBB23_73
	.quad	.LBB23_73
	.quad	.LBB23_73
	.quad	.LBB23_68
	.quad	.LBB23_73
	.quad	.LBB23_69
                                        # -- End function
	.text
	.globl	set_std_func            # -- Begin function set_std_func
	.p2align	4, 0x90
	.type	set_std_func,@function
set_std_func:                           # @set_std_func
.Lfunc_begin24:
	.loc	20 658 0 is_stmt 1      # ole.c:658:0
	.cfi_startproc
# %bb.0:                                # %entry
	.loc	20 659 13 prologue_end  # ole.c:659:13
	pushq	%rax
	.cfi_def_cfa_offset 16
	callq	_Z24__sanitizer_cov_trace_pcv
	#APP
	#NO_APP
	movq	$fread, catdoc_read(%rip)
	.loc	20 660 12               # ole.c:660:12
	movq	$feof, catdoc_eof(%rip)
	.loc	20 661 13               # ole.c:661:13
	movq	$fseek, catdoc_seek(%rip)
	.loc	20 662 13               # ole.c:662:13
	movq	$ftell, catdoc_tell(%rip)
	.loc	20 663 1                # ole.c:663:1
	popq	%rax
	retq
.Ltmp728:
.Lfunc_end24:
	.size	set_std_func, .Lfunc_end24-set_std_func
	.cfi_endproc
                                        # -- End function
	.globl	analyze_format          # -- Begin function analyze_format
	.p2align	4, 0x90
	.type	analyze_format,@function
analyze_format:                         # @analyze_format
.Lfunc_begin25:
	.loc	9 26 0                  # analyze.c:26:0
	.cfi_startproc
# %bb.0:                                # %entry
	pushq	%rbp
	.cfi_def_cfa_offset 16
	pushq	%r15
	.cfi_def_cfa_offset 24
	pushq	%r14
	.cfi_def_cfa_offset 32
	pushq	%r12
	.cfi_def_cfa_offset 40
	pushq	%rbx
	.cfi_def_cfa_offset 48
	subq	$144, %rsp
	.cfi_def_cfa_offset 192
	.cfi_offset %rbx, -48
	.cfi_offset %r12, -40
	.cfi_offset %r14, -32
	.cfi_offset %r15, -24
	.cfi_offset %rbp, -16
	#DEBUG_VALUE: analyze_format:f <- %rdi
	movq	%rdi, %r15
	callq	_Z24__sanitizer_cov_trace_pcv
.Ltmp729:
	#APP
	#NO_APP
.Ltmp730:
	#DEBUG_VALUE: analyze_format:ret_code <- 69
	#DEBUG_VALUE: analyze_format:offset <- 0
	#DEBUG_VALUE: analyze_format:f <- %r15
	.loc	9 32 7 prologue_end     # analyze.c:32:7
	movl	signature_check(%rip), %ebp
	xorl	%edi, %edi
	movl	%ebp, %esi
	callq	_Z32__sanitizer_cov_trace_const_cmp4jj
	testl	%ebp, %ebp
.Ltmp731:
	.loc	9 32 6 is_stmt 0        # analyze.c:32:6
	je	.LBB25_7
.Ltmp732:
# %bb.1:                                # %if.end3
	#DEBUG_VALUE: analyze_format:f <- %r15
	.loc	9 40 2 is_stmt 1        # analyze.c:40:2
	callq	_Z24__sanitizer_cov_trace_pcv
	#APP
	#NO_APP
	movq	%rsp, %rbp
	movl	$4, %esi
	movl	$1, %edx
	movq	%rbp, %rdi
	movq	%r15, %rcx
	callq	*catdoc_read(%rip)
	.loc	9 41 11                 # analyze.c:41:11
	movb	$0, 4(%rsp)
.Ltmp733:
	.loc	9 42 6                  # analyze.c:42:6
	movl	$write_sign, %esi
	movl	$2, %edx
	movq	%rbp, %rdi
	callq	strncmp
	movl	%eax, %ebp
	.loc	9 42 43 is_stmt 0       # analyze.c:42:43
	xorl	%edi, %edi
	movl	%ebp, %esi
	callq	_Z32__sanitizer_cov_trace_const_cmp4jj
	testl	%ebp, %ebp
.Ltmp734:
	.loc	9 42 6                  # analyze.c:42:6
	je	.LBB25_10
.Ltmp735:
# %bb.2:                                # %if.else
	#DEBUG_VALUE: analyze_format:f <- %r15
	.loc	9 46 13 is_stmt 1       # analyze.c:46:13
	callq	_Z24__sanitizer_cov_trace_pcv
	#APP
	#NO_APP
	movq	%rsp, %rdi
	movl	$rtf_sign, %esi
	movl	$4, %edx
	callq	strncmp
	movl	%eax, %ebp
	.loc	9 46 48 is_stmt 0       # analyze.c:46:48
	xorl	%edi, %edi
	movl	%ebp, %esi
	callq	_Z32__sanitizer_cov_trace_const_cmp4jj
	testl	%ebp, %ebp
.Ltmp736:
	.loc	9 46 13                 # analyze.c:46:13
	je	.LBB25_14
.Ltmp737:
# %bb.3:                                # %if.else13
	#DEBUG_VALUE: analyze_format:f <- %r15
	.loc	9 48 13 is_stmt 1       # analyze.c:48:13
	callq	_Z24__sanitizer_cov_trace_pcv
	#APP
	#NO_APP
	movq	%rsp, %rdi
	movl	$zip_sign, %esi
	movl	$4, %edx
	callq	strncmp
	movl	%eax, %ebp
	.loc	9 48 50 is_stmt 0       # analyze.c:48:50
	xorl	%edi, %edi
	movl	%ebp, %esi
	callq	_Z32__sanitizer_cov_trace_const_cmp4jj
	testl	%ebp, %ebp
.Ltmp738:
	.loc	9 48 13                 # analyze.c:48:13
	je	.LBB25_25
.Ltmp739:
# %bb.4:                                # %if.else18
	#DEBUG_VALUE: analyze_format:f <- %r15
	.loc	9 0 13                  # analyze.c:0:13
	leaq	4(%rsp), %r14
.Ltmp740:
	.loc	9 52 13 is_stmt 1       # analyze.c:52:13
	callq	_Z24__sanitizer_cov_trace_pcv
	#APP
	#NO_APP
	movq	%rsp, %rdi
	movl	$old_word_sign, %esi
	movl	$2, %edx
	callq	strncmp
	movl	%eax, %ebp
	.loc	9 52 53 is_stmt 0       # analyze.c:52:53
	xorl	%edi, %edi
	movl	%ebp, %esi
	callq	_Z32__sanitizer_cov_trace_const_cmp4jj
	testl	%ebp, %ebp
.Ltmp741:
	.loc	9 52 13                 # analyze.c:52:13
	je	.LBB25_15
.Ltmp742:
# %bb.5:                                # %if.end29
	#DEBUG_VALUE: analyze_format:f <- %r15
	.loc	9 56 2 is_stmt 1        # analyze.c:56:2
	callq	_Z24__sanitizer_cov_trace_pcv
	#APP
	#NO_APP
	movl	$1, %esi
	movl	$4, %edx
	movq	%r14, %rdi
	movq	%r15, %rcx
	callq	fread
	movq	%rsp, %rdi
.Ltmp743:
	.loc	9 57 6                  # analyze.c:57:6
	movl	$ole_sign, %esi
	movl	$8, %edx
	callq	strncmp
	movl	%eax, %ebx
	.loc	9 57 41 is_stmt 0       # analyze.c:57:41
	xorl	%r12d, %r12d
	xorl	%edi, %edi
	movl	%ebx, %esi
	callq	_Z32__sanitizer_cov_trace_const_cmp4jj
	testl	%ebx, %ebx
.Ltmp744:
	.loc	9 57 6                  # analyze.c:57:6
	je	.LBB25_16
.Ltmp745:
# %bb.6:                                # %if.else102
	#DEBUG_VALUE: analyze_format:f <- %r15
	.loc	9 78 3 is_stmt 1        # analyze.c:78:3
	callq	_Z24__sanitizer_cov_trace_pcv
	#APP
	#NO_APP
	movq	%rsp, %rsi
	movq	%r15, %rdi
	callq	copy_out
	jmp	.LBB25_13
.Ltmp746:
.LBB25_7:                               # %if.then
	#DEBUG_VALUE: analyze_format:f <- %r15
	.loc	9 36 8                  # analyze.c:36:8
	callq	_Z24__sanitizer_cov_trace_pcv
	#APP
	#NO_APP
	cmpq	$0, get_unicode_char(%rip)
.Ltmp747:
	.loc	9 36 7 is_stmt 0        # analyze.c:36:7
	jne	.LBB25_9
.Ltmp748:
# %bb.8:                                # %if.then2
	#DEBUG_VALUE: analyze_format:f <- %r15
	.loc	9 37 20 is_stmt 1       # analyze.c:37:20
	callq	_Z24__sanitizer_cov_trace_pcv
	#APP
	#NO_APP
	movq	$get_8bit_char, get_unicode_char(%rip)
.Ltmp749:
.LBB25_9:                               # %if.end
	#DEBUG_VALUE: analyze_format:f <- %r15
	.loc	9 38 10                 # analyze.c:38:10
	callq	_Z24__sanitizer_cov_trace_pcv
	#APP
	#NO_APP
	jmp	.LBB25_11
.Ltmp750:
.LBB25_10:                              # %if.then6
	#DEBUG_VALUE: analyze_format:f <- %r15
	.loc	9 43 3                  # analyze.c:43:3
	callq	_Z24__sanitizer_cov_trace_pcv
	#APP
	#NO_APP
	movl	$.Lstr.9, %edi
	callq	puts
	.loc	9 44 19                 # analyze.c:44:19
	movq	$get_8bit_char, get_unicode_char(%rip)
.Ltmp751:
.LBB25_11:                              # %cleanup
	#DEBUG_VALUE: analyze_format:f <- %r15
	.loc	9 0 19 is_stmt 0        # analyze.c:0:19
	movabsq	$9223372036854775807, %rsi # imm = 0x7FFFFFFFFFFFFFFF
	movq	%r15, %rdi
	callq	process_file
.Ltmp752:
.LBB25_12:                              # %cleanup
	#DEBUG_VALUE: analyze_format:f <- %r15
	movl	%eax, %r12d
.Ltmp753:
.LBB25_13:                              # %cleanup
	.loc	9 83 1 is_stmt 1        # analyze.c:83:1
	callq	_Z24__sanitizer_cov_trace_pcv
	#APP
	#NO_APP
	movl	%r12d, %eax
	addq	$144, %rsp
	popq	%rbx
	popq	%r12
	popq	%r14
	popq	%r15
	popq	%rbp
	retq
.LBB25_14:                              # %if.then11
.Ltmp754:
	#DEBUG_VALUE: analyze_format:f <- %r15
	.loc	9 47 10                 # analyze.c:47:10
	callq	_Z24__sanitizer_cov_trace_pcv
	#APP
	#NO_APP
	movq	%r15, %rdi
	callq	parse_rtf
	jmp	.LBB25_12
.Ltmp755:
.LBB25_15:                              # %if.then21
	#DEBUG_VALUE: analyze_format:f <- %r15
	.loc	9 53 5                  # analyze.c:53:5
	callq	_Z24__sanitizer_cov_trace_pcv
	#APP
	#NO_APP
	movl	$1, %esi
	movl	$124, %edx
	movq	%r14, %rdi
	movq	%r15, %rcx
	callq	fread
	movq	%rsp, %rdi
	.loc	9 54 12                 # analyze.c:54:12
	movl	$128, %edx
	xorl	%ecx, %ecx
	movq	%r15, %rsi
	callq	parse_word_header
	jmp	.LBB25_12
.Ltmp756:
.LBB25_16:                              # %if.then35
	#DEBUG_VALUE: analyze_format:f <- %r15
	.loc	9 58 17                 # analyze.c:58:17
	callq	_Z24__sanitizer_cov_trace_pcv
	#APP
	#NO_APP
	movq	%rsp, %rsi
	movl	$8, %edx
	movq	%r15, %rdi
	callq	ole_init
	movq	%rax, %r14
.Ltmp757:
	#DEBUG_VALUE: analyze_format:new_file <- %r14
	.loc	9 58 41 is_stmt 0       # analyze.c:58:41
	testq	%r14, %r14
.Ltmp758:
	.loc	9 58 7                  # analyze.c:58:7
	je	.LBB25_26
.Ltmp759:
# %bb.17:                               # %if.then39
	#DEBUG_VALUE: analyze_format:new_file <- %r14
	#DEBUG_VALUE: analyze_format:f <- %r15
	.loc	9 59 4 is_stmt 1        # analyze.c:59:4
	callq	_Z24__sanitizer_cov_trace_pcv
	#APP
	#NO_APP
	callq	set_ole_func
	#DEBUG_VALUE: analyze_format:ret_code <- 69
	.loc	9 60 20                 # analyze.c:60:20
	movq	%r14, %rdi
	callq	ole_readdir
	movq	%rax, %rbx
.Ltmp760:
	#DEBUG_VALUE: analyze_format:ole_file <- %rbx
	.loc	9 60 43 is_stmt 0       # analyze.c:60:43
	testq	%rbx, %rbx
	.loc	9 60 4                  # analyze.c:60:4
	je	.LBB25_23
.Ltmp761:
# %bb.18:                               # %while.body.preheader
	#DEBUG_VALUE: analyze_format:ole_file <- %rbx
	#DEBUG_VALUE: analyze_format:new_file <- %r14
	#DEBUG_VALUE: analyze_format:f <- %r15
	.loc	9 61 13 is_stmt 1       # analyze.c:61:13
	callq	_Z24__sanitizer_cov_trace_pcv
	#APP
	#NO_APP
	movl	$69, %r12d
	movq	%rsp, %r15
.Ltmp762:
	.p2align	4, 0x90
.LBB25_19:                              # %while.body
                                        # =>This Inner Loop Header: Depth=1
	#DEBUG_VALUE: analyze_format:ole_file <- %rbx
	#DEBUG_VALUE: analyze_format:new_file <- %r14
	.loc	9 30 6                  # analyze.c:30:6
	callq	_Z24__sanitizer_cov_trace_pcv
	#APP
	#NO_APP
.Ltmp763:
	.loc	9 61 13                 # analyze.c:61:13
	movq	%rbx, %rdi
	callq	ole_open
	movl	%eax, %ebp
.Ltmp764:
	#DEBUG_VALUE: res <- %ebp
	.loc	9 62 13                 # analyze.c:62:13
	movl	$-1, %edi
	movl	%ebp, %esi
	callq	_Z32__sanitizer_cov_trace_const_cmp4jj
	testl	%ebp, %ebp
.Ltmp765:
	.loc	9 62 9 is_stmt 0        # analyze.c:62:9
	js	.LBB25_22
.Ltmp766:
# %bb.20:                               # %cond.end
                                        #   in Loop: Header=BB25_19 Depth=1
	#DEBUG_VALUE: res <- %ebp
	#DEBUG_VALUE: analyze_format:ole_file <- %rbx
	#DEBUG_VALUE: analyze_format:new_file <- %r14
	.loc	9 63 10 is_stmt 1       # analyze.c:63:10
	callq	_Z24__sanitizer_cov_trace_pcv
.Ltmp767:
	#DEBUG_VALUE: __s2_len <- 12
	#APP
	#NO_APP
	leaq	8(%rbx), %rbp
.Ltmp768:
	movl	$.L.str.2.11, %esi
	movq	%rbp, %rdi
	callq	_Z28__sanitizer_cov_trace_strcmpPmS_
	movl	$.L.str.2.11, %esi
	movq	%rbp, %rdi
	callq	strcmp
	movl	%eax, %ebp
.Ltmp769:
	.loc	9 63 63 is_stmt 0       # analyze.c:63:63
	xorl	%edi, %edi
	movl	%ebp, %esi
	callq	_Z32__sanitizer_cov_trace_const_cmp4jj
	testl	%ebp, %ebp
.Ltmp770:
	.loc	9 63 10                 # analyze.c:63:10
	jne	.LBB25_22
.Ltmp771:
# %bb.21:                               # %if.then89
                                        #   in Loop: Header=BB25_19 Depth=1
	#DEBUG_VALUE: analyze_format:ole_file <- %rbx
	#DEBUG_VALUE: analyze_format:new_file <- %r14
	.loc	9 64 14 is_stmt 1       # analyze.c:64:14
	callq	_Z24__sanitizer_cov_trace_pcv
	#APP
	#NO_APP
	movl	$1, %esi
	movl	$128, %edx
	movq	%r15, %rdi
	movq	%rbx, %rcx
	callq	*catdoc_read(%rip)
.Ltmp772:
	#DEBUG_VALUE: analyze_format:offset <- %rax
	.loc	9 65 50                 # analyze.c:65:50
	movl	%eax, %edx
	negl	%edx
	.loc	9 65 16 is_stmt 0       # analyze.c:65:16
	movq	%r15, %rdi
	movq	%rbx, %rsi
	movq	%rax, %rcx
	callq	parse_word_header
.Ltmp773:
	movl	%eax, %r12d
.Ltmp774:
	#DEBUG_VALUE: analyze_format:ret_code <- %r12d
.LBB25_22:                              # %if.end97
                                        #   in Loop: Header=BB25_19 Depth=1
	#DEBUG_VALUE: analyze_format:ole_file <- %rbx
	#DEBUG_VALUE: analyze_format:new_file <- %r14
	.loc	9 68 5 is_stmt 1        # analyze.c:68:5
	callq	_Z24__sanitizer_cov_trace_pcv
	#APP
	#NO_APP
	movq	%rbx, %rdi
	callq	ole_close
.Ltmp775:
	.loc	9 60 20                 # analyze.c:60:20
	movq	%r14, %rdi
	callq	ole_readdir
	movq	%rax, %rbx
.Ltmp776:
	#DEBUG_VALUE: analyze_format:ole_file <- %rbx
	.loc	9 60 43 is_stmt 0       # analyze.c:60:43
	testq	%rbx, %rbx
	.loc	9 60 4                  # analyze.c:60:4
	jne	.LBB25_19
	jmp	.LBB25_24
.Ltmp777:
.LBB25_23:
	#DEBUG_VALUE: analyze_format:ole_file <- %rbx
	#DEBUG_VALUE: analyze_format:new_file <- %r14
	#DEBUG_VALUE: analyze_format:f <- %r15
	.loc	9 0 4                   # analyze.c:0:4
	movl	$69, %r12d
.Ltmp778:
.LBB25_24:                              # %while.end
	#DEBUG_VALUE: analyze_format:ole_file <- %rbx
	#DEBUG_VALUE: analyze_format:new_file <- %r14
	.loc	9 70 4 is_stmt 1        # analyze.c:70:4
	callq	_Z24__sanitizer_cov_trace_pcv
	#APP
	#NO_APP
	callq	set_std_func
	.loc	9 71 4                  # analyze.c:71:4
	callq	ole_finish
	jmp	.LBB25_13
.Ltmp779:
.LBB25_25:                              # %if.then16
	#DEBUG_VALUE: analyze_format:f <- %r15
	.loc	9 49 11                 # analyze.c:49:11
	callq	_Z24__sanitizer_cov_trace_pcv
	#APP
	#NO_APP
	movq	stderr(%rip), %rcx
	.loc	9 49 3 is_stmt 0        # analyze.c:49:3
	movl	$.L.str.1.10, %edi
	movl	$87, %esi
	jmp	.LBB25_27
.Ltmp780:
.LBB25_26:                              # %if.else99
	#DEBUG_VALUE: analyze_format:new_file <- %r14
	#DEBUG_VALUE: analyze_format:f <- %r15
	.loc	9 73 12 is_stmt 1       # analyze.c:73:12
	callq	_Z24__sanitizer_cov_trace_pcv
	#APP
	#NO_APP
	movq	stderr(%rip), %rcx
	.loc	9 73 4 is_stmt 0        # analyze.c:73:4
	movl	$.L.str.3.12, %edi
	movl	$37, %esi
.Ltmp781:
.LBB25_27:                              # %if.then16
	#DEBUG_VALUE: analyze_format:f <- %r15
	.loc	9 0 4                   # analyze.c:0:4
	movl	$1, %edx
	callq	fwrite
	movl	$1, %edi
	callq	exit
.Lfunc_end25:
	.size	analyze_format, .Lfunc_end25-analyze_format
	.cfi_endproc
                                        # -- End function
	.globl	process_file            # -- Begin function process_file
	.p2align	4, 0x90
	.type	process_file,@function
process_file:                           # @process_file
.Lfunc_begin26:
	.loc	6 93 0 is_stmt 1        # reader.c:93:0
	.cfi_startproc
# %bb.0:                                # %entry
	pushq	%rbp
	.cfi_def_cfa_offset 16
	pushq	%r15
	.cfi_def_cfa_offset 24
	pushq	%r14
	.cfi_def_cfa_offset 32
	pushq	%r13
	.cfi_def_cfa_offset 40
	pushq	%r12
	.cfi_def_cfa_offset 48
	pushq	%rbx
	.cfi_def_cfa_offset 56
	subq	$24, %rsp
	.cfi_def_cfa_offset 80
	.cfi_offset %rbx, -56
	.cfi_offset %r12, -48
	.cfi_offset %r13, -40
	.cfi_offset %r14, -32
	.cfi_offset %r15, -24
	.cfi_offset %rbp, -16
	#DEBUG_VALUE: process_file:f <- %rdi
	#DEBUG_VALUE: process_file:stop <- %rsi
	movq	%rsi, %rbp
	movq	%rdi, %rbx
	callq	_Z24__sanitizer_cov_trace_pcv
.Ltmp782:
	#APP
	#NO_APP
.Ltmp783:
	#DEBUG_VALUE: process_file:hyperlink_mode <- 0
	#DEBUG_VALUE: process_file:offset <- 0
	#DEBUG_VALUE: process_file:tabmode <- 0
	#DEBUG_VALUE: process_file:stop <- %rbp
	#DEBUG_VALUE: process_file:f <- %rbx
	.loc	6 96 7 prologue_end     # reader.c:96:7
	movq	$0, 16(%rsp)
	movq	%rbx, (%rsp)            # 8-byte Spill
.Ltmp784:
	#DEBUG_VALUE: process_file:f <- [%rsp+0]
	.loc	6 100 10                # reader.c:100:10
	movq	%rbx, %rdi
	callq	*catdoc_eof(%rip)
	movl	%eax, %ebx
	xorl	%edi, %edi
	movl	%ebx, %esi
	callq	_Z32__sanitizer_cov_trace_const_cmp4jj
	.loc	6 100 33 is_stmt 0      # reader.c:100:33
	xorl	%edi, %edi
	movq	%rbp, %rsi
	callq	_Z32__sanitizer_cov_trace_const_cmp8mm
	.loc	6 100 10                # reader.c:100:10
	testl	%ebx, %ebx
	.loc	6 100 24                # reader.c:100:24
	jne	.LBB26_32
.Ltmp785:
# %bb.1:                                # %entry
	#DEBUG_VALUE: process_file:f <- [%rsp+0]
	#DEBUG_VALUE: process_file:stop <- %rbp
	testq	%rbp, %rbp
	jle	.LBB26_32
.Ltmp786:
# %bb.2:                                # %do.body.preheader
	#DEBUG_VALUE: process_file:f <- [%rsp+0]
	#DEBUG_VALUE: process_file:stop <- %rbp
	.loc	6 103 6 is_stmt 1       # reader.c:103:6
	callq	_Z24__sanitizer_cov_trace_pcv
	#APP
	#NO_APP
	movl	$-1, %r13d
	xorl	%r12d, %r12d
	xorl	%ebx, %ebx
	movq	%rbp, 8(%rsp)           # 8-byte Spill
	jmp	.LBB26_3
.Ltmp787:
	.p2align	4, 0x90
.LBB26_27:                              # %do.body.backedge
                                        #   in Loop: Header=BB26_3 Depth=1
	#DEBUG_VALUE: process_file:offset <- [DW_OP_plus_uconst 16] [%rsp+0]
	#DEBUG_VALUE: process_file:f <- [%rsp+0]
	.loc	6 94 6                  # reader.c:94:6
	callq	_Z24__sanitizer_cov_trace_pcv
	#APP
	#NO_APP
	movl	%r14d, %ebx
	movl	%r15d, %r13d
.Ltmp788:
.LBB26_3:                               # %do.body
                                        # =>This Inner Loop Header: Depth=1
	#DEBUG_VALUE: process_file:f <- [%rsp+0]
	#DEBUG_VALUE: process_file:stop <- %rbp
	callq	_Z24__sanitizer_cov_trace_pcv
	#APP
	#NO_APP
.Ltmp789:
	#DEBUG_VALUE: process_file:offset <- [DW_OP_plus_uconst 16] [%rsp+0]
	.loc	6 103 6                 # reader.c:103:6
	movq	(%rsp), %rdi            # 8-byte Reload
	leaq	16(%rsp), %rsi
	movq	%rbp, %rdx
	callq	*get_unicode_char(%rip)
	movl	%eax, %r14d
.Ltmp790:
	#DEBUG_VALUE: process_file:c <- %r14w
	#DEBUG_VALUE: process_file:tabmode <- %r12d
	.loc	6 117 8                 # reader.c:117:8
	xorl	%edi, %edi
	movl	%r12d, %esi
	callq	_Z32__sanitizer_cov_trace_const_cmp4jj
	movzwl	%r14w, %ebp
.Ltmp791:
	testl	%r12d, %r12d
.Ltmp792:
	.loc	6 117 8 is_stmt 0       # reader.c:117:8
	je	.LBB26_7
.Ltmp793:
# %bb.4:                                # %if.then
                                        #   in Loop: Header=BB26_3 Depth=1
	#DEBUG_VALUE: process_file:tabmode <- %r12d
	#DEBUG_VALUE: process_file:c <- %r14w
	#DEBUG_VALUE: process_file:offset <- [DW_OP_plus_uconst 16] [%rsp+0]
	#DEBUG_VALUE: process_file:f <- [%rsp+0]
	#DEBUG_VALUE: process_file:bufptr <- %r13d
	.loc	6 0 8                   # reader.c:0:8
	movl	%ebx, %r15d
	.loc	6 95 6 is_stmt 1        # reader.c:95:6
	callq	_Z24__sanitizer_cov_trace_pcv
	#APP
	#NO_APP
.Ltmp794:
	#DEBUG_VALUE: process_file:tabmode <- 0
	.loc	6 119 10                # reader.c:119:10
	movl	$7, %edi
	movl	%ebp, %esi
	callq	_Z32__sanitizer_cov_trace_const_cmp4jj
	addl	$1, %r13d
.Ltmp795:
	.loc	6 0 10 is_stmt 0        # reader.c:0:10
	movslq	%r13d, %rbx
	.loc	6 119 10                # reader.c:119:10
	cmpl	$7, %ebp
.Ltmp796:
	.loc	6 119 9                 # reader.c:119:9
	jne	.LBB26_6
.Ltmp797:
# %bb.5:                                # %if.then6
                                        #   in Loop: Header=BB26_3 Depth=1
	#DEBUG_VALUE: process_file:c <- %r14w
	#DEBUG_VALUE: process_file:offset <- [DW_OP_plus_uconst 16] [%rsp+0]
	#DEBUG_VALUE: process_file:f <- [%rsp+0]
	.loc	6 120 22 is_stmt 1      # reader.c:120:22
	callq	_Z24__sanitizer_cov_trace_pcv
	#APP
	#NO_APP
	movw	$30, buffer(%rbx,%rbx)
	xorl	%r12d, %r12d
	movl	%r15d, %ebx
	jmp	.LBB26_23
.Ltmp798:
	.p2align	4, 0x90
.LBB26_6:                               # %if.else
                                        #   in Loop: Header=BB26_3 Depth=1
	#DEBUG_VALUE: process_file:c <- %r14w
	#DEBUG_VALUE: process_file:offset <- [DW_OP_plus_uconst 16] [%rsp+0]
	#DEBUG_VALUE: process_file:f <- [%rsp+0]
	.loc	6 123 22                # reader.c:123:22
	callq	_Z24__sanitizer_cov_trace_pcv
	#APP
	#NO_APP
	movw	$28, buffer(%rbx,%rbx)
	movl	%r15d, %ebx
.Ltmp799:
.LBB26_7:                               # %if.end10
                                        #   in Loop: Header=BB26_3 Depth=1
	#DEBUG_VALUE: process_file:c <- %r14w
	#DEBUG_VALUE: process_file:offset <- [DW_OP_plus_uconst 16] [%rsp+0]
	#DEBUG_VALUE: process_file:f <- [%rsp+0]
	.loc	6 94 6                  # reader.c:94:6
	callq	_Z24__sanitizer_cov_trace_pcv
	#APP
	#NO_APP
	#DEBUG_VALUE: process_file:tabmode <- 0
.Ltmp800:
	.loc	6 126 9                 # reader.c:126:9
	movl	$32, %edi
	movl	%ebp, %esi
	callq	_Z32__sanitizer_cov_trace_const_cmp4jj
	cmpl	$31, %ebp
.Ltmp801:
	.loc	6 126 8 is_stmt 0       # reader.c:126:8
	ja	.LBB26_21
.Ltmp802:
# %bb.8:                                # %if.then14
                                        #   in Loop: Header=BB26_3 Depth=1
	#DEBUG_VALUE: process_file:c <- %r14w
	#DEBUG_VALUE: process_file:offset <- [DW_OP_plus_uconst 16] [%rsp+0]
	#DEBUG_VALUE: process_file:f <- [%rsp+0]
	.loc	6 127 5 is_stmt 1       # reader.c:127:5
	callq	_Z24__sanitizer_cov_trace_pcv
	#APP
	#NO_APP
	movl	$__sancov_gen_cov_switch_values.6, %esi
	movq	%rbp, %rdi
	callq	_Z28__sanitizer_cov_trace_switchmPm
	xorl	%r12d, %r12d
	movl	$-1, %r15d
	addl	$-1, %r14d
.Ltmp803:
	movzwl	%r14w, %eax
	cmpl	$30, %eax
	ja	.LBB26_9
.Ltmp804:
# %bb.10:                               # %if.then14
                                        #   in Loop: Header=BB26_3 Depth=1
	#DEBUG_VALUE: process_file:offset <- [DW_OP_plus_uconst 16] [%rsp+0]
	#DEBUG_VALUE: process_file:f <- [%rsp+0]
	.loc	6 0 5 is_stmt 0         # reader.c:0:5
	movl	%ebx, %r14d
	jmpq	*.LJTI26_0(,%rax,8)
.Ltmp805:
.LBB26_12:                              # %sw.bb16
                                        #   in Loop: Header=BB26_3 Depth=1
	#DEBUG_VALUE: process_file:offset <- [DW_OP_plus_uconst 16] [%rsp+0]
	#DEBUG_VALUE: process_file:f <- [%rsp+0]
	.loc	6 133 14 is_stmt 1      # reader.c:133:14
	callq	_Z24__sanitizer_cov_trace_pcv
	#APP
	#NO_APP
	.loc	6 133 7 is_stmt 0       # reader.c:133:7
	movslq	%r13d, %rax
	.loc	6 133 14                # reader.c:133:14
	addl	$1, %r13d
	.loc	6 133 23                # reader.c:133:23
	movw	$10, buffer+2(%rax,%rax)
	jmp	.LBB26_23
.Ltmp806:
	.p2align	4, 0x90
.LBB26_21:                              # %if.else49
                                        #   in Loop: Header=BB26_3 Depth=1
	#DEBUG_VALUE: process_file:c <- %r14w
	#DEBUG_VALUE: process_file:offset <- [DW_OP_plus_uconst 16] [%rsp+0]
	#DEBUG_VALUE: process_file:f <- [%rsp+0]
	.loc	6 168 17 is_stmt 1      # reader.c:168:17
	callq	_Z24__sanitizer_cov_trace_pcv
	#APP
	#NO_APP
	movl	$65279, %edi            # imm = 0xFEFF
	movl	%ebp, %esi
	callq	_Z32__sanitizer_cov_trace_const_cmp4jj
	xorl	%r12d, %r12d
	cmpl	$65279, %ebp            # imm = 0xFEFF
.Ltmp807:
	.loc	6 168 15 is_stmt 0      # reader.c:168:15
	je	.LBB26_23
.Ltmp808:
# %bb.22:                               # %if.then53
                                        #   in Loop: Header=BB26_3 Depth=1
	#DEBUG_VALUE: process_file:c <- %r14w
	#DEBUG_VALUE: process_file:offset <- [DW_OP_plus_uconst 16] [%rsp+0]
	#DEBUG_VALUE: process_file:f <- [%rsp+0]
	#DEBUG_VALUE: process_file:bufptr <- %r13d
	.loc	6 171 12 is_stmt 1      # reader.c:171:12
	callq	_Z24__sanitizer_cov_trace_pcv
	#APP
	#NO_APP
	.loc	6 171 5 is_stmt 0       # reader.c:171:5
	movslq	%r13d, %rax
	.loc	6 171 12                # reader.c:171:12
	addl	$1, %r13d
.Ltmp809:
	.loc	6 171 21                # reader.c:171:21
	movw	%r14w, buffer+2(%rax,%rax)
	jmp	.LBB26_23
.Ltmp810:
.LBB26_20:                              # %sw.bb45
                                        #   in Loop: Header=BB26_3 Depth=1
	#DEBUG_VALUE: process_file:offset <- [DW_OP_plus_uconst 16] [%rsp+0]
	#DEBUG_VALUE: process_file:f <- [%rsp+0]
	.loc	6 162 23 is_stmt 1      # reader.c:162:23
	callq	_Z24__sanitizer_cov_trace_pcv
	#APP
	#NO_APP
.Ltmp811:
	#DEBUG_VALUE: process_file:hyperlink_mode <- %ebx
	.loc	6 0 23 is_stmt 0        # reader.c:0:23
	xorl	%r12d, %r12d
	.loc	6 162 23                # reader.c:162:23
	xorl	%edi, %edi
	movl	%ebx, %esi
	callq	_Z32__sanitizer_cov_trace_const_cmp4jj
	movl	$0, %r14d
	testl	%ebx, %ebx
.Ltmp812:
	.loc	6 162 23                # reader.c:162:23
	jne	.LBB26_23
	jmp	.LBB26_24
.Ltmp813:
.LBB26_11:                              # %sw.bb
                                        #   in Loop: Header=BB26_3 Depth=1
	#DEBUG_VALUE: process_file:offset <- [DW_OP_plus_uconst 16] [%rsp+0]
	#DEBUG_VALUE: process_file:f <- [%rsp+0]
	.loc	6 95 6 is_stmt 1        # reader.c:95:6
	callq	_Z24__sanitizer_cov_trace_pcv
	#APP
	#NO_APP
.Ltmp814:
	#DEBUG_VALUE: process_file:tabmode <- 1
	.loc	6 0 6 is_stmt 0         # reader.c:0:6
	movl	$1, %r12d
	jmp	.LBB26_23
.Ltmp815:
.LBB26_16:                              # %sw.bb32
                                        #   in Loop: Header=BB26_3 Depth=1
	#DEBUG_VALUE: process_file:offset <- [DW_OP_plus_uconst 16] [%rsp+0]
	#DEBUG_VALUE: process_file:f <- [%rsp+0]
	.loc	6 148 17 is_stmt 1      # reader.c:148:17
	callq	_Z24__sanitizer_cov_trace_pcv
	#APP
	#NO_APP
	.loc	6 148 10 is_stmt 0      # reader.c:148:10
	movslq	%r13d, %rax
	.loc	6 148 17                # reader.c:148:17
	addl	$1, %r13d
	.loc	6 148 26                # reader.c:148:26
	movw	$9, buffer+2(%rax,%rax)
	jmp	.LBB26_23
